
raw_lwip_disco.elf:     file format elf32-littlearm

Sections:
Idx Name          Size      VMA       LMA       File off  Algn
  0 .isr_vector   00000188  08000000  08000000  00010000  2**0
                  CONTENTS, ALLOC, LOAD, READONLY, DATA
  1 .text         000072ec  08000188  08000188  00010188  2**2
                  CONTENTS, ALLOC, LOAD, READONLY, CODE
  2 .rodata       0000007c  08007474  08007474  00017474  2**2
                  CONTENTS, ALLOC, LOAD, READONLY, DATA
  3 .ARM          00000008  080074f0  080074f0  000174f0  2**2
                  CONTENTS, ALLOC, LOAD, READONLY, DATA
  4 .init_array   00000004  080074f8  080074f8  000174f8  2**2
                  CONTENTS, ALLOC, LOAD, DATA
  5 .fini_array   00000004  080074fc  080074fc  000174fc  2**2
                  CONTENTS, ALLOC, LOAD, DATA
  6 .data         00000018  20000000  08007500  00020000  2**2
                  CONTENTS, ALLOC, LOAD, DATA
  7 .ccmram       00000000  10000000  10000000  00020018  2**0
                  CONTENTS
  8 .bss          000055e4  20000018  20000018  00020018  2**2
                  ALLOC
  9 ._user_heap_stack 00000400  200055fc  200055fc  00020018  2**0
                  ALLOC
 10 .ARM.attributes 00000030  00000000  00000000  00020018  2**0
                  CONTENTS, READONLY
 11 .debug_info   0002d49c  00000000  00000000  00020048  2**0
                  CONTENTS, READONLY, DEBUGGING
 12 .debug_abbrev 00006608  00000000  00000000  0004d4e4  2**0
                  CONTENTS, READONLY, DEBUGGING
 13 .debug_loc    000113b7  00000000  00000000  00053aec  2**0
                  CONTENTS, READONLY, DEBUGGING
 14 .debug_aranges 00001378  00000000  00000000  00064ea8  2**3
                  CONTENTS, READONLY, DEBUGGING
 15 .debug_ranges 00001aa8  00000000  00000000  00066220  2**3
                  CONTENTS, READONLY, DEBUGGING
 16 .debug_line   0000aa73  00000000  00000000  00067cc8  2**0
                  CONTENTS, READONLY, DEBUGGING
 17 .debug_str    00006624  00000000  00000000  0007273b  2**0
                  CONTENTS, READONLY, DEBUGGING
 18 .comment      0000007c  00000000  00000000  00078d5f  2**0
                  CONTENTS, READONLY
 19 .debug_frame  00003b0c  00000000  00000000  00078ddc  2**2
                  CONTENTS, READONLY, DEBUGGING

Disassembly of section .text:

08000188 <__do_global_dtors_aux>:
 8000188:	b510      	push	{r4, lr}
 800018a:	4c05      	ldr	r4, [pc, #20]	; (80001a0 <__do_global_dtors_aux+0x18>)
 800018c:	7823      	ldrb	r3, [r4, #0]
 800018e:	b933      	cbnz	r3, 800019e <__do_global_dtors_aux+0x16>
 8000190:	4b04      	ldr	r3, [pc, #16]	; (80001a4 <__do_global_dtors_aux+0x1c>)
 8000192:	b113      	cbz	r3, 800019a <__do_global_dtors_aux+0x12>
 8000194:	4804      	ldr	r0, [pc, #16]	; (80001a8 <__do_global_dtors_aux+0x20>)
 8000196:	f3af 8000 	nop.w
 800019a:	2301      	movs	r3, #1
 800019c:	7023      	strb	r3, [r4, #0]
 800019e:	bd10      	pop	{r4, pc}
 80001a0:	20000018 	.word	0x20000018
 80001a4:	00000000 	.word	0x00000000
 80001a8:	0800745c 	.word	0x0800745c

080001ac <frame_dummy>:
 80001ac:	b508      	push	{r3, lr}
 80001ae:	4b03      	ldr	r3, [pc, #12]	; (80001bc <frame_dummy+0x10>)
 80001b0:	b11b      	cbz	r3, 80001ba <frame_dummy+0xe>
 80001b2:	4903      	ldr	r1, [pc, #12]	; (80001c0 <frame_dummy+0x14>)
 80001b4:	4803      	ldr	r0, [pc, #12]	; (80001c4 <frame_dummy+0x18>)
 80001b6:	f3af 8000 	nop.w
 80001ba:	bd08      	pop	{r3, pc}
 80001bc:	00000000 	.word	0x00000000
 80001c0:	2000001c 	.word	0x2000001c
 80001c4:	0800745c 	.word	0x0800745c

080001c8 <__aeabi_uldivmod>:
 80001c8:	b953      	cbnz	r3, 80001e0 <__aeabi_uldivmod+0x18>
 80001ca:	b94a      	cbnz	r2, 80001e0 <__aeabi_uldivmod+0x18>
 80001cc:	2900      	cmp	r1, #0
 80001ce:	bf08      	it	eq
 80001d0:	2800      	cmpeq	r0, #0
 80001d2:	bf1c      	itt	ne
 80001d4:	f04f 31ff 	movne.w	r1, #4294967295
 80001d8:	f04f 30ff 	movne.w	r0, #4294967295
 80001dc:	f000 b97a 	b.w	80004d4 <__aeabi_idiv0>
 80001e0:	f1ad 0c08 	sub.w	ip, sp, #8
 80001e4:	e96d ce04 	strd	ip, lr, [sp, #-16]!
 80001e8:	f000 f806 	bl	80001f8 <__udivmoddi4>
 80001ec:	f8dd e004 	ldr.w	lr, [sp, #4]
 80001f0:	e9dd 2302 	ldrd	r2, r3, [sp, #8]
 80001f4:	b004      	add	sp, #16
 80001f6:	4770      	bx	lr

080001f8 <__udivmoddi4>:
 80001f8:	e92d 47f0 	stmdb	sp!, {r4, r5, r6, r7, r8, r9, sl, lr}
 80001fc:	468c      	mov	ip, r1
 80001fe:	460d      	mov	r5, r1
 8000200:	4604      	mov	r4, r0
 8000202:	9e08      	ldr	r6, [sp, #32]
 8000204:	2b00      	cmp	r3, #0
 8000206:	d151      	bne.n	80002ac <__udivmoddi4+0xb4>
 8000208:	428a      	cmp	r2, r1
 800020a:	4617      	mov	r7, r2
 800020c:	d96d      	bls.n	80002ea <__udivmoddi4+0xf2>
 800020e:	fab2 fe82 	clz	lr, r2
 8000212:	f1be 0f00 	cmp.w	lr, #0
 8000216:	d00b      	beq.n	8000230 <__udivmoddi4+0x38>
 8000218:	f1ce 0c20 	rsb	ip, lr, #32
 800021c:	fa01 f50e 	lsl.w	r5, r1, lr
 8000220:	fa20 fc0c 	lsr.w	ip, r0, ip
 8000224:	fa02 f70e 	lsl.w	r7, r2, lr
 8000228:	ea4c 0c05 	orr.w	ip, ip, r5
 800022c:	fa00 f40e 	lsl.w	r4, r0, lr
 8000230:	ea4f 4a17 	mov.w	sl, r7, lsr #16
 8000234:	0c25      	lsrs	r5, r4, #16
 8000236:	fbbc f8fa 	udiv	r8, ip, sl
 800023a:	fa1f f987 	uxth.w	r9, r7
 800023e:	fb0a cc18 	mls	ip, sl, r8, ip
 8000242:	ea45 450c 	orr.w	r5, r5, ip, lsl #16
 8000246:	fb08 f309 	mul.w	r3, r8, r9
 800024a:	42ab      	cmp	r3, r5
 800024c:	d90a      	bls.n	8000264 <__udivmoddi4+0x6c>
 800024e:	19ed      	adds	r5, r5, r7
 8000250:	f108 32ff 	add.w	r2, r8, #4294967295
 8000254:	f080 8123 	bcs.w	800049e <__udivmoddi4+0x2a6>
 8000258:	42ab      	cmp	r3, r5
 800025a:	f240 8120 	bls.w	800049e <__udivmoddi4+0x2a6>
 800025e:	f1a8 0802 	sub.w	r8, r8, #2
 8000262:	443d      	add	r5, r7
 8000264:	1aed      	subs	r5, r5, r3
 8000266:	b2a4      	uxth	r4, r4
 8000268:	fbb5 f0fa 	udiv	r0, r5, sl
 800026c:	fb0a 5510 	mls	r5, sl, r0, r5
 8000270:	ea44 4405 	orr.w	r4, r4, r5, lsl #16
 8000274:	fb00 f909 	mul.w	r9, r0, r9
 8000278:	45a1      	cmp	r9, r4
 800027a:	d909      	bls.n	8000290 <__udivmoddi4+0x98>
 800027c:	19e4      	adds	r4, r4, r7
 800027e:	f100 33ff 	add.w	r3, r0, #4294967295
 8000282:	f080 810a 	bcs.w	800049a <__udivmoddi4+0x2a2>
 8000286:	45a1      	cmp	r9, r4
 8000288:	f240 8107 	bls.w	800049a <__udivmoddi4+0x2a2>
 800028c:	3802      	subs	r0, #2
 800028e:	443c      	add	r4, r7
 8000290:	eba4 0409 	sub.w	r4, r4, r9
 8000294:	ea40 4008 	orr.w	r0, r0, r8, lsl #16
 8000298:	2100      	movs	r1, #0
 800029a:	2e00      	cmp	r6, #0
 800029c:	d061      	beq.n	8000362 <__udivmoddi4+0x16a>
 800029e:	fa24 f40e 	lsr.w	r4, r4, lr
 80002a2:	2300      	movs	r3, #0
 80002a4:	6034      	str	r4, [r6, #0]
 80002a6:	6073      	str	r3, [r6, #4]
 80002a8:	e8bd 87f0 	ldmia.w	sp!, {r4, r5, r6, r7, r8, r9, sl, pc}
 80002ac:	428b      	cmp	r3, r1
 80002ae:	d907      	bls.n	80002c0 <__udivmoddi4+0xc8>
 80002b0:	2e00      	cmp	r6, #0
 80002b2:	d054      	beq.n	800035e <__udivmoddi4+0x166>
 80002b4:	2100      	movs	r1, #0
 80002b6:	e886 0021 	stmia.w	r6, {r0, r5}
 80002ba:	4608      	mov	r0, r1
 80002bc:	e8bd 87f0 	ldmia.w	sp!, {r4, r5, r6, r7, r8, r9, sl, pc}
 80002c0:	fab3 f183 	clz	r1, r3
 80002c4:	2900      	cmp	r1, #0
 80002c6:	f040 808e 	bne.w	80003e6 <__udivmoddi4+0x1ee>
 80002ca:	42ab      	cmp	r3, r5
 80002cc:	d302      	bcc.n	80002d4 <__udivmoddi4+0xdc>
 80002ce:	4282      	cmp	r2, r0
 80002d0:	f200 80fa 	bhi.w	80004c8 <__udivmoddi4+0x2d0>
 80002d4:	1a84      	subs	r4, r0, r2
 80002d6:	eb65 0503 	sbc.w	r5, r5, r3
 80002da:	2001      	movs	r0, #1
 80002dc:	46ac      	mov	ip, r5
 80002de:	2e00      	cmp	r6, #0
 80002e0:	d03f      	beq.n	8000362 <__udivmoddi4+0x16a>
 80002e2:	e886 1010 	stmia.w	r6, {r4, ip}
 80002e6:	e8bd 87f0 	ldmia.w	sp!, {r4, r5, r6, r7, r8, r9, sl, pc}
 80002ea:	b912      	cbnz	r2, 80002f2 <__udivmoddi4+0xfa>
 80002ec:	2701      	movs	r7, #1
 80002ee:	fbb7 f7f2 	udiv	r7, r7, r2
 80002f2:	fab7 fe87 	clz	lr, r7
 80002f6:	f1be 0f00 	cmp.w	lr, #0
 80002fa:	d134      	bne.n	8000366 <__udivmoddi4+0x16e>
 80002fc:	1beb      	subs	r3, r5, r7
 80002fe:	0c3a      	lsrs	r2, r7, #16
 8000300:	fa1f fc87 	uxth.w	ip, r7
 8000304:	2101      	movs	r1, #1
 8000306:	fbb3 f8f2 	udiv	r8, r3, r2
 800030a:	0c25      	lsrs	r5, r4, #16
 800030c:	fb02 3318 	mls	r3, r2, r8, r3
 8000310:	ea45 4503 	orr.w	r5, r5, r3, lsl #16
 8000314:	fb0c f308 	mul.w	r3, ip, r8
 8000318:	42ab      	cmp	r3, r5
 800031a:	d907      	bls.n	800032c <__udivmoddi4+0x134>
 800031c:	19ed      	adds	r5, r5, r7
 800031e:	f108 30ff 	add.w	r0, r8, #4294967295
 8000322:	d202      	bcs.n	800032a <__udivmoddi4+0x132>
 8000324:	42ab      	cmp	r3, r5
 8000326:	f200 80d1 	bhi.w	80004cc <__udivmoddi4+0x2d4>
 800032a:	4680      	mov	r8, r0
 800032c:	1aed      	subs	r5, r5, r3
 800032e:	b2a3      	uxth	r3, r4
 8000330:	fbb5 f0f2 	udiv	r0, r5, r2
 8000334:	fb02 5510 	mls	r5, r2, r0, r5
 8000338:	ea43 4405 	orr.w	r4, r3, r5, lsl #16
 800033c:	fb0c fc00 	mul.w	ip, ip, r0
 8000340:	45a4      	cmp	ip, r4
 8000342:	d907      	bls.n	8000354 <__udivmoddi4+0x15c>
 8000344:	19e4      	adds	r4, r4, r7
 8000346:	f100 33ff 	add.w	r3, r0, #4294967295
 800034a:	d202      	bcs.n	8000352 <__udivmoddi4+0x15a>
 800034c:	45a4      	cmp	ip, r4
 800034e:	f200 80b8 	bhi.w	80004c2 <__udivmoddi4+0x2ca>
 8000352:	4618      	mov	r0, r3
 8000354:	eba4 040c 	sub.w	r4, r4, ip
 8000358:	ea40 4008 	orr.w	r0, r0, r8, lsl #16
 800035c:	e79d      	b.n	800029a <__udivmoddi4+0xa2>
 800035e:	4631      	mov	r1, r6
 8000360:	4630      	mov	r0, r6
 8000362:	e8bd 87f0 	ldmia.w	sp!, {r4, r5, r6, r7, r8, r9, sl, pc}
 8000366:	f1ce 0420 	rsb	r4, lr, #32
 800036a:	fa05 f30e 	lsl.w	r3, r5, lr
 800036e:	fa07 f70e 	lsl.w	r7, r7, lr
 8000372:	fa20 f804 	lsr.w	r8, r0, r4
 8000376:	0c3a      	lsrs	r2, r7, #16
 8000378:	fa25 f404 	lsr.w	r4, r5, r4
 800037c:	ea48 0803 	orr.w	r8, r8, r3
 8000380:	fbb4 f1f2 	udiv	r1, r4, r2
 8000384:	ea4f 4518 	mov.w	r5, r8, lsr #16
 8000388:	fb02 4411 	mls	r4, r2, r1, r4
 800038c:	fa1f fc87 	uxth.w	ip, r7
 8000390:	ea45 4504 	orr.w	r5, r5, r4, lsl #16
 8000394:	fb01 f30c 	mul.w	r3, r1, ip
 8000398:	42ab      	cmp	r3, r5
 800039a:	fa00 f40e 	lsl.w	r4, r0, lr
 800039e:	d909      	bls.n	80003b4 <__udivmoddi4+0x1bc>
 80003a0:	19ed      	adds	r5, r5, r7
 80003a2:	f101 30ff 	add.w	r0, r1, #4294967295
 80003a6:	f080 808a 	bcs.w	80004be <__udivmoddi4+0x2c6>
 80003aa:	42ab      	cmp	r3, r5
 80003ac:	f240 8087 	bls.w	80004be <__udivmoddi4+0x2c6>
 80003b0:	3902      	subs	r1, #2
 80003b2:	443d      	add	r5, r7
 80003b4:	1aeb      	subs	r3, r5, r3
 80003b6:	fa1f f588 	uxth.w	r5, r8
 80003ba:	fbb3 f0f2 	udiv	r0, r3, r2
 80003be:	fb02 3310 	mls	r3, r2, r0, r3
 80003c2:	ea45 4503 	orr.w	r5, r5, r3, lsl #16
 80003c6:	fb00 f30c 	mul.w	r3, r0, ip
 80003ca:	42ab      	cmp	r3, r5
 80003cc:	d907      	bls.n	80003de <__udivmoddi4+0x1e6>
 80003ce:	19ed      	adds	r5, r5, r7
 80003d0:	f100 38ff 	add.w	r8, r0, #4294967295
 80003d4:	d26f      	bcs.n	80004b6 <__udivmoddi4+0x2be>
 80003d6:	42ab      	cmp	r3, r5
 80003d8:	d96d      	bls.n	80004b6 <__udivmoddi4+0x2be>
 80003da:	3802      	subs	r0, #2
 80003dc:	443d      	add	r5, r7
 80003de:	1aeb      	subs	r3, r5, r3
 80003e0:	ea40 4101 	orr.w	r1, r0, r1, lsl #16
 80003e4:	e78f      	b.n	8000306 <__udivmoddi4+0x10e>
 80003e6:	f1c1 0720 	rsb	r7, r1, #32
 80003ea:	fa22 f807 	lsr.w	r8, r2, r7
 80003ee:	408b      	lsls	r3, r1
 80003f0:	fa05 f401 	lsl.w	r4, r5, r1
 80003f4:	ea48 0303 	orr.w	r3, r8, r3
 80003f8:	fa20 fe07 	lsr.w	lr, r0, r7
 80003fc:	ea4f 4c13 	mov.w	ip, r3, lsr #16
 8000400:	40fd      	lsrs	r5, r7
 8000402:	ea4e 0e04 	orr.w	lr, lr, r4
 8000406:	fbb5 f9fc 	udiv	r9, r5, ip
 800040a:	ea4f 441e 	mov.w	r4, lr, lsr #16
 800040e:	fb0c 5519 	mls	r5, ip, r9, r5
 8000412:	fa1f f883 	uxth.w	r8, r3
 8000416:	ea44 4505 	orr.w	r5, r4, r5, lsl #16
 800041a:	fb09 f408 	mul.w	r4, r9, r8
 800041e:	42ac      	cmp	r4, r5
 8000420:	fa02 f201 	lsl.w	r2, r2, r1
 8000424:	fa00 fa01 	lsl.w	sl, r0, r1
 8000428:	d908      	bls.n	800043c <__udivmoddi4+0x244>
 800042a:	18ed      	adds	r5, r5, r3
 800042c:	f109 30ff 	add.w	r0, r9, #4294967295
 8000430:	d243      	bcs.n	80004ba <__udivmoddi4+0x2c2>
 8000432:	42ac      	cmp	r4, r5
 8000434:	d941      	bls.n	80004ba <__udivmoddi4+0x2c2>
 8000436:	f1a9 0902 	sub.w	r9, r9, #2
 800043a:	441d      	add	r5, r3
 800043c:	1b2d      	subs	r5, r5, r4
 800043e:	fa1f fe8e 	uxth.w	lr, lr
 8000442:	fbb5 f0fc 	udiv	r0, r5, ip
 8000446:	fb0c 5510 	mls	r5, ip, r0, r5
 800044a:	ea4e 4405 	orr.w	r4, lr, r5, lsl #16
 800044e:	fb00 f808 	mul.w	r8, r0, r8
 8000452:	45a0      	cmp	r8, r4
 8000454:	d907      	bls.n	8000466 <__udivmoddi4+0x26e>
 8000456:	18e4      	adds	r4, r4, r3
 8000458:	f100 35ff 	add.w	r5, r0, #4294967295
 800045c:	d229      	bcs.n	80004b2 <__udivmoddi4+0x2ba>
 800045e:	45a0      	cmp	r8, r4
 8000460:	d927      	bls.n	80004b2 <__udivmoddi4+0x2ba>
 8000462:	3802      	subs	r0, #2
 8000464:	441c      	add	r4, r3
 8000466:	ea40 4009 	orr.w	r0, r0, r9, lsl #16
 800046a:	eba4 0408 	sub.w	r4, r4, r8
 800046e:	fba0 8902 	umull	r8, r9, r0, r2
 8000472:	454c      	cmp	r4, r9
 8000474:	46c6      	mov	lr, r8
 8000476:	464d      	mov	r5, r9
 8000478:	d315      	bcc.n	80004a6 <__udivmoddi4+0x2ae>
 800047a:	d012      	beq.n	80004a2 <__udivmoddi4+0x2aa>
 800047c:	b156      	cbz	r6, 8000494 <__udivmoddi4+0x29c>
 800047e:	ebba 030e 	subs.w	r3, sl, lr
 8000482:	eb64 0405 	sbc.w	r4, r4, r5
 8000486:	fa04 f707 	lsl.w	r7, r4, r7
 800048a:	40cb      	lsrs	r3, r1
 800048c:	431f      	orrs	r7, r3
 800048e:	40cc      	lsrs	r4, r1
 8000490:	6037      	str	r7, [r6, #0]
 8000492:	6074      	str	r4, [r6, #4]
 8000494:	2100      	movs	r1, #0
 8000496:	e8bd 87f0 	ldmia.w	sp!, {r4, r5, r6, r7, r8, r9, sl, pc}
 800049a:	4618      	mov	r0, r3
 800049c:	e6f8      	b.n	8000290 <__udivmoddi4+0x98>
 800049e:	4690      	mov	r8, r2
 80004a0:	e6e0      	b.n	8000264 <__udivmoddi4+0x6c>
 80004a2:	45c2      	cmp	sl, r8
 80004a4:	d2ea      	bcs.n	800047c <__udivmoddi4+0x284>
 80004a6:	ebb8 0e02 	subs.w	lr, r8, r2
 80004aa:	eb69 0503 	sbc.w	r5, r9, r3
 80004ae:	3801      	subs	r0, #1
 80004b0:	e7e4      	b.n	800047c <__udivmoddi4+0x284>
 80004b2:	4628      	mov	r0, r5
 80004b4:	e7d7      	b.n	8000466 <__udivmoddi4+0x26e>
 80004b6:	4640      	mov	r0, r8
 80004b8:	e791      	b.n	80003de <__udivmoddi4+0x1e6>
 80004ba:	4681      	mov	r9, r0
 80004bc:	e7be      	b.n	800043c <__udivmoddi4+0x244>
 80004be:	4601      	mov	r1, r0
 80004c0:	e778      	b.n	80003b4 <__udivmoddi4+0x1bc>
 80004c2:	3802      	subs	r0, #2
 80004c4:	443c      	add	r4, r7
 80004c6:	e745      	b.n	8000354 <__udivmoddi4+0x15c>
 80004c8:	4608      	mov	r0, r1
 80004ca:	e708      	b.n	80002de <__udivmoddi4+0xe6>
 80004cc:	f1a8 0802 	sub.w	r8, r8, #2
 80004d0:	443d      	add	r5, r7
 80004d2:	e72b      	b.n	800032c <__udivmoddi4+0x134>

080004d4 <__aeabi_idiv0>:
 80004d4:	4770      	bx	lr
 80004d6:	bf00      	nop

080004d8 <HAL_InitTick>:
  *       implementation  in user file.
  * @param TickPriority Tick interrupt priority.
  * @retval HAL status
  */
__weak HAL_StatusTypeDef HAL_InitTick(uint32_t TickPriority)
{
 80004d8:	b538      	push	{r3, r4, r5, lr}
  /* Configure the SysTick to have interrupt in 1ms time basis*/
  if (HAL_SYSTICK_Config(SystemCoreClock / (1000U / uwTickFreq)) > 0U)
 80004da:	4a0e      	ldr	r2, [pc, #56]	; (8000514 <HAL_InitTick+0x3c>)
 80004dc:	4b0e      	ldr	r3, [pc, #56]	; (8000518 <HAL_InitTick+0x40>)
{
 80004de:	4605      	mov	r5, r0
  if (HAL_SYSTICK_Config(SystemCoreClock / (1000U / uwTickFreq)) > 0U)
 80004e0:	7818      	ldrb	r0, [r3, #0]
 80004e2:	f44f 737a 	mov.w	r3, #1000	; 0x3e8
 80004e6:	fbb3 f3f0 	udiv	r3, r3, r0
 80004ea:	6810      	ldr	r0, [r2, #0]
 80004ec:	fbb0 f0f3 	udiv	r0, r0, r3
 80004f0:	f000 f8be 	bl	8000670 <HAL_SYSTICK_Config>
 80004f4:	4604      	mov	r4, r0
 80004f6:	b958      	cbnz	r0, 8000510 <HAL_InitTick+0x38>
  {
    return HAL_ERROR;
  }

  /* Configure the SysTick IRQ priority */
  if (TickPriority < (1UL << __NVIC_PRIO_BITS))
 80004f8:	2d0f      	cmp	r5, #15
 80004fa:	d809      	bhi.n	8000510 <HAL_InitTick+0x38>
  {
    HAL_NVIC_SetPriority(SysTick_IRQn, TickPriority, 0U);
 80004fc:	4602      	mov	r2, r0
 80004fe:	4629      	mov	r1, r5
 8000500:	f04f 30ff 	mov.w	r0, #4294967295
 8000504:	f000 f85e 	bl	80005c4 <HAL_NVIC_SetPriority>
    uwTickPrio = TickPriority;
 8000508:	4b04      	ldr	r3, [pc, #16]	; (800051c <HAL_InitTick+0x44>)
 800050a:	4620      	mov	r0, r4
 800050c:	601d      	str	r5, [r3, #0]
 800050e:	bd38      	pop	{r3, r4, r5, pc}
    return HAL_ERROR;
 8000510:	2001      	movs	r0, #1
    return HAL_ERROR;
  }

  /* Return function status */
  return HAL_OK;
}
 8000512:	bd38      	pop	{r3, r4, r5, pc}
 8000514:	20000014 	.word	0x20000014
 8000518:	20000000 	.word	0x20000000
 800051c:	20000004 	.word	0x20000004

08000520 <HAL_Init>:
{
 8000520:	b508      	push	{r3, lr}
  __HAL_FLASH_INSTRUCTION_CACHE_ENABLE();
 8000522:	4b0b      	ldr	r3, [pc, #44]	; (8000550 <HAL_Init+0x30>)
 8000524:	681a      	ldr	r2, [r3, #0]
 8000526:	f442 7200 	orr.w	r2, r2, #512	; 0x200
 800052a:	601a      	str	r2, [r3, #0]
  __HAL_FLASH_DATA_CACHE_ENABLE();
 800052c:	681a      	ldr	r2, [r3, #0]
 800052e:	f442 6280 	orr.w	r2, r2, #1024	; 0x400
 8000532:	601a      	str	r2, [r3, #0]
  __HAL_FLASH_PREFETCH_BUFFER_ENABLE();
 8000534:	681a      	ldr	r2, [r3, #0]
 8000536:	f442 7280 	orr.w	r2, r2, #256	; 0x100
 800053a:	601a      	str	r2, [r3, #0]
  HAL_NVIC_SetPriorityGrouping(NVIC_PRIORITYGROUP_4);
 800053c:	2003      	movs	r0, #3
 800053e:	f000 f82f 	bl	80005a0 <HAL_NVIC_SetPriorityGrouping>
  HAL_InitTick(TICK_INT_PRIORITY);
 8000542:	2000      	movs	r0, #0
 8000544:	f7ff ffc8 	bl	80004d8 <HAL_InitTick>
  HAL_MspInit();
 8000548:	f006 fd26 	bl	8006f98 <HAL_MspInit>
}
 800054c:	2000      	movs	r0, #0
 800054e:	bd08      	pop	{r3, pc}
 8000550:	40023c00 	.word	0x40023c00

08000554 <HAL_IncTick>:
  *      implementations in user file.
  * @retval None
  */
__weak void HAL_IncTick(void)
{
  uwTick += uwTickFreq;
 8000554:	4a03      	ldr	r2, [pc, #12]	; (8000564 <HAL_IncTick+0x10>)
 8000556:	4b04      	ldr	r3, [pc, #16]	; (8000568 <HAL_IncTick+0x14>)
 8000558:	6811      	ldr	r1, [r2, #0]
 800055a:	781b      	ldrb	r3, [r3, #0]
 800055c:	440b      	add	r3, r1
 800055e:	6013      	str	r3, [r2, #0]
 8000560:	4770      	bx	lr
 8000562:	bf00      	nop
 8000564:	20002628 	.word	0x20002628
 8000568:	20000000 	.word	0x20000000

0800056c <HAL_GetTick>:
  *       implementations in user file.
  * @retval tick value
  */
__weak uint32_t HAL_GetTick(void)
{
  return uwTick;
 800056c:	4b01      	ldr	r3, [pc, #4]	; (8000574 <HAL_GetTick+0x8>)
 800056e:	6818      	ldr	r0, [r3, #0]
}
 8000570:	4770      	bx	lr
 8000572:	bf00      	nop
 8000574:	20002628 	.word	0x20002628

08000578 <HAL_Delay>:
  *       implementations in user file.
  * @param Delay specifies the delay time length, in milliseconds.
  * @retval None
  */
__weak void HAL_Delay(uint32_t Delay)
{
 8000578:	b538      	push	{r3, r4, r5, lr}
 800057a:	4604      	mov	r4, r0
  uint32_t tickstart = HAL_GetTick();
 800057c:	f7ff fff6 	bl	800056c <HAL_GetTick>
  uint32_t wait = Delay;

  /* Add a freq to guarantee minimum wait */
  if (wait < HAL_MAX_DELAY)
 8000580:	1c63      	adds	r3, r4, #1
  {
    wait += (uint32_t)(uwTickFreq);
 8000582:	bf1c      	itt	ne
 8000584:	4b05      	ldrne	r3, [pc, #20]	; (800059c <HAL_Delay+0x24>)
 8000586:	781b      	ldrbne	r3, [r3, #0]
  uint32_t tickstart = HAL_GetTick();
 8000588:	4605      	mov	r5, r0
    wait += (uint32_t)(uwTickFreq);
 800058a:	bf18      	it	ne
 800058c:	18e4      	addne	r4, r4, r3
  }

  while((HAL_GetTick() - tickstart) < wait)
 800058e:	f7ff ffed 	bl	800056c <HAL_GetTick>
 8000592:	1b40      	subs	r0, r0, r5
 8000594:	4284      	cmp	r4, r0
 8000596:	d8fa      	bhi.n	800058e <HAL_Delay+0x16>
  {
  }
}
 8000598:	bd38      	pop	{r3, r4, r5, pc}
 800059a:	bf00      	nop
 800059c:	20000000 	.word	0x20000000

080005a0 <HAL_NVIC_SetPriorityGrouping>:
__STATIC_INLINE void __NVIC_SetPriorityGrouping(uint32_t PriorityGroup)
{
  uint32_t reg_value;
  uint32_t PriorityGroupTmp = (PriorityGroup & (uint32_t)0x07UL);             /* only values 0..7 are used          */

  reg_value  =  SCB->AIRCR;                                                   /* read old register configuration    */
 80005a0:	4a07      	ldr	r2, [pc, #28]	; (80005c0 <HAL_NVIC_SetPriorityGrouping+0x20>)
 80005a2:	68d3      	ldr	r3, [r2, #12]
  reg_value &= ~((uint32_t)(SCB_AIRCR_VECTKEY_Msk | SCB_AIRCR_PRIGROUP_Msk)); /* clear bits to change               */
 80005a4:	f423 63e0 	bic.w	r3, r3, #1792	; 0x700
 80005a8:	041b      	lsls	r3, r3, #16
 80005aa:	0c1b      	lsrs	r3, r3, #16
 80005ac:	f043 63bf 	orr.w	r3, r3, #100139008	; 0x5f80000
  reg_value  =  (reg_value                                   |
                ((uint32_t)0x5FAUL << SCB_AIRCR_VECTKEY_Pos) |
                (PriorityGroupTmp << SCB_AIRCR_PRIGROUP_Pos)  );              /* Insert write key and priority group */
 80005b0:	0200      	lsls	r0, r0, #8
 80005b2:	f443 3300 	orr.w	r3, r3, #131072	; 0x20000
 80005b6:	f400 60e0 	and.w	r0, r0, #1792	; 0x700
  reg_value  =  (reg_value                                   |
 80005ba:	4303      	orrs	r3, r0
  SCB->AIRCR =  reg_value;
 80005bc:	60d3      	str	r3, [r2, #12]
 80005be:	4770      	bx	lr
 80005c0:	e000ed00 	.word	0xe000ed00

080005c4 <HAL_NVIC_SetPriority>:
  \details Reads the priority grouping field from the NVIC Interrupt Controller.
  \return                Priority grouping field (SCB->AIRCR [10:8] PRIGROUP field).
 */
__STATIC_INLINE uint32_t __NVIC_GetPriorityGrouping(void)
{
  return ((uint32_t)((SCB->AIRCR & SCB_AIRCR_PRIGROUP_Msk) >> SCB_AIRCR_PRIGROUP_Pos));
 80005c4:	4b17      	ldr	r3, [pc, #92]	; (8000624 <HAL_NVIC_SetPriority+0x60>)
  *         This parameter can be a value between 0 and 15
  *         A lower priority value indicates a higher priority.          
  * @retval None
  */
void HAL_NVIC_SetPriority(IRQn_Type IRQn, uint32_t PreemptPriority, uint32_t SubPriority)
{ 
 80005c6:	b530      	push	{r4, r5, lr}
 80005c8:	68dc      	ldr	r4, [r3, #12]
 80005ca:	f3c4 2402 	ubfx	r4, r4, #8, #3
{
  uint32_t PriorityGroupTmp = (PriorityGroup & (uint32_t)0x07UL);   /* only values 0..7 are used          */
  uint32_t PreemptPriorityBits;
  uint32_t SubPriorityBits;

  PreemptPriorityBits = ((7UL - PriorityGroupTmp) > (uint32_t)(__NVIC_PRIO_BITS)) ? (uint32_t)(__NVIC_PRIO_BITS) : (uint32_t)(7UL - PriorityGroupTmp);
 80005ce:	f1c4 0307 	rsb	r3, r4, #7
  SubPriorityBits     = ((PriorityGroupTmp + (uint32_t)(__NVIC_PRIO_BITS)) < (uint32_t)7UL) ? (uint32_t)0UL : (uint32_t)((PriorityGroupTmp - 7UL) + (uint32_t)(__NVIC_PRIO_BITS));
 80005d2:	1d25      	adds	r5, r4, #4
  PreemptPriorityBits = ((7UL - PriorityGroupTmp) > (uint32_t)(__NVIC_PRIO_BITS)) ? (uint32_t)(__NVIC_PRIO_BITS) : (uint32_t)(7UL - PriorityGroupTmp);
 80005d4:	2b04      	cmp	r3, #4
 80005d6:	bf28      	it	cs
 80005d8:	2304      	movcs	r3, #4
  SubPriorityBits     = ((PriorityGroupTmp + (uint32_t)(__NVIC_PRIO_BITS)) < (uint32_t)7UL) ? (uint32_t)0UL : (uint32_t)((PriorityGroupTmp - 7UL) + (uint32_t)(__NVIC_PRIO_BITS));
 80005da:	2d06      	cmp	r5, #6

  return (
           ((PreemptPriority & (uint32_t)((1UL << (PreemptPriorityBits)) - 1UL)) << SubPriorityBits) |
 80005dc:	f04f 0501 	mov.w	r5, #1
 80005e0:	fa05 f303 	lsl.w	r3, r5, r3
 80005e4:	f103 33ff 	add.w	r3, r3, #4294967295
  SubPriorityBits     = ((PriorityGroupTmp + (uint32_t)(__NVIC_PRIO_BITS)) < (uint32_t)7UL) ? (uint32_t)0UL : (uint32_t)((PriorityGroupTmp - 7UL) + (uint32_t)(__NVIC_PRIO_BITS));
 80005e8:	bf8c      	ite	hi
 80005ea:	3c03      	subhi	r4, #3
 80005ec:	2400      	movls	r4, #0
           ((PreemptPriority & (uint32_t)((1UL << (PreemptPriorityBits)) - 1UL)) << SubPriorityBits) |
 80005ee:	4019      	ands	r1, r3
 80005f0:	40a1      	lsls	r1, r4
           ((SubPriority     & (uint32_t)((1UL << (SubPriorityBits    )) - 1UL)))
 80005f2:	fa05 f404 	lsl.w	r4, r5, r4
 80005f6:	3c01      	subs	r4, #1
 80005f8:	4022      	ands	r2, r4
  if ((int32_t)(IRQn) >= 0)
 80005fa:	2800      	cmp	r0, #0
           ((PreemptPriority & (uint32_t)((1UL << (PreemptPriorityBits)) - 1UL)) << SubPriorityBits) |
 80005fc:	ea42 0201 	orr.w	r2, r2, r1
 8000600:	ea4f 1202 	mov.w	r2, r2, lsl #4
    NVIC->IP[((uint32_t)IRQn)]               = (uint8_t)((priority << (8U - __NVIC_PRIO_BITS)) & (uint32_t)0xFFUL);
 8000604:	bfad      	iteet	ge
 8000606:	f100 4060 	addge.w	r0, r0, #3758096384	; 0xe0000000
    SCB->SHP[(((uint32_t)IRQn) & 0xFUL)-4UL] = (uint8_t)((priority << (8U - __NVIC_PRIO_BITS)) & (uint32_t)0xFFUL);
 800060a:	f000 000f 	andlt.w	r0, r0, #15
 800060e:	4b06      	ldrlt	r3, [pc, #24]	; (8000628 <HAL_NVIC_SetPriority+0x64>)
    NVIC->IP[((uint32_t)IRQn)]               = (uint8_t)((priority << (8U - __NVIC_PRIO_BITS)) & (uint32_t)0xFFUL);
 8000610:	f500 4061 	addge.w	r0, r0, #57600	; 0xe100
    SCB->SHP[(((uint32_t)IRQn) & 0xFUL)-4UL] = (uint8_t)((priority << (8U - __NVIC_PRIO_BITS)) & (uint32_t)0xFFUL);
 8000614:	bfb5      	itete	lt
 8000616:	b2d2      	uxtblt	r2, r2
    NVIC->IP[((uint32_t)IRQn)]               = (uint8_t)((priority << (8U - __NVIC_PRIO_BITS)) & (uint32_t)0xFFUL);
 8000618:	b2d2      	uxtbge	r2, r2
    SCB->SHP[(((uint32_t)IRQn) & 0xFUL)-4UL] = (uint8_t)((priority << (8U - __NVIC_PRIO_BITS)) & (uint32_t)0xFFUL);
 800061a:	541a      	strblt	r2, [r3, r0]
    NVIC->IP[((uint32_t)IRQn)]               = (uint8_t)((priority << (8U - __NVIC_PRIO_BITS)) & (uint32_t)0xFFUL);
 800061c:	f880 2300 	strbge.w	r2, [r0, #768]	; 0x300
 8000620:	bd30      	pop	{r4, r5, pc}
 8000622:	bf00      	nop
 8000624:	e000ed00 	.word	0xe000ed00
 8000628:	e000ed14 	.word	0xe000ed14

0800062c <HAL_NVIC_EnableIRQ>:
  if ((int32_t)(IRQn) >= 0)
 800062c:	2800      	cmp	r0, #0
 800062e:	db08      	blt.n	8000642 <HAL_NVIC_EnableIRQ+0x16>
    NVIC->ISER[(((uint32_t)IRQn) >> 5UL)] = (uint32_t)(1UL << (((uint32_t)IRQn) & 0x1FUL));
 8000630:	0942      	lsrs	r2, r0, #5
 8000632:	2301      	movs	r3, #1
 8000634:	f000 001f 	and.w	r0, r0, #31
 8000638:	fa03 f000 	lsl.w	r0, r3, r0
 800063c:	4b01      	ldr	r3, [pc, #4]	; (8000644 <HAL_NVIC_EnableIRQ+0x18>)
 800063e:	f843 0022 	str.w	r0, [r3, r2, lsl #2]
 8000642:	4770      	bx	lr
 8000644:	e000e100 	.word	0xe000e100

08000648 <HAL_NVIC_DisableIRQ>:
  if ((int32_t)(IRQn) >= 0)
 8000648:	2800      	cmp	r0, #0
 800064a:	db0d      	blt.n	8000668 <HAL_NVIC_DisableIRQ+0x20>
    NVIC->ICER[(((uint32_t)IRQn) >> 5UL)] = (uint32_t)(1UL << (((uint32_t)IRQn) & 0x1FUL));
 800064c:	0943      	lsrs	r3, r0, #5
 800064e:	2201      	movs	r2, #1
 8000650:	f000 001f 	and.w	r0, r0, #31
 8000654:	fa02 f000 	lsl.w	r0, r2, r0
 8000658:	3320      	adds	r3, #32
 800065a:	4a04      	ldr	r2, [pc, #16]	; (800066c <HAL_NVIC_DisableIRQ+0x24>)
 800065c:	f842 0023 	str.w	r0, [r2, r3, lsl #2]
  \details Acts as a special kind of Data Memory Barrier.
           It completes when all explicit memory accesses before this instruction complete.
 */
__STATIC_FORCEINLINE void __DSB(void)
{
  __ASM volatile ("dsb 0xF":::"memory");
 8000660:	f3bf 8f4f 	dsb	sy
  __ASM volatile ("isb 0xF":::"memory");
 8000664:	f3bf 8f6f 	isb	sy
 8000668:	4770      	bx	lr
 800066a:	bf00      	nop
 800066c:	e000e100 	.word	0xe000e100

08000670 <HAL_SYSTICK_Config>:
           function <b>SysTick_Config</b> is not included. In this case, the file <b><i>device</i>.h</b>
           must contain a vendor-specific implementation of this function.
 */
__STATIC_INLINE uint32_t SysTick_Config(uint32_t ticks)
{
  if ((ticks - 1UL) > SysTick_LOAD_RELOAD_Msk)
 8000670:	3801      	subs	r0, #1
 8000672:	f1b0 7f80 	cmp.w	r0, #16777216	; 0x1000000
 8000676:	d20a      	bcs.n	800068e <HAL_SYSTICK_Config+0x1e>
  {
    return (1UL);                                                   /* Reload value impossible */
  }

  SysTick->LOAD  = (uint32_t)(ticks - 1UL);                         /* set reload register */
 8000678:	4b06      	ldr	r3, [pc, #24]	; (8000694 <HAL_SYSTICK_Config+0x24>)
    SCB->SHP[(((uint32_t)IRQn) & 0xFUL)-4UL] = (uint8_t)((priority << (8U - __NVIC_PRIO_BITS)) & (uint32_t)0xFFUL);
 800067a:	4a07      	ldr	r2, [pc, #28]	; (8000698 <HAL_SYSTICK_Config+0x28>)
  SysTick->LOAD  = (uint32_t)(ticks - 1UL);                         /* set reload register */
 800067c:	6058      	str	r0, [r3, #4]
    SCB->SHP[(((uint32_t)IRQn) & 0xFUL)-4UL] = (uint8_t)((priority << (8U - __NVIC_PRIO_BITS)) & (uint32_t)0xFFUL);
 800067e:	21f0      	movs	r1, #240	; 0xf0
 8000680:	f882 1023 	strb.w	r1, [r2, #35]	; 0x23
  NVIC_SetPriority (SysTick_IRQn, (1UL << __NVIC_PRIO_BITS) - 1UL); /* set Priority for Systick Interrupt */
  SysTick->VAL   = 0UL;                                             /* Load the SysTick Counter Value */
 8000684:	2000      	movs	r0, #0
  SysTick->CTRL  = SysTick_CTRL_CLKSOURCE_Msk |
 8000686:	2207      	movs	r2, #7
  SysTick->VAL   = 0UL;                                             /* Load the SysTick Counter Value */
 8000688:	6098      	str	r0, [r3, #8]
  SysTick->CTRL  = SysTick_CTRL_CLKSOURCE_Msk |
 800068a:	601a      	str	r2, [r3, #0]
 800068c:	4770      	bx	lr
    return (1UL);                                                   /* Reload value impossible */
 800068e:	2001      	movs	r0, #1
  *                  - 1  Function failed.
  */
uint32_t HAL_SYSTICK_Config(uint32_t TicksNumb)
{
   return SysTick_Config(TicksNumb);
}
 8000690:	4770      	bx	lr
 8000692:	bf00      	nop
 8000694:	e000e010 	.word	0xe000e010
 8000698:	e000ed00 	.word	0xe000ed00

0800069c <HAL_GPIO_Init>:
  * @param  GPIO_Init pointer to a GPIO_InitTypeDef structure that contains
  *         the configuration information for the specified GPIO peripheral.
  * @retval None
  */
void HAL_GPIO_Init(GPIO_TypeDef  *GPIOx, GPIO_InitTypeDef *GPIO_Init)
{
 800069c:	e92d 4ff0 	stmdb	sp!, {r4, r5, r6, r7, r8, r9, sl, fp, lr}
 80006a0:	b085      	sub	sp, #20
  for(position = 0U; position < GPIO_NUMBER; position++)
  {
    /* Get the IO position */
    ioposition = 0x01U << position;
    /* Get the current IO position */
    iocurrent = (uint32_t)(GPIO_Init->Pin) & ioposition;
 80006a2:	680b      	ldr	r3, [r1, #0]
      /*--------------------- EXTI Mode Configuration ------------------------*/
      /* Configure the External Interrupt or event for the current IO */
      if((GPIO_Init->Mode & EXTI_MODE) == EXTI_MODE)
      {
        /* Enable SYSCFG Clock */
        __HAL_RCC_SYSCFG_CLK_ENABLE();
 80006a4:	f8df 81ac 	ldr.w	r8, [pc, #428]	; 8000854 <HAL_GPIO_Init+0x1b8>
        temp &= ~(0x0FU << (4U * (position & 0x03U)));
        temp |= ((uint32_t)(GPIO_GET_INDEX(GPIOx)) << (4U * (position & 0x03U)));
        SYSCFG->EXTICR[position >> 2U] = temp;

        /* Clear EXTI line configuration */
        temp = EXTI->IMR;
 80006a8:	4a68      	ldr	r2, [pc, #416]	; (800084c <HAL_GPIO_Init+0x1b0>)
        temp |= ((uint32_t)(GPIO_GET_INDEX(GPIOx)) << (4U * (position & 0x03U)));
 80006aa:	f8df 91ac 	ldr.w	r9, [pc, #428]	; 8000858 <HAL_GPIO_Init+0x1bc>
    iocurrent = (uint32_t)(GPIO_Init->Pin) & ioposition;
 80006ae:	9301      	str	r3, [sp, #4]
  for(position = 0U; position < GPIO_NUMBER; position++)
 80006b0:	2300      	movs	r3, #0
    ioposition = 0x01U << position;
 80006b2:	2401      	movs	r4, #1
    iocurrent = (uint32_t)(GPIO_Init->Pin) & ioposition;
 80006b4:	9d01      	ldr	r5, [sp, #4]
    ioposition = 0x01U << position;
 80006b6:	409c      	lsls	r4, r3
    iocurrent = (uint32_t)(GPIO_Init->Pin) & ioposition;
 80006b8:	4025      	ands	r5, r4
    if(iocurrent == ioposition)
 80006ba:	42ac      	cmp	r4, r5
 80006bc:	f040 80b0 	bne.w	8000820 <HAL_GPIO_Init+0x184>
      if((GPIO_Init->Mode == GPIO_MODE_OUTPUT_PP) || (GPIO_Init->Mode == GPIO_MODE_AF_PP) ||
 80006c0:	684c      	ldr	r4, [r1, #4]
 80006c2:	f024 0c10 	bic.w	ip, r4, #16
 80006c6:	f10c 36ff 	add.w	r6, ip, #4294967295
 80006ca:	2e01      	cmp	r6, #1
 80006cc:	ea4f 0e43 	mov.w	lr, r3, lsl #1
 80006d0:	d812      	bhi.n	80006f8 <HAL_GPIO_Init+0x5c>
        temp = GPIOx->OSPEEDR; 
 80006d2:	6887      	ldr	r7, [r0, #8]
        temp &= ~(GPIO_OSPEEDER_OSPEEDR0 << (position * 2U));
 80006d4:	2603      	movs	r6, #3
 80006d6:	fa06 f60e 	lsl.w	r6, r6, lr
 80006da:	ea27 0706 	bic.w	r7, r7, r6
        temp |= (GPIO_Init->Speed << (position * 2U));
 80006de:	68ce      	ldr	r6, [r1, #12]
 80006e0:	fa06 f60e 	lsl.w	r6, r6, lr
 80006e4:	433e      	orrs	r6, r7
        GPIOx->OSPEEDR = temp;
 80006e6:	6086      	str	r6, [r0, #8]
        temp = GPIOx->OTYPER;
 80006e8:	6847      	ldr	r7, [r0, #4]
        temp |= (((GPIO_Init->Mode & GPIO_OUTPUT_TYPE) >> 4U) << position);
 80006ea:	f3c4 1600 	ubfx	r6, r4, #4, #1
        temp &= ~(GPIO_OTYPER_OT_0 << position) ;
 80006ee:	ea27 0705 	bic.w	r7, r7, r5
        temp |= (((GPIO_Init->Mode & GPIO_OUTPUT_TYPE) >> 4U) << position);
 80006f2:	409e      	lsls	r6, r3
 80006f4:	433e      	orrs	r6, r7
        GPIOx->OTYPER = temp;
 80006f6:	6046      	str	r6, [r0, #4]
      temp &= ~(GPIO_PUPDR_PUPDR0 << (position * 2U));
 80006f8:	2603      	movs	r6, #3
      temp = GPIOx->PUPDR;
 80006fa:	68c7      	ldr	r7, [r0, #12]
      temp &= ~(GPIO_PUPDR_PUPDR0 << (position * 2U));
 80006fc:	fa06 f60e 	lsl.w	r6, r6, lr
 8000700:	43f6      	mvns	r6, r6
 8000702:	ea07 0a06 	and.w	sl, r7, r6
      temp |= ((GPIO_Init->Pull) << (position * 2U));
 8000706:	688f      	ldr	r7, [r1, #8]
 8000708:	fa07 f70e 	lsl.w	r7, r7, lr
 800070c:	ea47 070a 	orr.w	r7, r7, sl
      if((GPIO_Init->Mode == GPIO_MODE_AF_PP) || (GPIO_Init->Mode == GPIO_MODE_AF_OD))
 8000710:	f1bc 0f02 	cmp.w	ip, #2
      GPIOx->PUPDR = temp;
 8000714:	60c7      	str	r7, [r0, #12]
      if((GPIO_Init->Mode == GPIO_MODE_AF_PP) || (GPIO_Init->Mode == GPIO_MODE_AF_OD))
 8000716:	d116      	bne.n	8000746 <HAL_GPIO_Init+0xaa>
        temp = GPIOx->AFR[position >> 3U];
 8000718:	ea4f 0ad3 	mov.w	sl, r3, lsr #3
 800071c:	eb00 0a8a 	add.w	sl, r0, sl, lsl #2
        temp &= ~(0xFU << ((uint32_t)(position & 0x07U) * 4U)) ;
 8000720:	f003 0b07 	and.w	fp, r3, #7
        temp = GPIOx->AFR[position >> 3U];
 8000724:	f8da 7020 	ldr.w	r7, [sl, #32]
        temp &= ~(0xFU << ((uint32_t)(position & 0x07U) * 4U)) ;
 8000728:	ea4f 0b8b 	mov.w	fp, fp, lsl #2
 800072c:	f04f 0c0f 	mov.w	ip, #15
 8000730:	fa0c fc0b 	lsl.w	ip, ip, fp
 8000734:	ea27 0c0c 	bic.w	ip, r7, ip
        temp |= ((uint32_t)(GPIO_Init->Alternate) << (((uint32_t)position & 0x07U) * 4U));
 8000738:	690f      	ldr	r7, [r1, #16]
 800073a:	fa07 f70b 	lsl.w	r7, r7, fp
 800073e:	ea47 070c 	orr.w	r7, r7, ip
        GPIOx->AFR[position >> 3U] = temp;
 8000742:	f8ca 7020 	str.w	r7, [sl, #32]
      temp = GPIOx->MODER;
 8000746:	6807      	ldr	r7, [r0, #0]
      temp &= ~(GPIO_MODER_MODER0 << (position * 2U));
 8000748:	403e      	ands	r6, r7
      temp |= ((GPIO_Init->Mode & GPIO_MODE) << (position * 2U));
 800074a:	f004 0703 	and.w	r7, r4, #3
 800074e:	fa07 fe0e 	lsl.w	lr, r7, lr
 8000752:	ea4e 0606 	orr.w	r6, lr, r6
      GPIOx->MODER = temp;
 8000756:	6006      	str	r6, [r0, #0]
      if((GPIO_Init->Mode & EXTI_MODE) == EXTI_MODE)
 8000758:	00e6      	lsls	r6, r4, #3
 800075a:	d561      	bpl.n	8000820 <HAL_GPIO_Init+0x184>
        __HAL_RCC_SYSCFG_CLK_ENABLE();
 800075c:	f04f 0b00 	mov.w	fp, #0
 8000760:	f8cd b00c 	str.w	fp, [sp, #12]
 8000764:	f8d8 7044 	ldr.w	r7, [r8, #68]	; 0x44
        temp |= ((uint32_t)(GPIO_GET_INDEX(GPIOx)) << (4U * (position & 0x03U)));
 8000768:	4e39      	ldr	r6, [pc, #228]	; (8000850 <HAL_GPIO_Init+0x1b4>)
        __HAL_RCC_SYSCFG_CLK_ENABLE();
 800076a:	f447 4780 	orr.w	r7, r7, #16384	; 0x4000
 800076e:	f8c8 7044 	str.w	r7, [r8, #68]	; 0x44
 8000772:	f8d8 7044 	ldr.w	r7, [r8, #68]	; 0x44
 8000776:	f407 4780 	and.w	r7, r7, #16384	; 0x4000
 800077a:	9703      	str	r7, [sp, #12]
 800077c:	9f03      	ldr	r7, [sp, #12]
 800077e:	f023 0703 	bic.w	r7, r3, #3
 8000782:	f107 4780 	add.w	r7, r7, #1073741824	; 0x40000000
 8000786:	f507 379c 	add.w	r7, r7, #79872	; 0x13800
        temp &= ~(0x0FU << (4U * (position & 0x03U)));
 800078a:	f003 0c03 	and.w	ip, r3, #3
        temp = SYSCFG->EXTICR[position >> 2U];
 800078e:	f8d7 a008 	ldr.w	sl, [r7, #8]
        temp &= ~(0x0FU << (4U * (position & 0x03U)));
 8000792:	ea4f 0c8c 	mov.w	ip, ip, lsl #2
 8000796:	f04f 0e0f 	mov.w	lr, #15
 800079a:	fa0e fe0c 	lsl.w	lr, lr, ip
        temp |= ((uint32_t)(GPIO_GET_INDEX(GPIOx)) << (4U * (position & 0x03U)));
 800079e:	42b0      	cmp	r0, r6
        temp &= ~(0x0FU << (4U * (position & 0x03U)));
 80007a0:	ea2a 0e0e 	bic.w	lr, sl, lr
        temp |= ((uint32_t)(GPIO_GET_INDEX(GPIOx)) << (4U * (position & 0x03U)));
 80007a4:	d043      	beq.n	800082e <HAL_GPIO_Init+0x192>
 80007a6:	f506 6680 	add.w	r6, r6, #1024	; 0x400
 80007aa:	42b0      	cmp	r0, r6
 80007ac:	d041      	beq.n	8000832 <HAL_GPIO_Init+0x196>
 80007ae:	f506 6680 	add.w	r6, r6, #1024	; 0x400
 80007b2:	42b0      	cmp	r0, r6
 80007b4:	d03f      	beq.n	8000836 <HAL_GPIO_Init+0x19a>
 80007b6:	f506 6680 	add.w	r6, r6, #1024	; 0x400
 80007ba:	42b0      	cmp	r0, r6
 80007bc:	d03d      	beq.n	800083a <HAL_GPIO_Init+0x19e>
 80007be:	f506 6680 	add.w	r6, r6, #1024	; 0x400
 80007c2:	42b0      	cmp	r0, r6
 80007c4:	d03b      	beq.n	800083e <HAL_GPIO_Init+0x1a2>
 80007c6:	4548      	cmp	r0, r9
 80007c8:	d03b      	beq.n	8000842 <HAL_GPIO_Init+0x1a6>
 80007ca:	f506 6600 	add.w	r6, r6, #2048	; 0x800
 80007ce:	42b0      	cmp	r0, r6
 80007d0:	d039      	beq.n	8000846 <HAL_GPIO_Init+0x1aa>
 80007d2:	f506 6680 	add.w	r6, r6, #1024	; 0x400
 80007d6:	42b0      	cmp	r0, r6
 80007d8:	bf14      	ite	ne
 80007da:	2608      	movne	r6, #8
 80007dc:	2607      	moveq	r6, #7
 80007de:	fa06 f60c 	lsl.w	r6, r6, ip
 80007e2:	ea46 060e 	orr.w	r6, r6, lr
        SYSCFG->EXTICR[position >> 2U] = temp;
 80007e6:	60be      	str	r6, [r7, #8]
        temp = EXTI->IMR;
 80007e8:	6816      	ldr	r6, [r2, #0]
        temp &= ~((uint32_t)iocurrent);
 80007ea:	43ef      	mvns	r7, r5
        if((GPIO_Init->Mode & GPIO_MODE_IT) == GPIO_MODE_IT)
 80007ec:	f414 3f80 	tst.w	r4, #65536	; 0x10000
        temp &= ~((uint32_t)iocurrent);
 80007f0:	bf0c      	ite	eq
 80007f2:	403e      	andeq	r6, r7
        {
          temp |= iocurrent;
 80007f4:	432e      	orrne	r6, r5
        }
        EXTI->IMR = temp;
 80007f6:	6016      	str	r6, [r2, #0]

        temp = EXTI->EMR;
 80007f8:	6856      	ldr	r6, [r2, #4]
        temp &= ~((uint32_t)iocurrent);
        if((GPIO_Init->Mode & GPIO_MODE_EVT) == GPIO_MODE_EVT)
 80007fa:	f414 3f00 	tst.w	r4, #131072	; 0x20000
        temp &= ~((uint32_t)iocurrent);
 80007fe:	bf0c      	ite	eq
 8000800:	403e      	andeq	r6, r7
        {
          temp |= iocurrent;
 8000802:	432e      	orrne	r6, r5
        }
        EXTI->EMR = temp;
 8000804:	6056      	str	r6, [r2, #4]

        /* Clear Rising Falling edge configuration */
        temp = EXTI->RTSR;
 8000806:	6896      	ldr	r6, [r2, #8]
        temp &= ~((uint32_t)iocurrent);
        if((GPIO_Init->Mode & RISING_EDGE) == RISING_EDGE)
 8000808:	f414 1f80 	tst.w	r4, #1048576	; 0x100000
        temp &= ~((uint32_t)iocurrent);
 800080c:	bf0c      	ite	eq
 800080e:	403e      	andeq	r6, r7
        {
          temp |= iocurrent;
 8000810:	432e      	orrne	r6, r5
        }
        EXTI->RTSR = temp;
 8000812:	6096      	str	r6, [r2, #8]

        temp = EXTI->FTSR;
 8000814:	68d6      	ldr	r6, [r2, #12]
        temp &= ~((uint32_t)iocurrent);
        if((GPIO_Init->Mode & FALLING_EDGE) == FALLING_EDGE)
 8000816:	02a4      	lsls	r4, r4, #10
        temp &= ~((uint32_t)iocurrent);
 8000818:	bf54      	ite	pl
 800081a:	403e      	andpl	r6, r7
        {
          temp |= iocurrent;
 800081c:	432e      	orrmi	r6, r5
        }
        EXTI->FTSR = temp;
 800081e:	60d6      	str	r6, [r2, #12]
  for(position = 0U; position < GPIO_NUMBER; position++)
 8000820:	3301      	adds	r3, #1
 8000822:	2b10      	cmp	r3, #16
 8000824:	f47f af45 	bne.w	80006b2 <HAL_GPIO_Init+0x16>
      }
    }
  }
}
 8000828:	b005      	add	sp, #20
 800082a:	e8bd 8ff0 	ldmia.w	sp!, {r4, r5, r6, r7, r8, r9, sl, fp, pc}
        temp |= ((uint32_t)(GPIO_GET_INDEX(GPIOx)) << (4U * (position & 0x03U)));
 800082e:	465e      	mov	r6, fp
 8000830:	e7d5      	b.n	80007de <HAL_GPIO_Init+0x142>
 8000832:	2601      	movs	r6, #1
 8000834:	e7d3      	b.n	80007de <HAL_GPIO_Init+0x142>
 8000836:	2602      	movs	r6, #2
 8000838:	e7d1      	b.n	80007de <HAL_GPIO_Init+0x142>
 800083a:	2603      	movs	r6, #3
 800083c:	e7cf      	b.n	80007de <HAL_GPIO_Init+0x142>
 800083e:	2604      	movs	r6, #4
 8000840:	e7cd      	b.n	80007de <HAL_GPIO_Init+0x142>
 8000842:	2605      	movs	r6, #5
 8000844:	e7cb      	b.n	80007de <HAL_GPIO_Init+0x142>
 8000846:	2606      	movs	r6, #6
 8000848:	e7c9      	b.n	80007de <HAL_GPIO_Init+0x142>
 800084a:	bf00      	nop
 800084c:	40013c00 	.word	0x40013c00
 8000850:	40020000 	.word	0x40020000
 8000854:	40023800 	.word	0x40023800
 8000858:	40021400 	.word	0x40021400

0800085c <HAL_GPIO_WritePin>:
{
  /* Check the parameters */
  assert_param(IS_GPIO_PIN(GPIO_Pin));
  assert_param(IS_GPIO_PIN_ACTION(PinState));

  if(PinState != GPIO_PIN_RESET)
 800085c:	b10a      	cbz	r2, 8000862 <HAL_GPIO_WritePin+0x6>
  {
    GPIOx->BSRR = GPIO_Pin;
  }
  else
  {
    GPIOx->BSRR = (uint32_t)GPIO_Pin << 16U;
 800085e:	6181      	str	r1, [r0, #24]
 8000860:	4770      	bx	lr
 8000862:	0409      	lsls	r1, r1, #16
 8000864:	e7fb      	b.n	800085e <HAL_GPIO_WritePin+0x2>
	...

08000868 <HAL_GPIO_EXTI_IRQHandler>:
  * @brief  This function handles EXTI interrupt request.
  * @param  GPIO_Pin Specifies the pins connected EXTI line
  * @retval None
  */
void HAL_GPIO_EXTI_IRQHandler(uint16_t GPIO_Pin)
{
 8000868:	b508      	push	{r3, lr}
  /* EXTI line interrupt detected */
  if(__HAL_GPIO_EXTI_GET_IT(GPIO_Pin) != RESET)
 800086a:	4b04      	ldr	r3, [pc, #16]	; (800087c <HAL_GPIO_EXTI_IRQHandler+0x14>)
 800086c:	6959      	ldr	r1, [r3, #20]
 800086e:	4201      	tst	r1, r0
 8000870:	d002      	beq.n	8000878 <HAL_GPIO_EXTI_IRQHandler+0x10>
  {
    __HAL_GPIO_EXTI_CLEAR_IT(GPIO_Pin);
 8000872:	6158      	str	r0, [r3, #20]
    HAL_GPIO_EXTI_Callback(GPIO_Pin);
 8000874:	f006 fb88 	bl	8006f88 <HAL_GPIO_EXTI_Callback>
 8000878:	bd08      	pop	{r3, pc}
 800087a:	bf00      	nop
 800087c:	40013c00 	.word	0x40013c00

08000880 <HAL_RCC_OscConfig>:
  *         supported by this API. User should request a transition to HSE Off
  *         first and then HSE On or HSE Bypass.
  * @retval HAL status
  */
__weak HAL_StatusTypeDef HAL_RCC_OscConfig(RCC_OscInitTypeDef  *RCC_OscInitStruct)
{
 8000880:	e92d 41f3 	stmdb	sp!, {r0, r1, r4, r5, r6, r7, r8, lr}
  uint32_t tickstart, pll_config;

  /* Check Null pointer */
  if(RCC_OscInitStruct == NULL)
 8000884:	4604      	mov	r4, r0
 8000886:	b908      	cbnz	r0, 800088c <HAL_RCC_OscConfig+0xc>
    else
    {
      /* Check if there is a request to disable the PLL used as System clock source */
      if((RCC_OscInitStruct->PLL.PLLState) == RCC_PLL_OFF)
      {
        return HAL_ERROR;
 8000888:	2001      	movs	r0, #1
 800088a:	e03f      	b.n	800090c <HAL_RCC_OscConfig+0x8c>
  if(((RCC_OscInitStruct->OscillatorType) & RCC_OSCILLATORTYPE_HSE) == RCC_OSCILLATORTYPE_HSE)
 800088c:	6803      	ldr	r3, [r0, #0]
 800088e:	07dd      	lsls	r5, r3, #31
 8000890:	d410      	bmi.n	80008b4 <HAL_RCC_OscConfig+0x34>
  if(((RCC_OscInitStruct->OscillatorType) & RCC_OSCILLATORTYPE_HSI) == RCC_OSCILLATORTYPE_HSI)
 8000892:	6823      	ldr	r3, [r4, #0]
 8000894:	0798      	lsls	r0, r3, #30
 8000896:	d45a      	bmi.n	800094e <HAL_RCC_OscConfig+0xce>
  if(((RCC_OscInitStruct->OscillatorType) & RCC_OSCILLATORTYPE_LSI) == RCC_OSCILLATORTYPE_LSI)
 8000898:	6823      	ldr	r3, [r4, #0]
 800089a:	071a      	lsls	r2, r3, #28
 800089c:	f100 809c 	bmi.w	80009d8 <HAL_RCC_OscConfig+0x158>
  if(((RCC_OscInitStruct->OscillatorType) & RCC_OSCILLATORTYPE_LSE) == RCC_OSCILLATORTYPE_LSE)
 80008a0:	6823      	ldr	r3, [r4, #0]
 80008a2:	075b      	lsls	r3, r3, #29
 80008a4:	f100 80ba 	bmi.w	8000a1c <HAL_RCC_OscConfig+0x19c>
  if ((RCC_OscInitStruct->PLL.PLLState) != RCC_PLL_NONE)
 80008a8:	69a0      	ldr	r0, [r4, #24]
 80008aa:	2800      	cmp	r0, #0
 80008ac:	f040 811b 	bne.w	8000ae6 <HAL_RCC_OscConfig+0x266>
          return HAL_ERROR;
        }
      }
    }
  }
  return HAL_OK;
 80008b0:	2000      	movs	r0, #0
 80008b2:	e02b      	b.n	800090c <HAL_RCC_OscConfig+0x8c>
    if((__HAL_RCC_GET_SYSCLK_SOURCE() == RCC_CFGR_SWS_HSE) ||\
 80008b4:	4ba4      	ldr	r3, [pc, #656]	; (8000b48 <HAL_RCC_OscConfig+0x2c8>)
 80008b6:	689a      	ldr	r2, [r3, #8]
 80008b8:	f002 020c 	and.w	r2, r2, #12
 80008bc:	2a04      	cmp	r2, #4
 80008be:	d007      	beq.n	80008d0 <HAL_RCC_OscConfig+0x50>
      ((__HAL_RCC_GET_SYSCLK_SOURCE() == RCC_CFGR_SWS_PLL) && ((RCC->PLLCFGR & RCC_PLLCFGR_PLLSRC) == RCC_PLLCFGR_PLLSRC_HSE)))
 80008c0:	689a      	ldr	r2, [r3, #8]
 80008c2:	f002 020c 	and.w	r2, r2, #12
    if((__HAL_RCC_GET_SYSCLK_SOURCE() == RCC_CFGR_SWS_HSE) ||\
 80008c6:	2a08      	cmp	r2, #8
 80008c8:	d10a      	bne.n	80008e0 <HAL_RCC_OscConfig+0x60>
      ((__HAL_RCC_GET_SYSCLK_SOURCE() == RCC_CFGR_SWS_PLL) && ((RCC->PLLCFGR & RCC_PLLCFGR_PLLSRC) == RCC_PLLCFGR_PLLSRC_HSE)))
 80008ca:	685b      	ldr	r3, [r3, #4]
 80008cc:	0259      	lsls	r1, r3, #9
 80008ce:	d507      	bpl.n	80008e0 <HAL_RCC_OscConfig+0x60>
      if((__HAL_RCC_GET_FLAG(RCC_FLAG_HSERDY) != RESET) && (RCC_OscInitStruct->HSEState == RCC_HSE_OFF))
 80008d0:	4b9d      	ldr	r3, [pc, #628]	; (8000b48 <HAL_RCC_OscConfig+0x2c8>)
 80008d2:	681b      	ldr	r3, [r3, #0]
 80008d4:	039a      	lsls	r2, r3, #14
 80008d6:	d5dc      	bpl.n	8000892 <HAL_RCC_OscConfig+0x12>
 80008d8:	6863      	ldr	r3, [r4, #4]
 80008da:	2b00      	cmp	r3, #0
 80008dc:	d1d9      	bne.n	8000892 <HAL_RCC_OscConfig+0x12>
 80008de:	e7d3      	b.n	8000888 <HAL_RCC_OscConfig+0x8>
      __HAL_RCC_HSE_CONFIG(RCC_OscInitStruct->HSEState);
 80008e0:	6863      	ldr	r3, [r4, #4]
 80008e2:	4d99      	ldr	r5, [pc, #612]	; (8000b48 <HAL_RCC_OscConfig+0x2c8>)
 80008e4:	f5b3 3f80 	cmp.w	r3, #65536	; 0x10000
 80008e8:	d113      	bne.n	8000912 <HAL_RCC_OscConfig+0x92>
 80008ea:	682b      	ldr	r3, [r5, #0]
 80008ec:	f443 3380 	orr.w	r3, r3, #65536	; 0x10000
 80008f0:	602b      	str	r3, [r5, #0]
        tickstart = HAL_GetTick();
 80008f2:	f7ff fe3b 	bl	800056c <HAL_GetTick>
        while(__HAL_RCC_GET_FLAG(RCC_FLAG_HSERDY) == RESET)
 80008f6:	4d94      	ldr	r5, [pc, #592]	; (8000b48 <HAL_RCC_OscConfig+0x2c8>)
        tickstart = HAL_GetTick();
 80008f8:	4606      	mov	r6, r0
        while(__HAL_RCC_GET_FLAG(RCC_FLAG_HSERDY) == RESET)
 80008fa:	682b      	ldr	r3, [r5, #0]
 80008fc:	039b      	lsls	r3, r3, #14
 80008fe:	d4c8      	bmi.n	8000892 <HAL_RCC_OscConfig+0x12>
          if((HAL_GetTick() - tickstart ) > HSE_TIMEOUT_VALUE)
 8000900:	f7ff fe34 	bl	800056c <HAL_GetTick>
 8000904:	1b80      	subs	r0, r0, r6
 8000906:	2864      	cmp	r0, #100	; 0x64
 8000908:	d9f7      	bls.n	80008fa <HAL_RCC_OscConfig+0x7a>
            return HAL_TIMEOUT;
 800090a:	2003      	movs	r0, #3
}
 800090c:	b002      	add	sp, #8
 800090e:	e8bd 81f0 	ldmia.w	sp!, {r4, r5, r6, r7, r8, pc}
      __HAL_RCC_HSE_CONFIG(RCC_OscInitStruct->HSEState);
 8000912:	f5b3 2fa0 	cmp.w	r3, #327680	; 0x50000
 8000916:	d104      	bne.n	8000922 <HAL_RCC_OscConfig+0xa2>
 8000918:	682b      	ldr	r3, [r5, #0]
 800091a:	f443 2380 	orr.w	r3, r3, #262144	; 0x40000
 800091e:	602b      	str	r3, [r5, #0]
 8000920:	e7e3      	b.n	80008ea <HAL_RCC_OscConfig+0x6a>
 8000922:	682a      	ldr	r2, [r5, #0]
 8000924:	f422 3280 	bic.w	r2, r2, #65536	; 0x10000
 8000928:	602a      	str	r2, [r5, #0]
 800092a:	682a      	ldr	r2, [r5, #0]
 800092c:	f422 2280 	bic.w	r2, r2, #262144	; 0x40000
 8000930:	602a      	str	r2, [r5, #0]
      if((RCC_OscInitStruct->HSEState) != RCC_HSE_OFF)
 8000932:	2b00      	cmp	r3, #0
 8000934:	d1dd      	bne.n	80008f2 <HAL_RCC_OscConfig+0x72>
        tickstart = HAL_GetTick();
 8000936:	f7ff fe19 	bl	800056c <HAL_GetTick>
 800093a:	4606      	mov	r6, r0
        while(__HAL_RCC_GET_FLAG(RCC_FLAG_HSERDY) != RESET)
 800093c:	682b      	ldr	r3, [r5, #0]
 800093e:	039f      	lsls	r7, r3, #14
 8000940:	d5a7      	bpl.n	8000892 <HAL_RCC_OscConfig+0x12>
          if((HAL_GetTick() - tickstart ) > HSE_TIMEOUT_VALUE)
 8000942:	f7ff fe13 	bl	800056c <HAL_GetTick>
 8000946:	1b80      	subs	r0, r0, r6
 8000948:	2864      	cmp	r0, #100	; 0x64
 800094a:	d9f7      	bls.n	800093c <HAL_RCC_OscConfig+0xbc>
 800094c:	e7dd      	b.n	800090a <HAL_RCC_OscConfig+0x8a>
    if((__HAL_RCC_GET_SYSCLK_SOURCE() == RCC_CFGR_SWS_HSI) ||\
 800094e:	4b7e      	ldr	r3, [pc, #504]	; (8000b48 <HAL_RCC_OscConfig+0x2c8>)
 8000950:	689a      	ldr	r2, [r3, #8]
 8000952:	f012 0f0c 	tst.w	r2, #12
 8000956:	d007      	beq.n	8000968 <HAL_RCC_OscConfig+0xe8>
      ((__HAL_RCC_GET_SYSCLK_SOURCE() == RCC_CFGR_SWS_PLL) && ((RCC->PLLCFGR & RCC_PLLCFGR_PLLSRC) == RCC_PLLCFGR_PLLSRC_HSI)))
 8000958:	689a      	ldr	r2, [r3, #8]
 800095a:	f002 020c 	and.w	r2, r2, #12
    if((__HAL_RCC_GET_SYSCLK_SOURCE() == RCC_CFGR_SWS_HSI) ||\
 800095e:	2a08      	cmp	r2, #8
 8000960:	d111      	bne.n	8000986 <HAL_RCC_OscConfig+0x106>
      ((__HAL_RCC_GET_SYSCLK_SOURCE() == RCC_CFGR_SWS_PLL) && ((RCC->PLLCFGR & RCC_PLLCFGR_PLLSRC) == RCC_PLLCFGR_PLLSRC_HSI)))
 8000962:	685b      	ldr	r3, [r3, #4]
 8000964:	025e      	lsls	r6, r3, #9
 8000966:	d40e      	bmi.n	8000986 <HAL_RCC_OscConfig+0x106>
      if((__HAL_RCC_GET_FLAG(RCC_FLAG_HSIRDY) != RESET) && (RCC_OscInitStruct->HSIState != RCC_HSI_ON))
 8000968:	4b77      	ldr	r3, [pc, #476]	; (8000b48 <HAL_RCC_OscConfig+0x2c8>)
 800096a:	681a      	ldr	r2, [r3, #0]
 800096c:	0795      	lsls	r5, r2, #30
 800096e:	d502      	bpl.n	8000976 <HAL_RCC_OscConfig+0xf6>
 8000970:	68e2      	ldr	r2, [r4, #12]
 8000972:	2a01      	cmp	r2, #1
 8000974:	d188      	bne.n	8000888 <HAL_RCC_OscConfig+0x8>
        __HAL_RCC_HSI_CALIBRATIONVALUE_ADJUST(RCC_OscInitStruct->HSICalibrationValue);
 8000976:	681a      	ldr	r2, [r3, #0]
 8000978:	6921      	ldr	r1, [r4, #16]
 800097a:	f022 02f8 	bic.w	r2, r2, #248	; 0xf8
 800097e:	ea42 02c1 	orr.w	r2, r2, r1, lsl #3
 8000982:	601a      	str	r2, [r3, #0]
      if((__HAL_RCC_GET_FLAG(RCC_FLAG_HSIRDY) != RESET) && (RCC_OscInitStruct->HSIState != RCC_HSI_ON))
 8000984:	e788      	b.n	8000898 <HAL_RCC_OscConfig+0x18>
      if((RCC_OscInitStruct->HSIState)!= RCC_HSI_OFF)
 8000986:	68e2      	ldr	r2, [r4, #12]
 8000988:	4b70      	ldr	r3, [pc, #448]	; (8000b4c <HAL_RCC_OscConfig+0x2cc>)
 800098a:	b1b2      	cbz	r2, 80009ba <HAL_RCC_OscConfig+0x13a>
        __HAL_RCC_HSI_ENABLE();
 800098c:	2201      	movs	r2, #1
 800098e:	601a      	str	r2, [r3, #0]
        tickstart = HAL_GetTick();
 8000990:	f7ff fdec 	bl	800056c <HAL_GetTick>
        while(__HAL_RCC_GET_FLAG(RCC_FLAG_HSIRDY) == RESET)
 8000994:	4d6c      	ldr	r5, [pc, #432]	; (8000b48 <HAL_RCC_OscConfig+0x2c8>)
        tickstart = HAL_GetTick();
 8000996:	4606      	mov	r6, r0
        while(__HAL_RCC_GET_FLAG(RCC_FLAG_HSIRDY) == RESET)
 8000998:	682b      	ldr	r3, [r5, #0]
 800099a:	0798      	lsls	r0, r3, #30
 800099c:	d507      	bpl.n	80009ae <HAL_RCC_OscConfig+0x12e>
        __HAL_RCC_HSI_CALIBRATIONVALUE_ADJUST(RCC_OscInitStruct->HSICalibrationValue);
 800099e:	682b      	ldr	r3, [r5, #0]
 80009a0:	6922      	ldr	r2, [r4, #16]
 80009a2:	f023 03f8 	bic.w	r3, r3, #248	; 0xf8
 80009a6:	ea43 03c2 	orr.w	r3, r3, r2, lsl #3
 80009aa:	602b      	str	r3, [r5, #0]
 80009ac:	e774      	b.n	8000898 <HAL_RCC_OscConfig+0x18>
          if((HAL_GetTick() - tickstart ) > HSI_TIMEOUT_VALUE)
 80009ae:	f7ff fddd 	bl	800056c <HAL_GetTick>
 80009b2:	1b80      	subs	r0, r0, r6
 80009b4:	2802      	cmp	r0, #2
 80009b6:	d9ef      	bls.n	8000998 <HAL_RCC_OscConfig+0x118>
 80009b8:	e7a7      	b.n	800090a <HAL_RCC_OscConfig+0x8a>
        __HAL_RCC_HSI_DISABLE();
 80009ba:	601a      	str	r2, [r3, #0]
        tickstart = HAL_GetTick();
 80009bc:	f7ff fdd6 	bl	800056c <HAL_GetTick>
        while(__HAL_RCC_GET_FLAG(RCC_FLAG_HSIRDY) != RESET)
 80009c0:	4d61      	ldr	r5, [pc, #388]	; (8000b48 <HAL_RCC_OscConfig+0x2c8>)
        tickstart = HAL_GetTick();
 80009c2:	4606      	mov	r6, r0
        while(__HAL_RCC_GET_FLAG(RCC_FLAG_HSIRDY) != RESET)
 80009c4:	682b      	ldr	r3, [r5, #0]
 80009c6:	0799      	lsls	r1, r3, #30
 80009c8:	f57f af66 	bpl.w	8000898 <HAL_RCC_OscConfig+0x18>
          if((HAL_GetTick() - tickstart ) > HSI_TIMEOUT_VALUE)
 80009cc:	f7ff fdce 	bl	800056c <HAL_GetTick>
 80009d0:	1b80      	subs	r0, r0, r6
 80009d2:	2802      	cmp	r0, #2
 80009d4:	d9f6      	bls.n	80009c4 <HAL_RCC_OscConfig+0x144>
 80009d6:	e798      	b.n	800090a <HAL_RCC_OscConfig+0x8a>
    if((RCC_OscInitStruct->LSIState)!= RCC_LSI_OFF)
 80009d8:	6962      	ldr	r2, [r4, #20]
 80009da:	4b5d      	ldr	r3, [pc, #372]	; (8000b50 <HAL_RCC_OscConfig+0x2d0>)
 80009dc:	b17a      	cbz	r2, 80009fe <HAL_RCC_OscConfig+0x17e>
      __HAL_RCC_LSI_ENABLE();
 80009de:	2201      	movs	r2, #1
 80009e0:	601a      	str	r2, [r3, #0]
      tickstart = HAL_GetTick();
 80009e2:	f7ff fdc3 	bl	800056c <HAL_GetTick>
      while(__HAL_RCC_GET_FLAG(RCC_FLAG_LSIRDY) == RESET)
 80009e6:	4d58      	ldr	r5, [pc, #352]	; (8000b48 <HAL_RCC_OscConfig+0x2c8>)
      tickstart = HAL_GetTick();
 80009e8:	4606      	mov	r6, r0
      while(__HAL_RCC_GET_FLAG(RCC_FLAG_LSIRDY) == RESET)
 80009ea:	6f6b      	ldr	r3, [r5, #116]	; 0x74
 80009ec:	079f      	lsls	r7, r3, #30
 80009ee:	f53f af57 	bmi.w	80008a0 <HAL_RCC_OscConfig+0x20>
        if((HAL_GetTick() - tickstart ) > LSI_TIMEOUT_VALUE)
 80009f2:	f7ff fdbb 	bl	800056c <HAL_GetTick>
 80009f6:	1b80      	subs	r0, r0, r6
 80009f8:	2802      	cmp	r0, #2
 80009fa:	d9f6      	bls.n	80009ea <HAL_RCC_OscConfig+0x16a>
 80009fc:	e785      	b.n	800090a <HAL_RCC_OscConfig+0x8a>
      __HAL_RCC_LSI_DISABLE();
 80009fe:	601a      	str	r2, [r3, #0]
      tickstart = HAL_GetTick();
 8000a00:	f7ff fdb4 	bl	800056c <HAL_GetTick>
      while(__HAL_RCC_GET_FLAG(RCC_FLAG_LSIRDY) != RESET)
 8000a04:	4d50      	ldr	r5, [pc, #320]	; (8000b48 <HAL_RCC_OscConfig+0x2c8>)
      tickstart = HAL_GetTick();
 8000a06:	4606      	mov	r6, r0
      while(__HAL_RCC_GET_FLAG(RCC_FLAG_LSIRDY) != RESET)
 8000a08:	6f6b      	ldr	r3, [r5, #116]	; 0x74
 8000a0a:	0798      	lsls	r0, r3, #30
 8000a0c:	f57f af48 	bpl.w	80008a0 <HAL_RCC_OscConfig+0x20>
        if((HAL_GetTick() - tickstart ) > LSI_TIMEOUT_VALUE)
 8000a10:	f7ff fdac 	bl	800056c <HAL_GetTick>
 8000a14:	1b80      	subs	r0, r0, r6
 8000a16:	2802      	cmp	r0, #2
 8000a18:	d9f6      	bls.n	8000a08 <HAL_RCC_OscConfig+0x188>
 8000a1a:	e776      	b.n	800090a <HAL_RCC_OscConfig+0x8a>
    if(__HAL_RCC_PWR_IS_CLK_DISABLED())
 8000a1c:	4b4a      	ldr	r3, [pc, #296]	; (8000b48 <HAL_RCC_OscConfig+0x2c8>)
 8000a1e:	6c1a      	ldr	r2, [r3, #64]	; 0x40
 8000a20:	f012 5280 	ands.w	r2, r2, #268435456	; 0x10000000
 8000a24:	d128      	bne.n	8000a78 <HAL_RCC_OscConfig+0x1f8>
      __HAL_RCC_PWR_CLK_ENABLE();
 8000a26:	9201      	str	r2, [sp, #4]
 8000a28:	6c1a      	ldr	r2, [r3, #64]	; 0x40
 8000a2a:	f042 5280 	orr.w	r2, r2, #268435456	; 0x10000000
 8000a2e:	641a      	str	r2, [r3, #64]	; 0x40
 8000a30:	6c1b      	ldr	r3, [r3, #64]	; 0x40
 8000a32:	f003 5380 	and.w	r3, r3, #268435456	; 0x10000000
 8000a36:	9301      	str	r3, [sp, #4]
 8000a38:	9b01      	ldr	r3, [sp, #4]
      pwrclkchanged = SET;
 8000a3a:	2601      	movs	r6, #1
    if(HAL_IS_BIT_CLR(PWR->CR, PWR_CR_DBP))
 8000a3c:	4d45      	ldr	r5, [pc, #276]	; (8000b54 <HAL_RCC_OscConfig+0x2d4>)
 8000a3e:	682b      	ldr	r3, [r5, #0]
 8000a40:	05d9      	lsls	r1, r3, #23
 8000a42:	d51b      	bpl.n	8000a7c <HAL_RCC_OscConfig+0x1fc>
    __HAL_RCC_LSE_CONFIG(RCC_OscInitStruct->LSEState);
 8000a44:	68a3      	ldr	r3, [r4, #8]
 8000a46:	4d40      	ldr	r5, [pc, #256]	; (8000b48 <HAL_RCC_OscConfig+0x2c8>)
 8000a48:	2b01      	cmp	r3, #1
 8000a4a:	d127      	bne.n	8000a9c <HAL_RCC_OscConfig+0x21c>
 8000a4c:	6f2b      	ldr	r3, [r5, #112]	; 0x70
 8000a4e:	f043 0301 	orr.w	r3, r3, #1
 8000a52:	672b      	str	r3, [r5, #112]	; 0x70
      tickstart = HAL_GetTick();
 8000a54:	f7ff fd8a 	bl	800056c <HAL_GetTick>
      while(__HAL_RCC_GET_FLAG(RCC_FLAG_LSERDY) == RESET)
 8000a58:	4d3b      	ldr	r5, [pc, #236]	; (8000b48 <HAL_RCC_OscConfig+0x2c8>)
      tickstart = HAL_GetTick();
 8000a5a:	4607      	mov	r7, r0
        if((HAL_GetTick() - tickstart ) > RCC_LSE_TIMEOUT_VALUE)
 8000a5c:	f241 3888 	movw	r8, #5000	; 0x1388
      while(__HAL_RCC_GET_FLAG(RCC_FLAG_LSERDY) == RESET)
 8000a60:	6f2b      	ldr	r3, [r5, #112]	; 0x70
 8000a62:	079b      	lsls	r3, r3, #30
 8000a64:	d539      	bpl.n	8000ada <HAL_RCC_OscConfig+0x25a>
    if(pwrclkchanged == SET)
 8000a66:	2e00      	cmp	r6, #0
 8000a68:	f43f af1e 	beq.w	80008a8 <HAL_RCC_OscConfig+0x28>
      __HAL_RCC_PWR_CLK_DISABLE();
 8000a6c:	4a36      	ldr	r2, [pc, #216]	; (8000b48 <HAL_RCC_OscConfig+0x2c8>)
 8000a6e:	6c13      	ldr	r3, [r2, #64]	; 0x40
 8000a70:	f023 5380 	bic.w	r3, r3, #268435456	; 0x10000000
 8000a74:	6413      	str	r3, [r2, #64]	; 0x40
 8000a76:	e717      	b.n	80008a8 <HAL_RCC_OscConfig+0x28>
    FlagStatus       pwrclkchanged = RESET;
 8000a78:	2600      	movs	r6, #0
 8000a7a:	e7df      	b.n	8000a3c <HAL_RCC_OscConfig+0x1bc>
      SET_BIT(PWR->CR, PWR_CR_DBP);
 8000a7c:	682b      	ldr	r3, [r5, #0]
 8000a7e:	f443 7380 	orr.w	r3, r3, #256	; 0x100
 8000a82:	602b      	str	r3, [r5, #0]
      tickstart = HAL_GetTick();
 8000a84:	f7ff fd72 	bl	800056c <HAL_GetTick>
 8000a88:	4607      	mov	r7, r0
      while(HAL_IS_BIT_CLR(PWR->CR, PWR_CR_DBP))
 8000a8a:	682b      	ldr	r3, [r5, #0]
 8000a8c:	05da      	lsls	r2, r3, #23
 8000a8e:	d4d9      	bmi.n	8000a44 <HAL_RCC_OscConfig+0x1c4>
        if((HAL_GetTick() - tickstart) > RCC_DBP_TIMEOUT_VALUE)
 8000a90:	f7ff fd6c 	bl	800056c <HAL_GetTick>
 8000a94:	1bc0      	subs	r0, r0, r7
 8000a96:	2802      	cmp	r0, #2
 8000a98:	d9f7      	bls.n	8000a8a <HAL_RCC_OscConfig+0x20a>
 8000a9a:	e736      	b.n	800090a <HAL_RCC_OscConfig+0x8a>
    __HAL_RCC_LSE_CONFIG(RCC_OscInitStruct->LSEState);
 8000a9c:	2b05      	cmp	r3, #5
 8000a9e:	d104      	bne.n	8000aaa <HAL_RCC_OscConfig+0x22a>
 8000aa0:	6f2b      	ldr	r3, [r5, #112]	; 0x70
 8000aa2:	f043 0304 	orr.w	r3, r3, #4
 8000aa6:	672b      	str	r3, [r5, #112]	; 0x70
 8000aa8:	e7d0      	b.n	8000a4c <HAL_RCC_OscConfig+0x1cc>
 8000aaa:	6f2a      	ldr	r2, [r5, #112]	; 0x70
 8000aac:	f022 0201 	bic.w	r2, r2, #1
 8000ab0:	672a      	str	r2, [r5, #112]	; 0x70
 8000ab2:	6f2a      	ldr	r2, [r5, #112]	; 0x70
 8000ab4:	f022 0204 	bic.w	r2, r2, #4
 8000ab8:	672a      	str	r2, [r5, #112]	; 0x70
    if((RCC_OscInitStruct->LSEState) != RCC_LSE_OFF)
 8000aba:	2b00      	cmp	r3, #0
 8000abc:	d1ca      	bne.n	8000a54 <HAL_RCC_OscConfig+0x1d4>
      tickstart = HAL_GetTick();
 8000abe:	f7ff fd55 	bl	800056c <HAL_GetTick>
        if((HAL_GetTick() - tickstart ) > RCC_LSE_TIMEOUT_VALUE)
 8000ac2:	f241 3888 	movw	r8, #5000	; 0x1388
      tickstart = HAL_GetTick();
 8000ac6:	4607      	mov	r7, r0
      while(__HAL_RCC_GET_FLAG(RCC_FLAG_LSERDY) != RESET)
 8000ac8:	6f2b      	ldr	r3, [r5, #112]	; 0x70
 8000aca:	0798      	lsls	r0, r3, #30
 8000acc:	d5cb      	bpl.n	8000a66 <HAL_RCC_OscConfig+0x1e6>
        if((HAL_GetTick() - tickstart ) > RCC_LSE_TIMEOUT_VALUE)
 8000ace:	f7ff fd4d 	bl	800056c <HAL_GetTick>
 8000ad2:	1bc0      	subs	r0, r0, r7
 8000ad4:	4540      	cmp	r0, r8
 8000ad6:	d9f7      	bls.n	8000ac8 <HAL_RCC_OscConfig+0x248>
 8000ad8:	e717      	b.n	800090a <HAL_RCC_OscConfig+0x8a>
        if((HAL_GetTick() - tickstart ) > RCC_LSE_TIMEOUT_VALUE)
 8000ada:	f7ff fd47 	bl	800056c <HAL_GetTick>
 8000ade:	1bc0      	subs	r0, r0, r7
 8000ae0:	4540      	cmp	r0, r8
 8000ae2:	d9bd      	bls.n	8000a60 <HAL_RCC_OscConfig+0x1e0>
 8000ae4:	e711      	b.n	800090a <HAL_RCC_OscConfig+0x8a>
    if(__HAL_RCC_GET_SYSCLK_SOURCE() != RCC_CFGR_SWS_PLL)
 8000ae6:	4d18      	ldr	r5, [pc, #96]	; (8000b48 <HAL_RCC_OscConfig+0x2c8>)
 8000ae8:	68ab      	ldr	r3, [r5, #8]
 8000aea:	f003 030c 	and.w	r3, r3, #12
 8000aee:	2b08      	cmp	r3, #8
 8000af0:	d047      	beq.n	8000b82 <HAL_RCC_OscConfig+0x302>
 8000af2:	4e19      	ldr	r6, [pc, #100]	; (8000b58 <HAL_RCC_OscConfig+0x2d8>)
 8000af4:	2300      	movs	r3, #0
      if((RCC_OscInitStruct->PLL.PLLState) == RCC_PLL_ON)
 8000af6:	2802      	cmp	r0, #2
        __HAL_RCC_PLL_DISABLE();
 8000af8:	6033      	str	r3, [r6, #0]
      if((RCC_OscInitStruct->PLL.PLLState) == RCC_PLL_ON)
 8000afa:	d135      	bne.n	8000b68 <HAL_RCC_OscConfig+0x2e8>
        tickstart = HAL_GetTick();
 8000afc:	f7ff fd36 	bl	800056c <HAL_GetTick>
 8000b00:	4607      	mov	r7, r0
        while(__HAL_RCC_GET_FLAG(RCC_FLAG_PLLRDY) != RESET)
 8000b02:	682b      	ldr	r3, [r5, #0]
 8000b04:	0199      	lsls	r1, r3, #6
 8000b06:	d429      	bmi.n	8000b5c <HAL_RCC_OscConfig+0x2dc>
        WRITE_REG(RCC->PLLCFGR, (RCC_OscInitStruct->PLL.PLLSource                                            | \
 8000b08:	6a22      	ldr	r2, [r4, #32]
 8000b0a:	69e3      	ldr	r3, [r4, #28]
 8000b0c:	4313      	orrs	r3, r2
 8000b0e:	6a62      	ldr	r2, [r4, #36]	; 0x24
 8000b10:	ea43 1382 	orr.w	r3, r3, r2, lsl #6
 8000b14:	6ae2      	ldr	r2, [r4, #44]	; 0x2c
 8000b16:	ea43 6302 	orr.w	r3, r3, r2, lsl #24
 8000b1a:	6aa2      	ldr	r2, [r4, #40]	; 0x28
        while(__HAL_RCC_GET_FLAG(RCC_FLAG_PLLRDY) == RESET)
 8000b1c:	4c0a      	ldr	r4, [pc, #40]	; (8000b48 <HAL_RCC_OscConfig+0x2c8>)
        WRITE_REG(RCC->PLLCFGR, (RCC_OscInitStruct->PLL.PLLSource                                            | \
 8000b1e:	0852      	lsrs	r2, r2, #1
 8000b20:	3a01      	subs	r2, #1
 8000b22:	ea43 4302 	orr.w	r3, r3, r2, lsl #16
 8000b26:	606b      	str	r3, [r5, #4]
        __HAL_RCC_PLL_ENABLE();
 8000b28:	2301      	movs	r3, #1
 8000b2a:	6033      	str	r3, [r6, #0]
        tickstart = HAL_GetTick();
 8000b2c:	f7ff fd1e 	bl	800056c <HAL_GetTick>
 8000b30:	4605      	mov	r5, r0
        while(__HAL_RCC_GET_FLAG(RCC_FLAG_PLLRDY) == RESET)
 8000b32:	6823      	ldr	r3, [r4, #0]
 8000b34:	019a      	lsls	r2, r3, #6
 8000b36:	f53f aebb 	bmi.w	80008b0 <HAL_RCC_OscConfig+0x30>
          if((HAL_GetTick() - tickstart ) > PLL_TIMEOUT_VALUE)
 8000b3a:	f7ff fd17 	bl	800056c <HAL_GetTick>
 8000b3e:	1b40      	subs	r0, r0, r5
 8000b40:	2802      	cmp	r0, #2
 8000b42:	d9f6      	bls.n	8000b32 <HAL_RCC_OscConfig+0x2b2>
 8000b44:	e6e1      	b.n	800090a <HAL_RCC_OscConfig+0x8a>
 8000b46:	bf00      	nop
 8000b48:	40023800 	.word	0x40023800
 8000b4c:	42470000 	.word	0x42470000
 8000b50:	42470e80 	.word	0x42470e80
 8000b54:	40007000 	.word	0x40007000
 8000b58:	42470060 	.word	0x42470060
          if((HAL_GetTick() - tickstart ) > PLL_TIMEOUT_VALUE)
 8000b5c:	f7ff fd06 	bl	800056c <HAL_GetTick>
 8000b60:	1bc0      	subs	r0, r0, r7
 8000b62:	2802      	cmp	r0, #2
 8000b64:	d9cd      	bls.n	8000b02 <HAL_RCC_OscConfig+0x282>
 8000b66:	e6d0      	b.n	800090a <HAL_RCC_OscConfig+0x8a>
        tickstart = HAL_GetTick();
 8000b68:	f7ff fd00 	bl	800056c <HAL_GetTick>
 8000b6c:	4604      	mov	r4, r0
        while(__HAL_RCC_GET_FLAG(RCC_FLAG_PLLRDY) != RESET)
 8000b6e:	682b      	ldr	r3, [r5, #0]
 8000b70:	019b      	lsls	r3, r3, #6
 8000b72:	f57f ae9d 	bpl.w	80008b0 <HAL_RCC_OscConfig+0x30>
          if((HAL_GetTick() - tickstart ) > PLL_TIMEOUT_VALUE)
 8000b76:	f7ff fcf9 	bl	800056c <HAL_GetTick>
 8000b7a:	1b00      	subs	r0, r0, r4
 8000b7c:	2802      	cmp	r0, #2
 8000b7e:	d9f6      	bls.n	8000b6e <HAL_RCC_OscConfig+0x2ee>
 8000b80:	e6c3      	b.n	800090a <HAL_RCC_OscConfig+0x8a>
      if((RCC_OscInitStruct->PLL.PLLState) == RCC_PLL_OFF)
 8000b82:	2801      	cmp	r0, #1
 8000b84:	f43f aec2 	beq.w	800090c <HAL_RCC_OscConfig+0x8c>
        pll_config = RCC->CFGR;
 8000b88:	68a8      	ldr	r0, [r5, #8]
        if((READ_BIT(pll_config, RCC_PLLCFGR_PLLSRC) != RCC_OscInitStruct->PLL.PLLSource) ||
 8000b8a:	69e3      	ldr	r3, [r4, #28]
 8000b8c:	f400 0280 	and.w	r2, r0, #4194304	; 0x400000
 8000b90:	429a      	cmp	r2, r3
 8000b92:	f47f ae79 	bne.w	8000888 <HAL_RCC_OscConfig+0x8>
 8000b96:	6a22      	ldr	r2, [r4, #32]
           (READ_BIT(pll_config, RCC_PLLCFGR_PLLM) != RCC_OscInitStruct->PLL.PLLM) ||
 8000b98:	f000 033f 	and.w	r3, r0, #63	; 0x3f
        if((READ_BIT(pll_config, RCC_PLLCFGR_PLLSRC) != RCC_OscInitStruct->PLL.PLLSource) ||
 8000b9c:	4293      	cmp	r3, r2
 8000b9e:	f47f ae73 	bne.w	8000888 <HAL_RCC_OscConfig+0x8>
           (READ_BIT(pll_config, RCC_PLLCFGR_PLLM) != RCC_OscInitStruct->PLL.PLLM) ||
 8000ba2:	6a62      	ldr	r2, [r4, #36]	; 0x24
 8000ba4:	f647 73c0 	movw	r3, #32704	; 0x7fc0
 8000ba8:	4003      	ands	r3, r0
 8000baa:	4293      	cmp	r3, r2
 8000bac:	f47f ae6c 	bne.w	8000888 <HAL_RCC_OscConfig+0x8>
           (READ_BIT(pll_config, RCC_PLLCFGR_PLLN) != RCC_OscInitStruct->PLL.PLLN) ||
 8000bb0:	6aa2      	ldr	r2, [r4, #40]	; 0x28
           (READ_BIT(pll_config, RCC_PLLCFGR_PLLP) != RCC_OscInitStruct->PLL.PLLP) ||
 8000bb2:	f400 3340 	and.w	r3, r0, #196608	; 0x30000
           (READ_BIT(pll_config, RCC_PLLCFGR_PLLN) != RCC_OscInitStruct->PLL.PLLN) ||
 8000bb6:	4293      	cmp	r3, r2
 8000bb8:	f47f ae66 	bne.w	8000888 <HAL_RCC_OscConfig+0x8>
           (READ_BIT(pll_config, RCC_PLLCFGR_PLLP) != RCC_OscInitStruct->PLL.PLLP) ||
 8000bbc:	6ae3      	ldr	r3, [r4, #44]	; 0x2c
           (READ_BIT(pll_config, RCC_PLLCFGR_PLLQ) != RCC_OscInitStruct->PLL.PLLQ))
 8000bbe:	f000 6070 	and.w	r0, r0, #251658240	; 0xf000000
    return HAL_ERROR;
 8000bc2:	1ac0      	subs	r0, r0, r3
 8000bc4:	bf18      	it	ne
 8000bc6:	2001      	movne	r0, #1
 8000bc8:	e6a0      	b.n	800090c <HAL_RCC_OscConfig+0x8c>
 8000bca:	bf00      	nop

08000bcc <HAL_RCC_GetSysClockFreq>:
{
  uint32_t pllm = 0U, pllvco = 0U, pllp = 0U;
  uint32_t sysclockfreq = 0U;

  /* Get SYSCLK source -------------------------------------------------------*/
  switch (RCC->CFGR & RCC_CFGR_SWS)
 8000bcc:	4913      	ldr	r1, [pc, #76]	; (8000c1c <HAL_RCC_GetSysClockFreq+0x50>)
{
 8000bce:	b508      	push	{r3, lr}
  switch (RCC->CFGR & RCC_CFGR_SWS)
 8000bd0:	688b      	ldr	r3, [r1, #8]
 8000bd2:	f003 030c 	and.w	r3, r3, #12
 8000bd6:	2b04      	cmp	r3, #4
 8000bd8:	d003      	beq.n	8000be2 <HAL_RCC_GetSysClockFreq+0x16>
 8000bda:	2b08      	cmp	r3, #8
 8000bdc:	d003      	beq.n	8000be6 <HAL_RCC_GetSysClockFreq+0x1a>
  {
    case RCC_CFGR_SWS_HSI:  /* HSI used as system clock source */
    {
      sysclockfreq = HSI_VALUE;
 8000bde:	4810      	ldr	r0, [pc, #64]	; (8000c20 <HAL_RCC_GetSysClockFreq+0x54>)
      sysclockfreq = HSI_VALUE;
      break;
    }
  }
  return sysclockfreq;
}
 8000be0:	bd08      	pop	{r3, pc}
      sysclockfreq = HSE_VALUE;
 8000be2:	4810      	ldr	r0, [pc, #64]	; (8000c24 <HAL_RCC_GetSysClockFreq+0x58>)
 8000be4:	bd08      	pop	{r3, pc}
      pllm = RCC->PLLCFGR & RCC_PLLCFGR_PLLM;
 8000be6:	684a      	ldr	r2, [r1, #4]
      if(__HAL_RCC_GET_PLL_OSCSOURCE() != RCC_PLLSOURCE_HSI)
 8000be8:	684b      	ldr	r3, [r1, #4]
        pllvco = (uint32_t) ((((uint64_t) HSE_VALUE * ((uint64_t) ((RCC->PLLCFGR & RCC_PLLCFGR_PLLN) >> RCC_PLLCFGR_PLLN_Pos)))) / (uint64_t)pllm);
 8000bea:	6849      	ldr	r1, [r1, #4]
      if(__HAL_RCC_GET_PLL_OSCSOURCE() != RCC_PLLSOURCE_HSI)
 8000bec:	f413 0380 	ands.w	r3, r3, #4194304	; 0x400000
        pllvco = (uint32_t) ((((uint64_t) HSE_VALUE * ((uint64_t) ((RCC->PLLCFGR & RCC_PLLCFGR_PLLN) >> RCC_PLLCFGR_PLLN_Pos)))) / (uint64_t)pllm);
 8000bf0:	bf14      	ite	ne
 8000bf2:	480c      	ldrne	r0, [pc, #48]	; (8000c24 <HAL_RCC_GetSysClockFreq+0x58>)
        pllvco = (uint32_t) ((((uint64_t) HSI_VALUE * ((uint64_t) ((RCC->PLLCFGR & RCC_PLLCFGR_PLLN) >> RCC_PLLCFGR_PLLN_Pos)))) / (uint64_t)pllm);
 8000bf4:	480a      	ldreq	r0, [pc, #40]	; (8000c20 <HAL_RCC_GetSysClockFreq+0x54>)
        pllvco = (uint32_t) ((((uint64_t) HSE_VALUE * ((uint64_t) ((RCC->PLLCFGR & RCC_PLLCFGR_PLLN) >> RCC_PLLCFGR_PLLN_Pos)))) / (uint64_t)pllm);
 8000bf6:	f3c1 1188 	ubfx	r1, r1, #6, #9
 8000bfa:	bf18      	it	ne
 8000bfc:	2300      	movne	r3, #0
      pllm = RCC->PLLCFGR & RCC_PLLCFGR_PLLM;
 8000bfe:	f002 023f 	and.w	r2, r2, #63	; 0x3f
        pllvco = (uint32_t) ((((uint64_t) HSI_VALUE * ((uint64_t) ((RCC->PLLCFGR & RCC_PLLCFGR_PLLN) >> RCC_PLLCFGR_PLLN_Pos)))) / (uint64_t)pllm);
 8000c02:	fba1 0100 	umull	r0, r1, r1, r0
 8000c06:	f7ff fadf 	bl	80001c8 <__aeabi_uldivmod>
      pllp = ((((RCC->PLLCFGR & RCC_PLLCFGR_PLLP) >> RCC_PLLCFGR_PLLP_Pos) + 1U) *2U);
 8000c0a:	4b04      	ldr	r3, [pc, #16]	; (8000c1c <HAL_RCC_GetSysClockFreq+0x50>)
 8000c0c:	685b      	ldr	r3, [r3, #4]
 8000c0e:	f3c3 4301 	ubfx	r3, r3, #16, #2
 8000c12:	3301      	adds	r3, #1
 8000c14:	005b      	lsls	r3, r3, #1
      sysclockfreq = pllvco/pllp;
 8000c16:	fbb0 f0f3 	udiv	r0, r0, r3
 8000c1a:	bd08      	pop	{r3, pc}
 8000c1c:	40023800 	.word	0x40023800
 8000c20:	00f42400 	.word	0x00f42400
 8000c24:	007a1200 	.word	0x007a1200

08000c28 <HAL_RCC_ClockConfig>:
{
 8000c28:	e92d 41f0 	stmdb	sp!, {r4, r5, r6, r7, r8, lr}
 8000c2c:	460d      	mov	r5, r1
  if(RCC_ClkInitStruct == NULL)
 8000c2e:	4604      	mov	r4, r0
 8000c30:	b910      	cbnz	r0, 8000c38 <HAL_RCC_ClockConfig+0x10>
    return HAL_ERROR;
 8000c32:	2001      	movs	r0, #1
 8000c34:	e8bd 81f0 	ldmia.w	sp!, {r4, r5, r6, r7, r8, pc}
  if(FLatency > __HAL_FLASH_GET_LATENCY())
 8000c38:	4b44      	ldr	r3, [pc, #272]	; (8000d4c <HAL_RCC_ClockConfig+0x124>)
 8000c3a:	681a      	ldr	r2, [r3, #0]
 8000c3c:	f002 020f 	and.w	r2, r2, #15
 8000c40:	428a      	cmp	r2, r1
 8000c42:	d329      	bcc.n	8000c98 <HAL_RCC_ClockConfig+0x70>
  if(((RCC_ClkInitStruct->ClockType) & RCC_CLOCKTYPE_HCLK) == RCC_CLOCKTYPE_HCLK)
 8000c44:	6821      	ldr	r1, [r4, #0]
 8000c46:	078f      	lsls	r7, r1, #30
 8000c48:	d42e      	bmi.n	8000ca8 <HAL_RCC_ClockConfig+0x80>
  if(((RCC_ClkInitStruct->ClockType) & RCC_CLOCKTYPE_SYSCLK) == RCC_CLOCKTYPE_SYSCLK)
 8000c4a:	07c8      	lsls	r0, r1, #31
 8000c4c:	d441      	bmi.n	8000cd2 <HAL_RCC_ClockConfig+0xaa>
  if(FLatency < __HAL_FLASH_GET_LATENCY())
 8000c4e:	4b3f      	ldr	r3, [pc, #252]	; (8000d4c <HAL_RCC_ClockConfig+0x124>)
 8000c50:	681a      	ldr	r2, [r3, #0]
 8000c52:	f002 020f 	and.w	r2, r2, #15
 8000c56:	4295      	cmp	r5, r2
 8000c58:	d367      	bcc.n	8000d2a <HAL_RCC_ClockConfig+0x102>
  if(((RCC_ClkInitStruct->ClockType) & RCC_CLOCKTYPE_PCLK1) == RCC_CLOCKTYPE_PCLK1)
 8000c5a:	6822      	ldr	r2, [r4, #0]
 8000c5c:	0751      	lsls	r1, r2, #29
 8000c5e:	d46d      	bmi.n	8000d3c <HAL_RCC_ClockConfig+0x114>
  if(((RCC_ClkInitStruct->ClockType) & RCC_CLOCKTYPE_PCLK2) == RCC_CLOCKTYPE_PCLK2)
 8000c60:	0713      	lsls	r3, r2, #28
 8000c62:	d507      	bpl.n	8000c74 <HAL_RCC_ClockConfig+0x4c>
    MODIFY_REG(RCC->CFGR, RCC_CFGR_PPRE2, ((RCC_ClkInitStruct->APB2CLKDivider) << 3U));
 8000c64:	4a3a      	ldr	r2, [pc, #232]	; (8000d50 <HAL_RCC_ClockConfig+0x128>)
 8000c66:	6921      	ldr	r1, [r4, #16]
 8000c68:	6893      	ldr	r3, [r2, #8]
 8000c6a:	f423 4360 	bic.w	r3, r3, #57344	; 0xe000
 8000c6e:	ea43 03c1 	orr.w	r3, r3, r1, lsl #3
 8000c72:	6093      	str	r3, [r2, #8]
  SystemCoreClock = HAL_RCC_GetSysClockFreq() >> AHBPrescTable[(RCC->CFGR & RCC_CFGR_HPRE)>> RCC_CFGR_HPRE_Pos];
 8000c74:	f7ff ffaa 	bl	8000bcc <HAL_RCC_GetSysClockFreq>
 8000c78:	4b35      	ldr	r3, [pc, #212]	; (8000d50 <HAL_RCC_ClockConfig+0x128>)
 8000c7a:	4a36      	ldr	r2, [pc, #216]	; (8000d54 <HAL_RCC_ClockConfig+0x12c>)
 8000c7c:	689b      	ldr	r3, [r3, #8]
 8000c7e:	f3c3 1303 	ubfx	r3, r3, #4, #4
 8000c82:	5cd3      	ldrb	r3, [r2, r3]
 8000c84:	40d8      	lsrs	r0, r3
 8000c86:	4b34      	ldr	r3, [pc, #208]	; (8000d58 <HAL_RCC_ClockConfig+0x130>)
 8000c88:	6018      	str	r0, [r3, #0]
  HAL_InitTick (uwTickPrio);
 8000c8a:	4b34      	ldr	r3, [pc, #208]	; (8000d5c <HAL_RCC_ClockConfig+0x134>)
 8000c8c:	6818      	ldr	r0, [r3, #0]
 8000c8e:	f7ff fc23 	bl	80004d8 <HAL_InitTick>
  return HAL_OK;
 8000c92:	2000      	movs	r0, #0
 8000c94:	e8bd 81f0 	ldmia.w	sp!, {r4, r5, r6, r7, r8, pc}
    __HAL_FLASH_SET_LATENCY(FLatency);
 8000c98:	b2ca      	uxtb	r2, r1
 8000c9a:	701a      	strb	r2, [r3, #0]
    if(__HAL_FLASH_GET_LATENCY() != FLatency)
 8000c9c:	681b      	ldr	r3, [r3, #0]
 8000c9e:	f003 030f 	and.w	r3, r3, #15
 8000ca2:	4299      	cmp	r1, r3
 8000ca4:	d1c5      	bne.n	8000c32 <HAL_RCC_ClockConfig+0xa>
 8000ca6:	e7cd      	b.n	8000c44 <HAL_RCC_ClockConfig+0x1c>
 8000ca8:	4b29      	ldr	r3, [pc, #164]	; (8000d50 <HAL_RCC_ClockConfig+0x128>)
    if(((RCC_ClkInitStruct->ClockType) & RCC_CLOCKTYPE_PCLK1) == RCC_CLOCKTYPE_PCLK1)
 8000caa:	f011 0f04 	tst.w	r1, #4
      MODIFY_REG(RCC->CFGR, RCC_CFGR_PPRE1, RCC_HCLK_DIV16);
 8000cae:	bf1e      	ittt	ne
 8000cb0:	689a      	ldrne	r2, [r3, #8]
 8000cb2:	f442 52e0 	orrne.w	r2, r2, #7168	; 0x1c00
 8000cb6:	609a      	strne	r2, [r3, #8]
    if(((RCC_ClkInitStruct->ClockType) & RCC_CLOCKTYPE_PCLK2) == RCC_CLOCKTYPE_PCLK2)
 8000cb8:	070e      	lsls	r6, r1, #28
      MODIFY_REG(RCC->CFGR, RCC_CFGR_PPRE2, (RCC_HCLK_DIV16 << 3));
 8000cba:	bf42      	ittt	mi
 8000cbc:	689a      	ldrmi	r2, [r3, #8]
 8000cbe:	f442 4260 	orrmi.w	r2, r2, #57344	; 0xe000
 8000cc2:	609a      	strmi	r2, [r3, #8]
    MODIFY_REG(RCC->CFGR, RCC_CFGR_HPRE, RCC_ClkInitStruct->AHBCLKDivider);
 8000cc4:	689a      	ldr	r2, [r3, #8]
 8000cc6:	68a0      	ldr	r0, [r4, #8]
 8000cc8:	f022 02f0 	bic.w	r2, r2, #240	; 0xf0
 8000ccc:	4302      	orrs	r2, r0
 8000cce:	609a      	str	r2, [r3, #8]
 8000cd0:	e7bb      	b.n	8000c4a <HAL_RCC_ClockConfig+0x22>
    if(RCC_ClkInitStruct->SYSCLKSource == RCC_SYSCLKSOURCE_HSE)
 8000cd2:	6862      	ldr	r2, [r4, #4]
 8000cd4:	4b1e      	ldr	r3, [pc, #120]	; (8000d50 <HAL_RCC_ClockConfig+0x128>)
 8000cd6:	2a01      	cmp	r2, #1
 8000cd8:	d11d      	bne.n	8000d16 <HAL_RCC_ClockConfig+0xee>
      if(__HAL_RCC_GET_FLAG(RCC_FLAG_HSERDY) == RESET)
 8000cda:	681b      	ldr	r3, [r3, #0]
 8000cdc:	f413 3f00 	tst.w	r3, #131072	; 0x20000
      if(__HAL_RCC_GET_FLAG(RCC_FLAG_HSIRDY) == RESET)
 8000ce0:	d0a7      	beq.n	8000c32 <HAL_RCC_ClockConfig+0xa>
    __HAL_RCC_SYSCLK_CONFIG(RCC_ClkInitStruct->SYSCLKSource);
 8000ce2:	4e1b      	ldr	r6, [pc, #108]	; (8000d50 <HAL_RCC_ClockConfig+0x128>)
 8000ce4:	68b3      	ldr	r3, [r6, #8]
 8000ce6:	f023 0303 	bic.w	r3, r3, #3
 8000cea:	4313      	orrs	r3, r2
 8000cec:	60b3      	str	r3, [r6, #8]
    tickstart = HAL_GetTick();
 8000cee:	f7ff fc3d 	bl	800056c <HAL_GetTick>
      if ((HAL_GetTick() - tickstart) > CLOCKSWITCH_TIMEOUT_VALUE)
 8000cf2:	f241 3888 	movw	r8, #5000	; 0x1388
    tickstart = HAL_GetTick();
 8000cf6:	4607      	mov	r7, r0
    while (__HAL_RCC_GET_SYSCLK_SOURCE() != (RCC_ClkInitStruct->SYSCLKSource << RCC_CFGR_SWS_Pos))
 8000cf8:	68b3      	ldr	r3, [r6, #8]
 8000cfa:	6862      	ldr	r2, [r4, #4]
 8000cfc:	f003 030c 	and.w	r3, r3, #12
 8000d00:	ebb3 0f82 	cmp.w	r3, r2, lsl #2
 8000d04:	d0a3      	beq.n	8000c4e <HAL_RCC_ClockConfig+0x26>
      if ((HAL_GetTick() - tickstart) > CLOCKSWITCH_TIMEOUT_VALUE)
 8000d06:	f7ff fc31 	bl	800056c <HAL_GetTick>
 8000d0a:	1bc0      	subs	r0, r0, r7
 8000d0c:	4540      	cmp	r0, r8
 8000d0e:	d9f3      	bls.n	8000cf8 <HAL_RCC_ClockConfig+0xd0>
        return HAL_TIMEOUT;
 8000d10:	2003      	movs	r0, #3
}
 8000d12:	e8bd 81f0 	ldmia.w	sp!, {r4, r5, r6, r7, r8, pc}
    else if((RCC_ClkInitStruct->SYSCLKSource == RCC_SYSCLKSOURCE_PLLCLK)   ||
 8000d16:	1e91      	subs	r1, r2, #2
 8000d18:	2901      	cmp	r1, #1
      if(__HAL_RCC_GET_FLAG(RCC_FLAG_PLLRDY) == RESET)
 8000d1a:	681b      	ldr	r3, [r3, #0]
    else if((RCC_ClkInitStruct->SYSCLKSource == RCC_SYSCLKSOURCE_PLLCLK)   ||
 8000d1c:	d802      	bhi.n	8000d24 <HAL_RCC_ClockConfig+0xfc>
      if(__HAL_RCC_GET_FLAG(RCC_FLAG_PLLRDY) == RESET)
 8000d1e:	f013 7f00 	tst.w	r3, #33554432	; 0x2000000
 8000d22:	e7dd      	b.n	8000ce0 <HAL_RCC_ClockConfig+0xb8>
      if(__HAL_RCC_GET_FLAG(RCC_FLAG_HSIRDY) == RESET)
 8000d24:	f013 0f02 	tst.w	r3, #2
 8000d28:	e7da      	b.n	8000ce0 <HAL_RCC_ClockConfig+0xb8>
    __HAL_FLASH_SET_LATENCY(FLatency);
 8000d2a:	b2ea      	uxtb	r2, r5
 8000d2c:	701a      	strb	r2, [r3, #0]
    if(__HAL_FLASH_GET_LATENCY() != FLatency)
 8000d2e:	681b      	ldr	r3, [r3, #0]
 8000d30:	f003 030f 	and.w	r3, r3, #15
 8000d34:	429d      	cmp	r5, r3
 8000d36:	f47f af7c 	bne.w	8000c32 <HAL_RCC_ClockConfig+0xa>
 8000d3a:	e78e      	b.n	8000c5a <HAL_RCC_ClockConfig+0x32>
    MODIFY_REG(RCC->CFGR, RCC_CFGR_PPRE1, RCC_ClkInitStruct->APB1CLKDivider);
 8000d3c:	4904      	ldr	r1, [pc, #16]	; (8000d50 <HAL_RCC_ClockConfig+0x128>)
 8000d3e:	68e0      	ldr	r0, [r4, #12]
 8000d40:	688b      	ldr	r3, [r1, #8]
 8000d42:	f423 53e0 	bic.w	r3, r3, #7168	; 0x1c00
 8000d46:	4303      	orrs	r3, r0
 8000d48:	608b      	str	r3, [r1, #8]
 8000d4a:	e789      	b.n	8000c60 <HAL_RCC_ClockConfig+0x38>
 8000d4c:	40023c00 	.word	0x40023c00
 8000d50:	40023800 	.word	0x40023800
 8000d54:	080074d7 	.word	0x080074d7
 8000d58:	20000014 	.word	0x20000014
 8000d5c:	20000004 	.word	0x20000004

08000d60 <HAL_RCC_GetPCLK1Freq>:
  * @retval PCLK1 frequency
  */
uint32_t HAL_RCC_GetPCLK1Freq(void)
{
  /* Get HCLK source and Compute PCLK1 frequency ---------------------------*/
  return (HAL_RCC_GetHCLKFreq() >> APBPrescTable[(RCC->CFGR & RCC_CFGR_PPRE1)>> RCC_CFGR_PPRE1_Pos]);
 8000d60:	4b04      	ldr	r3, [pc, #16]	; (8000d74 <HAL_RCC_GetPCLK1Freq+0x14>)
 8000d62:	4a05      	ldr	r2, [pc, #20]	; (8000d78 <HAL_RCC_GetPCLK1Freq+0x18>)
 8000d64:	689b      	ldr	r3, [r3, #8]
 8000d66:	f3c3 2382 	ubfx	r3, r3, #10, #3
 8000d6a:	5cd3      	ldrb	r3, [r2, r3]
 8000d6c:	4a03      	ldr	r2, [pc, #12]	; (8000d7c <HAL_RCC_GetPCLK1Freq+0x1c>)
 8000d6e:	6810      	ldr	r0, [r2, #0]
}
 8000d70:	40d8      	lsrs	r0, r3
 8000d72:	4770      	bx	lr
 8000d74:	40023800 	.word	0x40023800
 8000d78:	080074e7 	.word	0x080074e7
 8000d7c:	20000014 	.word	0x20000014

08000d80 <HAL_RCC_GetPCLK2Freq>:
  * @retval PCLK2 frequency
  */
uint32_t HAL_RCC_GetPCLK2Freq(void)
{
  /* Get HCLK source and Compute PCLK2 frequency ---------------------------*/
  return (HAL_RCC_GetHCLKFreq()>> APBPrescTable[(RCC->CFGR & RCC_CFGR_PPRE2)>> RCC_CFGR_PPRE2_Pos]);
 8000d80:	4b04      	ldr	r3, [pc, #16]	; (8000d94 <HAL_RCC_GetPCLK2Freq+0x14>)
 8000d82:	4a05      	ldr	r2, [pc, #20]	; (8000d98 <HAL_RCC_GetPCLK2Freq+0x18>)
 8000d84:	689b      	ldr	r3, [r3, #8]
 8000d86:	f3c3 3342 	ubfx	r3, r3, #13, #3
 8000d8a:	5cd3      	ldrb	r3, [r2, r3]
 8000d8c:	4a03      	ldr	r2, [pc, #12]	; (8000d9c <HAL_RCC_GetPCLK2Freq+0x1c>)
 8000d8e:	6810      	ldr	r0, [r2, #0]
}
 8000d90:	40d8      	lsrs	r0, r3
 8000d92:	4770      	bx	lr
 8000d94:	40023800 	.word	0x40023800
 8000d98:	080074e7 	.word	0x080074e7
 8000d9c:	20000014 	.word	0x20000014

08000da0 <SPI_WaitFlagStateUntilTimeout.constprop.9>:
  * @param  State flag state to check
  * @param  Timeout Timeout duration
  * @param  Tickstart tick start value
  * @retval HAL status
  */
static HAL_StatusTypeDef SPI_WaitFlagStateUntilTimeout(SPI_HandleTypeDef *hspi, uint32_t Flag, FlagStatus State,
 8000da0:	b5f8      	push	{r3, r4, r5, r6, r7, lr}
 8000da2:	4604      	mov	r4, r0
 8000da4:	460e      	mov	r6, r1
 8000da6:	4615      	mov	r5, r2
 8000da8:	461f      	mov	r7, r3
                                                       uint32_t Timeout, uint32_t Tickstart)
{
  while ((__HAL_SPI_GET_FLAG(hspi, Flag) ? SET : RESET) != State)
 8000daa:	6821      	ldr	r1, [r4, #0]
 8000dac:	688a      	ldr	r2, [r1, #8]
 8000dae:	ea36 0302 	bics.w	r3, r6, r2
 8000db2:	d001      	beq.n	8000db8 <SPI_WaitFlagStateUntilTimeout.constprop.9+0x18>
        return HAL_TIMEOUT;
      }
    }
  }

  return HAL_OK;
 8000db4:	2000      	movs	r0, #0
}
 8000db6:	bdf8      	pop	{r3, r4, r5, r6, r7, pc}
    if (Timeout != HAL_MAX_DELAY)
 8000db8:	1c6b      	adds	r3, r5, #1
 8000dba:	d0f7      	beq.n	8000dac <SPI_WaitFlagStateUntilTimeout.constprop.9+0xc>
      if (((HAL_GetTick() - Tickstart) >= Timeout) || (Timeout == 0U))
 8000dbc:	f7ff fbd6 	bl	800056c <HAL_GetTick>
 8000dc0:	1bc0      	subs	r0, r0, r7
 8000dc2:	4285      	cmp	r5, r0
 8000dc4:	d8f1      	bhi.n	8000daa <SPI_WaitFlagStateUntilTimeout.constprop.9+0xa>
        __HAL_SPI_DISABLE_IT(hspi, (SPI_IT_TXE | SPI_IT_RXNE | SPI_IT_ERR));
 8000dc6:	6823      	ldr	r3, [r4, #0]
 8000dc8:	685a      	ldr	r2, [r3, #4]
 8000dca:	f022 02e0 	bic.w	r2, r2, #224	; 0xe0
 8000dce:	605a      	str	r2, [r3, #4]
        if ((hspi->Init.Mode == SPI_MODE_MASTER) && ((hspi->Init.Direction == SPI_DIRECTION_1LINE)
 8000dd0:	6862      	ldr	r2, [r4, #4]
 8000dd2:	f5b2 7f82 	cmp.w	r2, #260	; 0x104
 8000dd6:	d10a      	bne.n	8000dee <SPI_WaitFlagStateUntilTimeout.constprop.9+0x4e>
 8000dd8:	68a2      	ldr	r2, [r4, #8]
 8000dda:	f5b2 4f00 	cmp.w	r2, #32768	; 0x8000
 8000dde:	d002      	beq.n	8000de6 <SPI_WaitFlagStateUntilTimeout.constprop.9+0x46>
                                                     || (hspi->Init.Direction == SPI_DIRECTION_2LINES_RXONLY)))
 8000de0:	f5b2 6f80 	cmp.w	r2, #1024	; 0x400
 8000de4:	d103      	bne.n	8000dee <SPI_WaitFlagStateUntilTimeout.constprop.9+0x4e>
          __HAL_SPI_DISABLE(hspi);
 8000de6:	681a      	ldr	r2, [r3, #0]
 8000de8:	f022 0240 	bic.w	r2, r2, #64	; 0x40
 8000dec:	601a      	str	r2, [r3, #0]
        if (hspi->Init.CRCCalculation == SPI_CRCCALCULATION_ENABLE)
 8000dee:	6aa2      	ldr	r2, [r4, #40]	; 0x28
 8000df0:	f5b2 5f00 	cmp.w	r2, #8192	; 0x2000
 8000df4:	d107      	bne.n	8000e06 <SPI_WaitFlagStateUntilTimeout.constprop.9+0x66>
          SPI_RESET_CRC(hspi);
 8000df6:	681a      	ldr	r2, [r3, #0]
 8000df8:	f422 5200 	bic.w	r2, r2, #8192	; 0x2000
 8000dfc:	601a      	str	r2, [r3, #0]
 8000dfe:	681a      	ldr	r2, [r3, #0]
 8000e00:	f442 5200 	orr.w	r2, r2, #8192	; 0x2000
 8000e04:	601a      	str	r2, [r3, #0]
        hspi->State = HAL_SPI_STATE_READY;
 8000e06:	2301      	movs	r3, #1
 8000e08:	f884 3051 	strb.w	r3, [r4, #81]	; 0x51
        __HAL_UNLOCK(hspi);
 8000e0c:	2300      	movs	r3, #0
 8000e0e:	f884 3050 	strb.w	r3, [r4, #80]	; 0x50
 8000e12:	2003      	movs	r0, #3
 8000e14:	bdf8      	pop	{r3, r4, r5, r6, r7, pc}

08000e16 <SPI_EndRxTransaction>:
  * @param  Timeout Timeout duration
  * @param  Tickstart tick start value
  * @retval HAL status
  */
static HAL_StatusTypeDef SPI_EndRxTransaction(SPI_HandleTypeDef *hspi,  uint32_t Timeout, uint32_t Tickstart)
{
 8000e16:	b538      	push	{r3, r4, r5, lr}
 8000e18:	4613      	mov	r3, r2
  if ((hspi->Init.Mode == SPI_MODE_MASTER) && ((hspi->Init.Direction == SPI_DIRECTION_1LINE)
 8000e1a:	6842      	ldr	r2, [r0, #4]
 8000e1c:	f5b2 7f82 	cmp.w	r2, #260	; 0x104
{
 8000e20:	4604      	mov	r4, r0
  if ((hspi->Init.Mode == SPI_MODE_MASTER) && ((hspi->Init.Direction == SPI_DIRECTION_1LINE)
 8000e22:	d11f      	bne.n	8000e64 <SPI_EndRxTransaction+0x4e>
 8000e24:	6882      	ldr	r2, [r0, #8]
 8000e26:	f5b2 4f00 	cmp.w	r2, #32768	; 0x8000
 8000e2a:	d002      	beq.n	8000e32 <SPI_EndRxTransaction+0x1c>
                                               || (hspi->Init.Direction == SPI_DIRECTION_2LINES_RXONLY)))
 8000e2c:	f5b2 6f80 	cmp.w	r2, #1024	; 0x400
 8000e30:	d107      	bne.n	8000e42 <SPI_EndRxTransaction+0x2c>
  {
    /* Disable SPI peripheral */
    __HAL_SPI_DISABLE(hspi);
 8000e32:	6825      	ldr	r5, [r4, #0]
 8000e34:	6828      	ldr	r0, [r5, #0]
  }

  /* Erratasheet: BSY bit may stay high at the end of a data transfer in Slave mode */
  if (hspi->Init.Mode == SPI_MODE_MASTER)
  {
    if (hspi->Init.Direction != SPI_DIRECTION_2LINES_RXONLY)
 8000e36:	f5b2 6f80 	cmp.w	r2, #1024	; 0x400
    __HAL_SPI_DISABLE(hspi);
 8000e3a:	f020 0040 	bic.w	r0, r0, #64	; 0x40
 8000e3e:	6028      	str	r0, [r5, #0]
    if (hspi->Init.Direction != SPI_DIRECTION_2LINES_RXONLY)
 8000e40:	d007      	beq.n	8000e52 <SPI_EndRxTransaction+0x3c>
    {
      /* Control the BSY flag */
      if (SPI_WaitFlagStateUntilTimeout(hspi, SPI_FLAG_BSY, RESET, Timeout, Tickstart) != HAL_OK)
 8000e42:	460a      	mov	r2, r1
 8000e44:	2180      	movs	r1, #128	; 0x80
 8000e46:	4620      	mov	r0, r4
 8000e48:	f7ff ffaa 	bl	8000da0 <SPI_WaitFlagStateUntilTimeout.constprop.9>
 8000e4c:	b920      	cbnz	r0, 8000e58 <SPI_EndRxTransaction+0x42>
    {
      SET_BIT(hspi->ErrorCode, HAL_SPI_ERROR_FLAG);
      return HAL_TIMEOUT;
    }
  }
  return HAL_OK;
 8000e4e:	2000      	movs	r0, #0
 8000e50:	bd38      	pop	{r3, r4, r5, pc}
      if (SPI_WaitFlagStateUntilTimeout(hspi, SPI_FLAG_RXNE, RESET, Timeout, Tickstart) != HAL_OK)
 8000e52:	460a      	mov	r2, r1
 8000e54:	2101      	movs	r1, #1
 8000e56:	e7f6      	b.n	8000e46 <SPI_EndRxTransaction+0x30>
      SET_BIT(hspi->ErrorCode, HAL_SPI_ERROR_FLAG);
 8000e58:	6d63      	ldr	r3, [r4, #84]	; 0x54
 8000e5a:	f043 0320 	orr.w	r3, r3, #32
 8000e5e:	6563      	str	r3, [r4, #84]	; 0x54
      return HAL_TIMEOUT;
 8000e60:	2003      	movs	r0, #3
 8000e62:	bd38      	pop	{r3, r4, r5, pc}
    if (SPI_WaitFlagStateUntilTimeout(hspi, SPI_FLAG_RXNE, RESET, Timeout, Tickstart) != HAL_OK)
 8000e64:	460a      	mov	r2, r1
 8000e66:	2101      	movs	r1, #1
 8000e68:	e7ee      	b.n	8000e48 <SPI_EndRxTransaction+0x32>
	...

08000e6c <SPI_EndRxTxTransaction>:
  * @param  Timeout Timeout duration
  * @param  Tickstart tick start value
  * @retval HAL status
  */
static HAL_StatusTypeDef SPI_EndRxTxTransaction(SPI_HandleTypeDef *hspi, uint32_t Timeout, uint32_t Tickstart)
{
 8000e6c:	b573      	push	{r0, r1, r4, r5, r6, lr}
 8000e6e:	4613      	mov	r3, r2
  /* Timeout in s */
  __IO uint32_t count = SPI_BSY_FLAG_WORKAROUND_TIMEOUT * (SystemCoreClock / 24U / 1000000U);
 8000e70:	4a13      	ldr	r2, [pc, #76]	; (8000ec0 <SPI_EndRxTxTransaction+0x54>)
 8000e72:	4e14      	ldr	r6, [pc, #80]	; (8000ec4 <SPI_EndRxTxTransaction+0x58>)
 8000e74:	6815      	ldr	r5, [r2, #0]
  /* Erratasheet: BSY bit may stay high at the end of a data transfer in Slave mode */
  if (hspi->Init.Mode == SPI_MODE_MASTER)
 8000e76:	6842      	ldr	r2, [r0, #4]
  __IO uint32_t count = SPI_BSY_FLAG_WORKAROUND_TIMEOUT * (SystemCoreClock / 24U / 1000000U);
 8000e78:	fbb5 f6f6 	udiv	r6, r5, r6
 8000e7c:	f44f 757a 	mov.w	r5, #1000	; 0x3e8
 8000e80:	4375      	muls	r5, r6
  if (hspi->Init.Mode == SPI_MODE_MASTER)
 8000e82:	f5b2 7f82 	cmp.w	r2, #260	; 0x104
{
 8000e86:	4604      	mov	r4, r0
  __IO uint32_t count = SPI_BSY_FLAG_WORKAROUND_TIMEOUT * (SystemCoreClock / 24U / 1000000U);
 8000e88:	9501      	str	r5, [sp, #4]
  if (hspi->Init.Mode == SPI_MODE_MASTER)
 8000e8a:	d10d      	bne.n	8000ea8 <SPI_EndRxTxTransaction+0x3c>
  {
    /* Control the BSY flag */
    if (SPI_WaitFlagStateUntilTimeout(hspi, SPI_FLAG_BSY, RESET, Timeout, Tickstart) != HAL_OK)
 8000e8c:	460a      	mov	r2, r1
 8000e8e:	2180      	movs	r1, #128	; 0x80
 8000e90:	f7ff ff86 	bl	8000da0 <SPI_WaitFlagStateUntilTimeout.constprop.9>
 8000e94:	b910      	cbnz	r0, 8000e9c <SPI_EndRxTxTransaction+0x30>
      }
      count--;
    } while (__HAL_SPI_GET_FLAG(hspi, SPI_FLAG_BSY) != RESET);
  }

  return HAL_OK;
 8000e96:	2000      	movs	r0, #0
}
 8000e98:	b002      	add	sp, #8
 8000e9a:	bd70      	pop	{r4, r5, r6, pc}
      SET_BIT(hspi->ErrorCode, HAL_SPI_ERROR_FLAG);
 8000e9c:	6d63      	ldr	r3, [r4, #84]	; 0x54
 8000e9e:	f043 0320 	orr.w	r3, r3, #32
 8000ea2:	6563      	str	r3, [r4, #84]	; 0x54
      return HAL_TIMEOUT;
 8000ea4:	2003      	movs	r0, #3
 8000ea6:	e7f7      	b.n	8000e98 <SPI_EndRxTxTransaction+0x2c>
      if (count == 0U)
 8000ea8:	9b01      	ldr	r3, [sp, #4]
 8000eaa:	2b00      	cmp	r3, #0
 8000eac:	d0f3      	beq.n	8000e96 <SPI_EndRxTxTransaction+0x2a>
      count--;
 8000eae:	9b01      	ldr	r3, [sp, #4]
 8000eb0:	3b01      	subs	r3, #1
 8000eb2:	9301      	str	r3, [sp, #4]
    } while (__HAL_SPI_GET_FLAG(hspi, SPI_FLAG_BSY) != RESET);
 8000eb4:	6823      	ldr	r3, [r4, #0]
 8000eb6:	689b      	ldr	r3, [r3, #8]
 8000eb8:	061b      	lsls	r3, r3, #24
 8000eba:	d4f5      	bmi.n	8000ea8 <SPI_EndRxTxTransaction+0x3c>
 8000ebc:	e7eb      	b.n	8000e96 <SPI_EndRxTxTransaction+0x2a>
 8000ebe:	bf00      	nop
 8000ec0:	20000014 	.word	0x20000014
 8000ec4:	016e3600 	.word	0x016e3600

08000ec8 <HAL_SPI_Init>:
{
 8000ec8:	b510      	push	{r4, lr}
  if (hspi == NULL)
 8000eca:	4604      	mov	r4, r0
 8000ecc:	2800      	cmp	r0, #0
 8000ece:	d036      	beq.n	8000f3e <HAL_SPI_Init+0x76>
  hspi->Init.CRCCalculation = SPI_CRCCALCULATION_DISABLE;
 8000ed0:	2300      	movs	r3, #0
 8000ed2:	6283      	str	r3, [r0, #40]	; 0x28
  if (hspi->State == HAL_SPI_STATE_RESET)
 8000ed4:	f890 3051 	ldrb.w	r3, [r0, #81]	; 0x51
 8000ed8:	f003 02ff 	and.w	r2, r3, #255	; 0xff
 8000edc:	b91b      	cbnz	r3, 8000ee6 <HAL_SPI_Init+0x1e>
    hspi->Lock = HAL_UNLOCKED;
 8000ede:	f880 2050 	strb.w	r2, [r0, #80]	; 0x50
    HAL_SPI_MspInit(hspi);
 8000ee2:	f006 f879 	bl	8006fd8 <HAL_SPI_MspInit>
  __HAL_SPI_DISABLE(hspi);
 8000ee6:	6821      	ldr	r1, [r4, #0]
  WRITE_REG(hspi->Instance->CR1, (hspi->Init.Mode | hspi->Init.Direction | hspi->Init.DataSize |
 8000ee8:	68a0      	ldr	r0, [r4, #8]
 8000eea:	69a2      	ldr	r2, [r4, #24]
  hspi->State = HAL_SPI_STATE_BUSY;
 8000eec:	2302      	movs	r3, #2
 8000eee:	f884 3051 	strb.w	r3, [r4, #81]	; 0x51
  __HAL_SPI_DISABLE(hspi);
 8000ef2:	680b      	ldr	r3, [r1, #0]
 8000ef4:	f023 0340 	bic.w	r3, r3, #64	; 0x40
 8000ef8:	600b      	str	r3, [r1, #0]
  WRITE_REG(hspi->Instance->CR1, (hspi->Init.Mode | hspi->Init.Direction | hspi->Init.DataSize |
 8000efa:	6863      	ldr	r3, [r4, #4]
 8000efc:	4303      	orrs	r3, r0
 8000efe:	68e0      	ldr	r0, [r4, #12]
 8000f00:	4303      	orrs	r3, r0
 8000f02:	6920      	ldr	r0, [r4, #16]
 8000f04:	4303      	orrs	r3, r0
 8000f06:	6960      	ldr	r0, [r4, #20]
 8000f08:	4303      	orrs	r3, r0
 8000f0a:	69e0      	ldr	r0, [r4, #28]
 8000f0c:	4303      	orrs	r3, r0
 8000f0e:	6a20      	ldr	r0, [r4, #32]
 8000f10:	4303      	orrs	r3, r0
 8000f12:	6aa0      	ldr	r0, [r4, #40]	; 0x28
 8000f14:	4303      	orrs	r3, r0
 8000f16:	f402 7000 	and.w	r0, r2, #512	; 0x200
 8000f1a:	4303      	orrs	r3, r0
 8000f1c:	600b      	str	r3, [r1, #0]
  WRITE_REG(hspi->Instance->CR2, (((hspi->Init.NSS >> 16U) & SPI_CR2_SSOE) | hspi->Init.TIMode));
 8000f1e:	0c12      	lsrs	r2, r2, #16
 8000f20:	6a63      	ldr	r3, [r4, #36]	; 0x24
 8000f22:	f002 0204 	and.w	r2, r2, #4
 8000f26:	431a      	orrs	r2, r3
 8000f28:	604a      	str	r2, [r1, #4]
  CLEAR_BIT(hspi->Instance->I2SCFGR, SPI_I2SCFGR_I2SMOD);
 8000f2a:	69cb      	ldr	r3, [r1, #28]
 8000f2c:	f423 6300 	bic.w	r3, r3, #2048	; 0x800
 8000f30:	61cb      	str	r3, [r1, #28]
  hspi->ErrorCode = HAL_SPI_ERROR_NONE;
 8000f32:	2000      	movs	r0, #0
  hspi->State     = HAL_SPI_STATE_READY;
 8000f34:	2301      	movs	r3, #1
  hspi->ErrorCode = HAL_SPI_ERROR_NONE;
 8000f36:	6560      	str	r0, [r4, #84]	; 0x54
  hspi->State     = HAL_SPI_STATE_READY;
 8000f38:	f884 3051 	strb.w	r3, [r4, #81]	; 0x51
  return HAL_OK;
 8000f3c:	bd10      	pop	{r4, pc}
    return HAL_ERROR;
 8000f3e:	2001      	movs	r0, #1
}
 8000f40:	bd10      	pop	{r4, pc}

08000f42 <HAL_SPI_Transmit>:
{
 8000f42:	e92d 41f3 	stmdb	sp!, {r0, r1, r4, r5, r6, r7, r8, lr}
 8000f46:	461e      	mov	r6, r3
  __HAL_LOCK(hspi);
 8000f48:	f890 3050 	ldrb.w	r3, [r0, #80]	; 0x50
 8000f4c:	2b01      	cmp	r3, #1
{
 8000f4e:	4604      	mov	r4, r0
 8000f50:	460d      	mov	r5, r1
 8000f52:	4690      	mov	r8, r2
  __HAL_LOCK(hspi);
 8000f54:	f000 809b 	beq.w	800108e <HAL_SPI_Transmit+0x14c>
 8000f58:	2301      	movs	r3, #1
 8000f5a:	f880 3050 	strb.w	r3, [r0, #80]	; 0x50
  tickstart = HAL_GetTick();
 8000f5e:	f7ff fb05 	bl	800056c <HAL_GetTick>
 8000f62:	4607      	mov	r7, r0
  if (hspi->State != HAL_SPI_STATE_READY)
 8000f64:	f894 0051 	ldrb.w	r0, [r4, #81]	; 0x51
 8000f68:	b2c0      	uxtb	r0, r0
 8000f6a:	2801      	cmp	r0, #1
 8000f6c:	f040 808d 	bne.w	800108a <HAL_SPI_Transmit+0x148>
  if ((pData == NULL) || (Size == 0U))
 8000f70:	2d00      	cmp	r5, #0
 8000f72:	d05d      	beq.n	8001030 <HAL_SPI_Transmit+0xee>
 8000f74:	f1b8 0f00 	cmp.w	r8, #0
 8000f78:	d05a      	beq.n	8001030 <HAL_SPI_Transmit+0xee>
  hspi->State       = HAL_SPI_STATE_BUSY_TX;
 8000f7a:	2303      	movs	r3, #3
 8000f7c:	f884 3051 	strb.w	r3, [r4, #81]	; 0x51
  hspi->ErrorCode   = HAL_SPI_ERROR_NONE;
 8000f80:	2000      	movs	r0, #0
  if (hspi->Init.Direction == SPI_DIRECTION_1LINE)
 8000f82:	68a3      	ldr	r3, [r4, #8]
  hspi->ErrorCode   = HAL_SPI_ERROR_NONE;
 8000f84:	6560      	str	r0, [r4, #84]	; 0x54
  hspi->pRxBuffPtr  = (uint8_t *)NULL;
 8000f86:	63a0      	str	r0, [r4, #56]	; 0x38
  hspi->TxXferCount = Size;
 8000f88:	f8a4 8036 	strh.w	r8, [r4, #54]	; 0x36
  hspi->RxXferSize  = 0U;
 8000f8c:	87a0      	strh	r0, [r4, #60]	; 0x3c
  hspi->RxXferCount = 0U;
 8000f8e:	87e0      	strh	r0, [r4, #62]	; 0x3e
  hspi->TxISR       = NULL;
 8000f90:	6460      	str	r0, [r4, #68]	; 0x44
  hspi->RxISR       = NULL;
 8000f92:	6420      	str	r0, [r4, #64]	; 0x40
 8000f94:	6820      	ldr	r0, [r4, #0]
  hspi->pTxBuffPtr  = (uint8_t *)pData;
 8000f96:	6325      	str	r5, [r4, #48]	; 0x30
  if (hspi->Init.Direction == SPI_DIRECTION_1LINE)
 8000f98:	f5b3 4f00 	cmp.w	r3, #32768	; 0x8000
    SPI_1LINE_TX(hspi);
 8000f9c:	bf08      	it	eq
 8000f9e:	6803      	ldreq	r3, [r0, #0]
  hspi->TxXferSize  = Size;
 8000fa0:	f8a4 8034 	strh.w	r8, [r4, #52]	; 0x34
    SPI_1LINE_TX(hspi);
 8000fa4:	bf04      	itt	eq
 8000fa6:	f443 4380 	orreq.w	r3, r3, #16384	; 0x4000
 8000faa:	6003      	streq	r3, [r0, #0]
  if ((hspi->Instance->CR1 & SPI_CR1_SPE) != SPI_CR1_SPE)
 8000fac:	6803      	ldr	r3, [r0, #0]
 8000fae:	065b      	lsls	r3, r3, #25
    __HAL_SPI_ENABLE(hspi);
 8000fb0:	bf5e      	ittt	pl
 8000fb2:	6803      	ldrpl	r3, [r0, #0]
 8000fb4:	f043 0340 	orrpl.w	r3, r3, #64	; 0x40
 8000fb8:	6003      	strpl	r3, [r0, #0]
  if (hspi->Init.DataSize == SPI_DATASIZE_16BIT)
 8000fba:	68e3      	ldr	r3, [r4, #12]
 8000fbc:	f5b3 6f00 	cmp.w	r3, #2048	; 0x800
 8000fc0:	6863      	ldr	r3, [r4, #4]
 8000fc2:	d13e      	bne.n	8001042 <HAL_SPI_Transmit+0x100>
    if ((hspi->Init.Mode == SPI_MODE_SLAVE) || (initial_TxXferCount == 0x01U))
 8000fc4:	b113      	cbz	r3, 8000fcc <HAL_SPI_Transmit+0x8a>
 8000fc6:	f1b8 0f01 	cmp.w	r8, #1
 8000fca:	d107      	bne.n	8000fdc <HAL_SPI_Transmit+0x9a>
      hspi->Instance->DR = *((uint16_t *)hspi->pTxBuffPtr);
 8000fcc:	f835 3b02 	ldrh.w	r3, [r5], #2
 8000fd0:	60c3      	str	r3, [r0, #12]
      hspi->pTxBuffPtr += sizeof(uint16_t);
 8000fd2:	6325      	str	r5, [r4, #48]	; 0x30
        hspi->TxXferCount--;
 8000fd4:	8ee3      	ldrh	r3, [r4, #54]	; 0x36
 8000fd6:	3b01      	subs	r3, #1
 8000fd8:	b29b      	uxth	r3, r3
 8000fda:	86e3      	strh	r3, [r4, #54]	; 0x36
    while (hspi->TxXferCount > 0U)
 8000fdc:	8ee3      	ldrh	r3, [r4, #54]	; 0x36
 8000fde:	b29b      	uxth	r3, r3
 8000fe0:	b9a3      	cbnz	r3, 800100c <HAL_SPI_Transmit+0xca>
  if (SPI_EndRxTxTransaction(hspi, Timeout, tickstart) != HAL_OK)
 8000fe2:	463a      	mov	r2, r7
 8000fe4:	4631      	mov	r1, r6
 8000fe6:	4620      	mov	r0, r4
 8000fe8:	f7ff ff40 	bl	8000e6c <SPI_EndRxTxTransaction>
 8000fec:	2800      	cmp	r0, #0
 8000fee:	d149      	bne.n	8001084 <HAL_SPI_Transmit+0x142>
  if (hspi->Init.Direction == SPI_DIRECTION_2LINES)
 8000ff0:	68a3      	ldr	r3, [r4, #8]
 8000ff2:	b933      	cbnz	r3, 8001002 <HAL_SPI_Transmit+0xc0>
    __HAL_SPI_CLEAR_OVRFLAG(hspi);
 8000ff4:	9301      	str	r3, [sp, #4]
 8000ff6:	6823      	ldr	r3, [r4, #0]
 8000ff8:	68da      	ldr	r2, [r3, #12]
 8000ffa:	9201      	str	r2, [sp, #4]
 8000ffc:	689b      	ldr	r3, [r3, #8]
 8000ffe:	9301      	str	r3, [sp, #4]
 8001000:	9b01      	ldr	r3, [sp, #4]
  if (hspi->ErrorCode != HAL_SPI_ERROR_NONE)
 8001002:	6d60      	ldr	r0, [r4, #84]	; 0x54
    errorcode = HAL_BUSY;
 8001004:	3000      	adds	r0, #0
 8001006:	bf18      	it	ne
 8001008:	2001      	movne	r0, #1
 800100a:	e011      	b.n	8001030 <HAL_SPI_Transmit+0xee>
      if (__HAL_SPI_GET_FLAG(hspi, SPI_FLAG_TXE))
 800100c:	6822      	ldr	r2, [r4, #0]
 800100e:	6893      	ldr	r3, [r2, #8]
 8001010:	0798      	lsls	r0, r3, #30
 8001012:	d505      	bpl.n	8001020 <HAL_SPI_Transmit+0xde>
        hspi->Instance->DR = *((uint16_t *)hspi->pTxBuffPtr);
 8001014:	6b23      	ldr	r3, [r4, #48]	; 0x30
 8001016:	f833 1b02 	ldrh.w	r1, [r3], #2
 800101a:	60d1      	str	r1, [r2, #12]
        hspi->pTxBuffPtr += sizeof(uint16_t);
 800101c:	6323      	str	r3, [r4, #48]	; 0x30
 800101e:	e7d9      	b.n	8000fd4 <HAL_SPI_Transmit+0x92>
        if ((((HAL_GetTick() - tickstart) >=  Timeout) && (Timeout != HAL_MAX_DELAY)) || (Timeout == 0U))
 8001020:	f7ff faa4 	bl	800056c <HAL_GetTick>
 8001024:	1bc0      	subs	r0, r0, r7
 8001026:	42b0      	cmp	r0, r6
 8001028:	d3d8      	bcc.n	8000fdc <HAL_SPI_Transmit+0x9a>
 800102a:	1c71      	adds	r1, r6, #1
 800102c:	d0d6      	beq.n	8000fdc <HAL_SPI_Transmit+0x9a>
          errorcode = HAL_TIMEOUT;
 800102e:	2003      	movs	r0, #3
  hspi->State = HAL_SPI_STATE_READY;
 8001030:	2301      	movs	r3, #1
 8001032:	f884 3051 	strb.w	r3, [r4, #81]	; 0x51
  __HAL_UNLOCK(hspi);
 8001036:	2300      	movs	r3, #0
 8001038:	f884 3050 	strb.w	r3, [r4, #80]	; 0x50
}
 800103c:	b002      	add	sp, #8
 800103e:	e8bd 81f0 	ldmia.w	sp!, {r4, r5, r6, r7, r8, pc}
    if ((hspi->Init.Mode == SPI_MODE_SLAVE) || (initial_TxXferCount == 0x01U))
 8001042:	b113      	cbz	r3, 800104a <HAL_SPI_Transmit+0x108>
 8001044:	f1b8 0f01 	cmp.w	r8, #1
 8001048:	d108      	bne.n	800105c <HAL_SPI_Transmit+0x11a>
      *((__IO uint8_t *)&hspi->Instance->DR) = (*hspi->pTxBuffPtr);
 800104a:	782b      	ldrb	r3, [r5, #0]
 800104c:	7303      	strb	r3, [r0, #12]
        hspi->pTxBuffPtr += sizeof(uint8_t);
 800104e:	6b23      	ldr	r3, [r4, #48]	; 0x30
 8001050:	3301      	adds	r3, #1
 8001052:	6323      	str	r3, [r4, #48]	; 0x30
        hspi->TxXferCount--;
 8001054:	8ee3      	ldrh	r3, [r4, #54]	; 0x36
 8001056:	3b01      	subs	r3, #1
 8001058:	b29b      	uxth	r3, r3
 800105a:	86e3      	strh	r3, [r4, #54]	; 0x36
    while (hspi->TxXferCount > 0U)
 800105c:	8ee3      	ldrh	r3, [r4, #54]	; 0x36
 800105e:	b29b      	uxth	r3, r3
 8001060:	2b00      	cmp	r3, #0
 8001062:	d0be      	beq.n	8000fe2 <HAL_SPI_Transmit+0xa0>
      if (__HAL_SPI_GET_FLAG(hspi, SPI_FLAG_TXE))
 8001064:	6823      	ldr	r3, [r4, #0]
 8001066:	689a      	ldr	r2, [r3, #8]
 8001068:	0792      	lsls	r2, r2, #30
 800106a:	d503      	bpl.n	8001074 <HAL_SPI_Transmit+0x132>
        *((__IO uint8_t *)&hspi->Instance->DR) = (*hspi->pTxBuffPtr);
 800106c:	6b22      	ldr	r2, [r4, #48]	; 0x30
 800106e:	7812      	ldrb	r2, [r2, #0]
 8001070:	731a      	strb	r2, [r3, #12]
 8001072:	e7ec      	b.n	800104e <HAL_SPI_Transmit+0x10c>
        if ((((HAL_GetTick() - tickstart) >=  Timeout) && (Timeout != HAL_MAX_DELAY)) || (Timeout == 0U))
 8001074:	f7ff fa7a 	bl	800056c <HAL_GetTick>
 8001078:	1bc0      	subs	r0, r0, r7
 800107a:	4286      	cmp	r6, r0
 800107c:	d8ee      	bhi.n	800105c <HAL_SPI_Transmit+0x11a>
 800107e:	1c73      	adds	r3, r6, #1
 8001080:	d0ec      	beq.n	800105c <HAL_SPI_Transmit+0x11a>
 8001082:	e7d4      	b.n	800102e <HAL_SPI_Transmit+0xec>
    hspi->ErrorCode = HAL_SPI_ERROR_FLAG;
 8001084:	2320      	movs	r3, #32
 8001086:	6563      	str	r3, [r4, #84]	; 0x54
 8001088:	e7b2      	b.n	8000ff0 <HAL_SPI_Transmit+0xae>
    errorcode = HAL_BUSY;
 800108a:	2002      	movs	r0, #2
 800108c:	e7d0      	b.n	8001030 <HAL_SPI_Transmit+0xee>
  __HAL_LOCK(hspi);
 800108e:	2002      	movs	r0, #2
 8001090:	e7d4      	b.n	800103c <HAL_SPI_Transmit+0xfa>

08001092 <HAL_SPI_TransmitReceive>:
{
 8001092:	e92d 43f7 	stmdb	sp!, {r0, r1, r2, r4, r5, r6, r7, r8, r9, lr}
 8001096:	461e      	mov	r6, r3
  __HAL_LOCK(hspi);
 8001098:	f890 3050 	ldrb.w	r3, [r0, #80]	; 0x50
{
 800109c:	9f0a      	ldr	r7, [sp, #40]	; 0x28
  __HAL_LOCK(hspi);
 800109e:	2b01      	cmp	r3, #1
{
 80010a0:	4604      	mov	r4, r0
 80010a2:	460d      	mov	r5, r1
 80010a4:	4691      	mov	r9, r2
  __HAL_LOCK(hspi);
 80010a6:	f000 80e2 	beq.w	800126e <HAL_SPI_TransmitReceive+0x1dc>
 80010aa:	2301      	movs	r3, #1
 80010ac:	f880 3050 	strb.w	r3, [r0, #80]	; 0x50
  tickstart = HAL_GetTick();
 80010b0:	f7ff fa5c 	bl	800056c <HAL_GetTick>
  tmp_state           = hspi->State;
 80010b4:	f894 3051 	ldrb.w	r3, [r4, #81]	; 0x51
  tmp_mode            = hspi->Init.Mode;
 80010b8:	6861      	ldr	r1, [r4, #4]
  tmp_state           = hspi->State;
 80010ba:	b2db      	uxtb	r3, r3
  if (!((tmp_state == HAL_SPI_STATE_READY) || \
 80010bc:	2b01      	cmp	r3, #1
  tickstart = HAL_GetTick();
 80010be:	4680      	mov	r8, r0
  if (!((tmp_state == HAL_SPI_STATE_READY) || \
 80010c0:	d00a      	beq.n	80010d8 <HAL_SPI_TransmitReceive+0x46>
 80010c2:	f5b1 7f82 	cmp.w	r1, #260	; 0x104
 80010c6:	f040 80d0 	bne.w	800126a <HAL_SPI_TransmitReceive+0x1d8>
        ((tmp_mode == SPI_MODE_MASTER) && (hspi->Init.Direction == SPI_DIRECTION_2LINES) && (tmp_state == HAL_SPI_STATE_BUSY_RX))))
 80010ca:	68a0      	ldr	r0, [r4, #8]
 80010cc:	2800      	cmp	r0, #0
 80010ce:	f040 80cc 	bne.w	800126a <HAL_SPI_TransmitReceive+0x1d8>
 80010d2:	2b04      	cmp	r3, #4
 80010d4:	f040 80c9 	bne.w	800126a <HAL_SPI_TransmitReceive+0x1d8>
  if ((pTxData == NULL) || (pRxData == NULL) || (Size == 0U))
 80010d8:	2d00      	cmp	r5, #0
 80010da:	f000 80c4 	beq.w	8001266 <HAL_SPI_TransmitReceive+0x1d4>
 80010de:	f1b9 0f00 	cmp.w	r9, #0
 80010e2:	f000 80c0 	beq.w	8001266 <HAL_SPI_TransmitReceive+0x1d4>
 80010e6:	2e00      	cmp	r6, #0
 80010e8:	f000 80bd 	beq.w	8001266 <HAL_SPI_TransmitReceive+0x1d4>
  if (hspi->State != HAL_SPI_STATE_BUSY_RX)
 80010ec:	f894 3051 	ldrb.w	r3, [r4, #81]	; 0x51
  hspi->pRxBuffPtr  = (uint8_t *)pRxData;
 80010f0:	f8c4 9038 	str.w	r9, [r4, #56]	; 0x38
  if (hspi->State != HAL_SPI_STATE_BUSY_RX)
 80010f4:	2b04      	cmp	r3, #4
    hspi->State = HAL_SPI_STATE_BUSY_TX_RX;
 80010f6:	bf1c      	itt	ne
 80010f8:	2305      	movne	r3, #5
 80010fa:	f884 3051 	strbne.w	r3, [r4, #81]	; 0x51
  hspi->ErrorCode   = HAL_SPI_ERROR_NONE;
 80010fe:	2300      	movs	r3, #0
 8001100:	6563      	str	r3, [r4, #84]	; 0x54
  hspi->RxISR       = NULL;
 8001102:	6423      	str	r3, [r4, #64]	; 0x40
  hspi->TxISR       = NULL;
 8001104:	6463      	str	r3, [r4, #68]	; 0x44
  if ((hspi->Instance->CR1 & SPI_CR1_SPE) != SPI_CR1_SPE)
 8001106:	6823      	ldr	r3, [r4, #0]
  hspi->RxXferCount = Size;
 8001108:	87e6      	strh	r6, [r4, #62]	; 0x3e
  hspi->TxXferCount = Size;
 800110a:	86e6      	strh	r6, [r4, #54]	; 0x36
  if ((hspi->Instance->CR1 & SPI_CR1_SPE) != SPI_CR1_SPE)
 800110c:	681a      	ldr	r2, [r3, #0]
  hspi->RxXferSize  = Size;
 800110e:	87a6      	strh	r6, [r4, #60]	; 0x3c
  if ((hspi->Instance->CR1 & SPI_CR1_SPE) != SPI_CR1_SPE)
 8001110:	0650      	lsls	r0, r2, #25
    __HAL_SPI_ENABLE(hspi);
 8001112:	bf58      	it	pl
 8001114:	681a      	ldrpl	r2, [r3, #0]
  hspi->pTxBuffPtr  = (uint8_t *)pTxData;
 8001116:	6325      	str	r5, [r4, #48]	; 0x30
    __HAL_SPI_ENABLE(hspi);
 8001118:	bf58      	it	pl
 800111a:	f042 0240 	orrpl.w	r2, r2, #64	; 0x40
  hspi->TxXferSize  = Size;
 800111e:	86a6      	strh	r6, [r4, #52]	; 0x34
    __HAL_SPI_ENABLE(hspi);
 8001120:	bf58      	it	pl
 8001122:	601a      	strpl	r2, [r3, #0]
  if (hspi->Init.DataSize == SPI_DATASIZE_16BIT)
 8001124:	68e2      	ldr	r2, [r4, #12]
 8001126:	f5b2 6f00 	cmp.w	r2, #2048	; 0x800
 800112a:	d158      	bne.n	80011de <HAL_SPI_TransmitReceive+0x14c>
    if ((hspi->Init.Mode == SPI_MODE_SLAVE) || (initial_TxXferCount == 0x01U))
 800112c:	b109      	cbz	r1, 8001132 <HAL_SPI_TransmitReceive+0xa0>
 800112e:	2e01      	cmp	r6, #1
 8001130:	d107      	bne.n	8001142 <HAL_SPI_TransmitReceive+0xb0>
      hspi->Instance->DR = *((uint16_t *)hspi->pTxBuffPtr);
 8001132:	f835 2b02 	ldrh.w	r2, [r5], #2
 8001136:	60da      	str	r2, [r3, #12]
      hspi->TxXferCount--;
 8001138:	8ee3      	ldrh	r3, [r4, #54]	; 0x36
      hspi->pTxBuffPtr += sizeof(uint16_t);
 800113a:	6325      	str	r5, [r4, #48]	; 0x30
      hspi->TxXferCount--;
 800113c:	3b01      	subs	r3, #1
 800113e:	b29b      	uxth	r3, r3
 8001140:	86e3      	strh	r3, [r4, #54]	; 0x36
        txallowed = 1U;
 8001142:	2501      	movs	r5, #1
    while ((hspi->TxXferCount > 0U) || (hspi->RxXferCount > 0U))
 8001144:	8ee3      	ldrh	r3, [r4, #54]	; 0x36
 8001146:	b29b      	uxth	r3, r3
 8001148:	b9ab      	cbnz	r3, 8001176 <HAL_SPI_TransmitReceive+0xe4>
 800114a:	8fe3      	ldrh	r3, [r4, #62]	; 0x3e
 800114c:	b29b      	uxth	r3, r3
 800114e:	b993      	cbnz	r3, 8001176 <HAL_SPI_TransmitReceive+0xe4>
  if (SPI_EndRxTxTransaction(hspi, Timeout, tickstart) != HAL_OK)
 8001150:	4642      	mov	r2, r8
 8001152:	4639      	mov	r1, r7
 8001154:	4620      	mov	r0, r4
 8001156:	f7ff fe89 	bl	8000e6c <SPI_EndRxTxTransaction>
 800115a:	2800      	cmp	r0, #0
 800115c:	f040 8081 	bne.w	8001262 <HAL_SPI_TransmitReceive+0x1d0>
  if (hspi->Init.Direction == SPI_DIRECTION_2LINES)
 8001160:	68a3      	ldr	r3, [r4, #8]
 8001162:	2b00      	cmp	r3, #0
 8001164:	d132      	bne.n	80011cc <HAL_SPI_TransmitReceive+0x13a>
    __HAL_SPI_CLEAR_OVRFLAG(hspi);
 8001166:	6823      	ldr	r3, [r4, #0]
 8001168:	9001      	str	r0, [sp, #4]
 800116a:	68da      	ldr	r2, [r3, #12]
 800116c:	9201      	str	r2, [sp, #4]
 800116e:	689b      	ldr	r3, [r3, #8]
 8001170:	9301      	str	r3, [sp, #4]
 8001172:	9b01      	ldr	r3, [sp, #4]
 8001174:	e02a      	b.n	80011cc <HAL_SPI_TransmitReceive+0x13a>
      if ((__HAL_SPI_GET_FLAG(hspi, SPI_FLAG_TXE)) && (hspi->TxXferCount > 0U) && (txallowed == 1U))
 8001176:	6822      	ldr	r2, [r4, #0]
 8001178:	6893      	ldr	r3, [r2, #8]
 800117a:	0799      	lsls	r1, r3, #30
 800117c:	d50d      	bpl.n	800119a <HAL_SPI_TransmitReceive+0x108>
 800117e:	8ee3      	ldrh	r3, [r4, #54]	; 0x36
 8001180:	b29b      	uxth	r3, r3
 8001182:	b153      	cbz	r3, 800119a <HAL_SPI_TransmitReceive+0x108>
 8001184:	b14d      	cbz	r5, 800119a <HAL_SPI_TransmitReceive+0x108>
        hspi->Instance->DR = *((uint16_t *)hspi->pTxBuffPtr);
 8001186:	6b23      	ldr	r3, [r4, #48]	; 0x30
 8001188:	f833 1b02 	ldrh.w	r1, [r3], #2
 800118c:	60d1      	str	r1, [r2, #12]
        hspi->pTxBuffPtr += sizeof(uint16_t);
 800118e:	6323      	str	r3, [r4, #48]	; 0x30
        hspi->TxXferCount--;
 8001190:	8ee3      	ldrh	r3, [r4, #54]	; 0x36
 8001192:	3b01      	subs	r3, #1
 8001194:	b29b      	uxth	r3, r3
 8001196:	86e3      	strh	r3, [r4, #54]	; 0x36
        txallowed = 0U;
 8001198:	2500      	movs	r5, #0
      if ((__HAL_SPI_GET_FLAG(hspi, SPI_FLAG_RXNE)) && (hspi->RxXferCount > 0U))
 800119a:	6893      	ldr	r3, [r2, #8]
 800119c:	07db      	lsls	r3, r3, #31
 800119e:	d50c      	bpl.n	80011ba <HAL_SPI_TransmitReceive+0x128>
 80011a0:	8fe3      	ldrh	r3, [r4, #62]	; 0x3e
 80011a2:	b29b      	uxth	r3, r3
 80011a4:	b14b      	cbz	r3, 80011ba <HAL_SPI_TransmitReceive+0x128>
        *((uint16_t *)hspi->pRxBuffPtr) = (uint16_t)hspi->Instance->DR;
 80011a6:	6ba3      	ldr	r3, [r4, #56]	; 0x38
 80011a8:	68d2      	ldr	r2, [r2, #12]
 80011aa:	f823 2b02 	strh.w	r2, [r3], #2
        hspi->pRxBuffPtr += sizeof(uint16_t);
 80011ae:	63a3      	str	r3, [r4, #56]	; 0x38
        hspi->RxXferCount--;
 80011b0:	8fe3      	ldrh	r3, [r4, #62]	; 0x3e
 80011b2:	3b01      	subs	r3, #1
 80011b4:	b29b      	uxth	r3, r3
 80011b6:	87e3      	strh	r3, [r4, #62]	; 0x3e
        txallowed = 1U;
 80011b8:	2501      	movs	r5, #1
      if (((HAL_GetTick() - tickstart) >=  Timeout) && (Timeout != HAL_MAX_DELAY))
 80011ba:	f7ff f9d7 	bl	800056c <HAL_GetTick>
 80011be:	eba0 0008 	sub.w	r0, r0, r8
 80011c2:	4287      	cmp	r7, r0
 80011c4:	d8be      	bhi.n	8001144 <HAL_SPI_TransmitReceive+0xb2>
 80011c6:	1c7e      	adds	r6, r7, #1
 80011c8:	d0bc      	beq.n	8001144 <HAL_SPI_TransmitReceive+0xb2>
        errorcode = HAL_TIMEOUT;
 80011ca:	2003      	movs	r0, #3
  hspi->State = HAL_SPI_STATE_READY;
 80011cc:	2301      	movs	r3, #1
 80011ce:	f884 3051 	strb.w	r3, [r4, #81]	; 0x51
  __HAL_UNLOCK(hspi);
 80011d2:	2300      	movs	r3, #0
 80011d4:	f884 3050 	strb.w	r3, [r4, #80]	; 0x50
}
 80011d8:	b003      	add	sp, #12
 80011da:	e8bd 83f0 	ldmia.w	sp!, {r4, r5, r6, r7, r8, r9, pc}
    if ((hspi->Init.Mode == SPI_MODE_SLAVE) || (initial_TxXferCount == 0x01U))
 80011de:	b109      	cbz	r1, 80011e4 <HAL_SPI_TransmitReceive+0x152>
 80011e0:	2e01      	cmp	r6, #1
 80011e2:	d108      	bne.n	80011f6 <HAL_SPI_TransmitReceive+0x164>
      *((__IO uint8_t *)&hspi->Instance->DR) = (*hspi->pTxBuffPtr);
 80011e4:	782a      	ldrb	r2, [r5, #0]
 80011e6:	731a      	strb	r2, [r3, #12]
      hspi->pTxBuffPtr += sizeof(uint8_t);
 80011e8:	6b23      	ldr	r3, [r4, #48]	; 0x30
 80011ea:	3301      	adds	r3, #1
 80011ec:	6323      	str	r3, [r4, #48]	; 0x30
      hspi->TxXferCount--;
 80011ee:	8ee3      	ldrh	r3, [r4, #54]	; 0x36
 80011f0:	3b01      	subs	r3, #1
 80011f2:	b29b      	uxth	r3, r3
 80011f4:	86e3      	strh	r3, [r4, #54]	; 0x36
        txallowed = 1U;
 80011f6:	2501      	movs	r5, #1
    while ((hspi->TxXferCount > 0U) || (hspi->RxXferCount > 0U))
 80011f8:	8ee3      	ldrh	r3, [r4, #54]	; 0x36
 80011fa:	b29b      	uxth	r3, r3
 80011fc:	b91b      	cbnz	r3, 8001206 <HAL_SPI_TransmitReceive+0x174>
 80011fe:	8fe3      	ldrh	r3, [r4, #62]	; 0x3e
 8001200:	b29b      	uxth	r3, r3
 8001202:	2b00      	cmp	r3, #0
 8001204:	d0a4      	beq.n	8001150 <HAL_SPI_TransmitReceive+0xbe>
      if ((__HAL_SPI_GET_FLAG(hspi, SPI_FLAG_TXE)) && (hspi->TxXferCount > 0U) && (txallowed == 1U))
 8001206:	6822      	ldr	r2, [r4, #0]
 8001208:	6893      	ldr	r3, [r2, #8]
 800120a:	0798      	lsls	r0, r3, #30
 800120c:	d50e      	bpl.n	800122c <HAL_SPI_TransmitReceive+0x19a>
 800120e:	8ee3      	ldrh	r3, [r4, #54]	; 0x36
 8001210:	b29b      	uxth	r3, r3
 8001212:	b15b      	cbz	r3, 800122c <HAL_SPI_TransmitReceive+0x19a>
 8001214:	b155      	cbz	r5, 800122c <HAL_SPI_TransmitReceive+0x19a>
        *(__IO uint8_t *)&hspi->Instance->DR = (*hspi->pTxBuffPtr);
 8001216:	6b23      	ldr	r3, [r4, #48]	; 0x30
 8001218:	781b      	ldrb	r3, [r3, #0]
 800121a:	7313      	strb	r3, [r2, #12]
        hspi->pTxBuffPtr++;
 800121c:	6b23      	ldr	r3, [r4, #48]	; 0x30
 800121e:	3301      	adds	r3, #1
 8001220:	6323      	str	r3, [r4, #48]	; 0x30
        hspi->TxXferCount--;
 8001222:	8ee3      	ldrh	r3, [r4, #54]	; 0x36
 8001224:	3b01      	subs	r3, #1
 8001226:	b29b      	uxth	r3, r3
 8001228:	86e3      	strh	r3, [r4, #54]	; 0x36
        txallowed = 0U;
 800122a:	2500      	movs	r5, #0
      if ((__HAL_SPI_GET_FLAG(hspi, SPI_FLAG_RXNE)) && (hspi->RxXferCount > 0U))
 800122c:	6822      	ldr	r2, [r4, #0]
 800122e:	6893      	ldr	r3, [r2, #8]
 8001230:	07d9      	lsls	r1, r3, #31
 8001232:	d50d      	bpl.n	8001250 <HAL_SPI_TransmitReceive+0x1be>
 8001234:	8fe3      	ldrh	r3, [r4, #62]	; 0x3e
 8001236:	b29b      	uxth	r3, r3
 8001238:	b153      	cbz	r3, 8001250 <HAL_SPI_TransmitReceive+0x1be>
        (*(uint8_t *)hspi->pRxBuffPtr) = hspi->Instance->DR;
 800123a:	6ba3      	ldr	r3, [r4, #56]	; 0x38
 800123c:	68d2      	ldr	r2, [r2, #12]
 800123e:	701a      	strb	r2, [r3, #0]
        hspi->pRxBuffPtr++;
 8001240:	6ba3      	ldr	r3, [r4, #56]	; 0x38
 8001242:	3301      	adds	r3, #1
 8001244:	63a3      	str	r3, [r4, #56]	; 0x38
        hspi->RxXferCount--;
 8001246:	8fe3      	ldrh	r3, [r4, #62]	; 0x3e
 8001248:	3b01      	subs	r3, #1
 800124a:	b29b      	uxth	r3, r3
 800124c:	87e3      	strh	r3, [r4, #62]	; 0x3e
        txallowed = 1U;
 800124e:	2501      	movs	r5, #1
      if ((((HAL_GetTick() - tickstart) >=  Timeout) && ((Timeout != HAL_MAX_DELAY))) || (Timeout == 0U))
 8001250:	f7ff f98c 	bl	800056c <HAL_GetTick>
 8001254:	eba0 0008 	sub.w	r0, r0, r8
 8001258:	4287      	cmp	r7, r0
 800125a:	d8cd      	bhi.n	80011f8 <HAL_SPI_TransmitReceive+0x166>
 800125c:	1c7b      	adds	r3, r7, #1
 800125e:	d0cb      	beq.n	80011f8 <HAL_SPI_TransmitReceive+0x166>
 8001260:	e7b3      	b.n	80011ca <HAL_SPI_TransmitReceive+0x138>
    hspi->ErrorCode = HAL_SPI_ERROR_FLAG;
 8001262:	2320      	movs	r3, #32
 8001264:	6563      	str	r3, [r4, #84]	; 0x54
    errorcode = HAL_ERROR;
 8001266:	2001      	movs	r0, #1
 8001268:	e7b0      	b.n	80011cc <HAL_SPI_TransmitReceive+0x13a>
    errorcode = HAL_BUSY;
 800126a:	2002      	movs	r0, #2
 800126c:	e7ae      	b.n	80011cc <HAL_SPI_TransmitReceive+0x13a>
  __HAL_LOCK(hspi);
 800126e:	2002      	movs	r0, #2
 8001270:	e7b2      	b.n	80011d8 <HAL_SPI_TransmitReceive+0x146>

08001272 <HAL_SPI_Receive>:
{
 8001272:	e92d 41f3 	stmdb	sp!, {r0, r1, r4, r5, r6, r7, r8, lr}
 8001276:	461d      	mov	r5, r3
  if ((hspi->Init.Mode == SPI_MODE_MASTER) && (hspi->Init.Direction == SPI_DIRECTION_2LINES))
 8001278:	6843      	ldr	r3, [r0, #4]
 800127a:	f5b3 7f82 	cmp.w	r3, #260	; 0x104
{
 800127e:	4604      	mov	r4, r0
 8001280:	4688      	mov	r8, r1
 8001282:	4617      	mov	r7, r2
  if ((hspi->Init.Mode == SPI_MODE_MASTER) && (hspi->Init.Direction == SPI_DIRECTION_2LINES))
 8001284:	d10c      	bne.n	80012a0 <HAL_SPI_Receive+0x2e>
 8001286:	6883      	ldr	r3, [r0, #8]
 8001288:	b953      	cbnz	r3, 80012a0 <HAL_SPI_Receive+0x2e>
    hspi->State = HAL_SPI_STATE_BUSY_RX;
 800128a:	2304      	movs	r3, #4
 800128c:	f880 3051 	strb.w	r3, [r0, #81]	; 0x51
    return HAL_SPI_TransmitReceive(hspi, pData, pData, Size, Timeout);
 8001290:	4613      	mov	r3, r2
 8001292:	9500      	str	r5, [sp, #0]
 8001294:	460a      	mov	r2, r1
 8001296:	f7ff fefc 	bl	8001092 <HAL_SPI_TransmitReceive>
}
 800129a:	b002      	add	sp, #8
 800129c:	e8bd 81f0 	ldmia.w	sp!, {r4, r5, r6, r7, r8, pc}
  __HAL_LOCK(hspi);
 80012a0:	f894 3050 	ldrb.w	r3, [r4, #80]	; 0x50
 80012a4:	2b01      	cmp	r3, #1
 80012a6:	d079      	beq.n	800139c <HAL_SPI_Receive+0x12a>
 80012a8:	2301      	movs	r3, #1
 80012aa:	f884 3050 	strb.w	r3, [r4, #80]	; 0x50
  tickstart = HAL_GetTick();
 80012ae:	f7ff f95d 	bl	800056c <HAL_GetTick>
 80012b2:	4606      	mov	r6, r0
  if (hspi->State != HAL_SPI_STATE_READY)
 80012b4:	f894 0051 	ldrb.w	r0, [r4, #81]	; 0x51
 80012b8:	b2c0      	uxtb	r0, r0
 80012ba:	2801      	cmp	r0, #1
 80012bc:	d16c      	bne.n	8001398 <HAL_SPI_Receive+0x126>
  if ((pData == NULL) || (Size == 0U))
 80012be:	f1b8 0f00 	cmp.w	r8, #0
 80012c2:	d057      	beq.n	8001374 <HAL_SPI_Receive+0x102>
 80012c4:	2f00      	cmp	r7, #0
 80012c6:	d055      	beq.n	8001374 <HAL_SPI_Receive+0x102>
  hspi->State       = HAL_SPI_STATE_BUSY_RX;
 80012c8:	2304      	movs	r3, #4
 80012ca:	f884 3051 	strb.w	r3, [r4, #81]	; 0x51
  hspi->ErrorCode   = HAL_SPI_ERROR_NONE;
 80012ce:	2300      	movs	r3, #0
 80012d0:	6563      	str	r3, [r4, #84]	; 0x54
  hspi->pTxBuffPtr  = (uint8_t *)NULL;
 80012d2:	6323      	str	r3, [r4, #48]	; 0x30
  hspi->RxXferCount = Size;
 80012d4:	87e7      	strh	r7, [r4, #62]	; 0x3e
  hspi->TxXferSize  = 0U;
 80012d6:	86a3      	strh	r3, [r4, #52]	; 0x34
  hspi->TxXferCount = 0U;
 80012d8:	86e3      	strh	r3, [r4, #54]	; 0x36
  hspi->RxISR       = NULL;
 80012da:	6423      	str	r3, [r4, #64]	; 0x40
  hspi->TxISR       = NULL;
 80012dc:	6463      	str	r3, [r4, #68]	; 0x44
  if (hspi->Init.Direction == SPI_DIRECTION_1LINE)
 80012de:	68a3      	ldr	r3, [r4, #8]
  hspi->RxXferSize  = Size;
 80012e0:	87a7      	strh	r7, [r4, #60]	; 0x3c
  if (hspi->Init.Direction == SPI_DIRECTION_1LINE)
 80012e2:	f5b3 4f00 	cmp.w	r3, #32768	; 0x8000
 80012e6:	6823      	ldr	r3, [r4, #0]
  hspi->pRxBuffPtr  = (uint8_t *)pData;
 80012e8:	f8c4 8038 	str.w	r8, [r4, #56]	; 0x38
    SPI_1LINE_RX(hspi);
 80012ec:	bf02      	ittt	eq
 80012ee:	681a      	ldreq	r2, [r3, #0]
 80012f0:	f422 4280 	biceq.w	r2, r2, #16384	; 0x4000
 80012f4:	601a      	streq	r2, [r3, #0]
  if ((hspi->Instance->CR1 & SPI_CR1_SPE) != SPI_CR1_SPE)
 80012f6:	681a      	ldr	r2, [r3, #0]
 80012f8:	0657      	lsls	r7, r2, #25
    __HAL_SPI_ENABLE(hspi);
 80012fa:	bf5e      	ittt	pl
 80012fc:	681a      	ldrpl	r2, [r3, #0]
 80012fe:	f042 0240 	orrpl.w	r2, r2, #64	; 0x40
 8001302:	601a      	strpl	r2, [r3, #0]
  if (hspi->Init.DataSize == SPI_DATASIZE_8BIT)
 8001304:	68e3      	ldr	r3, [r4, #12]
 8001306:	b1f3      	cbz	r3, 8001346 <HAL_SPI_Receive+0xd4>
    while (hspi->RxXferCount > 0U)
 8001308:	8fe3      	ldrh	r3, [r4, #62]	; 0x3e
 800130a:	b29b      	uxth	r3, r3
 800130c:	b1fb      	cbz	r3, 800134e <HAL_SPI_Receive+0xdc>
      if (__HAL_SPI_GET_FLAG(hspi, SPI_FLAG_RXNE))
 800130e:	6823      	ldr	r3, [r4, #0]
 8001310:	689a      	ldr	r2, [r3, #8]
 8001312:	07d2      	lsls	r2, r2, #31
 8001314:	d535      	bpl.n	8001382 <HAL_SPI_Receive+0x110>
        *((uint16_t *)hspi->pRxBuffPtr) = (uint16_t)hspi->Instance->DR;
 8001316:	68da      	ldr	r2, [r3, #12]
 8001318:	6ba3      	ldr	r3, [r4, #56]	; 0x38
 800131a:	f823 2b02 	strh.w	r2, [r3], #2
        hspi->pRxBuffPtr += sizeof(uint16_t);
 800131e:	63a3      	str	r3, [r4, #56]	; 0x38
        hspi->RxXferCount--;
 8001320:	8fe3      	ldrh	r3, [r4, #62]	; 0x3e
 8001322:	3b01      	subs	r3, #1
 8001324:	b29b      	uxth	r3, r3
 8001326:	87e3      	strh	r3, [r4, #62]	; 0x3e
 8001328:	e7ee      	b.n	8001308 <HAL_SPI_Receive+0x96>
      if (__HAL_SPI_GET_FLAG(hspi, SPI_FLAG_RXNE))
 800132a:	6823      	ldr	r3, [r4, #0]
 800132c:	689a      	ldr	r2, [r3, #8]
 800132e:	07d0      	lsls	r0, r2, #31
 8001330:	d518      	bpl.n	8001364 <HAL_SPI_Receive+0xf2>
        (* (uint8_t *)hspi->pRxBuffPtr) = *(__IO uint8_t *)&hspi->Instance->DR;
 8001332:	6ba2      	ldr	r2, [r4, #56]	; 0x38
 8001334:	7b1b      	ldrb	r3, [r3, #12]
 8001336:	7013      	strb	r3, [r2, #0]
        hspi->pRxBuffPtr += sizeof(uint8_t);
 8001338:	6ba3      	ldr	r3, [r4, #56]	; 0x38
 800133a:	3301      	adds	r3, #1
 800133c:	63a3      	str	r3, [r4, #56]	; 0x38
        hspi->RxXferCount--;
 800133e:	8fe3      	ldrh	r3, [r4, #62]	; 0x3e
 8001340:	3b01      	subs	r3, #1
 8001342:	b29b      	uxth	r3, r3
 8001344:	87e3      	strh	r3, [r4, #62]	; 0x3e
    while (hspi->RxXferCount > 0U)
 8001346:	8fe3      	ldrh	r3, [r4, #62]	; 0x3e
 8001348:	b29b      	uxth	r3, r3
 800134a:	2b00      	cmp	r3, #0
 800134c:	d1ed      	bne.n	800132a <HAL_SPI_Receive+0xb8>
  if (SPI_EndRxTransaction(hspi, Timeout, tickstart) != HAL_OK)
 800134e:	4632      	mov	r2, r6
 8001350:	4629      	mov	r1, r5
 8001352:	4620      	mov	r0, r4
 8001354:	f7ff fd5f 	bl	8000e16 <SPI_EndRxTransaction>
 8001358:	b9d8      	cbnz	r0, 8001392 <HAL_SPI_Receive+0x120>
  if (hspi->ErrorCode != HAL_SPI_ERROR_NONE)
 800135a:	6d60      	ldr	r0, [r4, #84]	; 0x54
    errorcode = HAL_BUSY;
 800135c:	3000      	adds	r0, #0
 800135e:	bf18      	it	ne
 8001360:	2001      	movne	r0, #1
 8001362:	e007      	b.n	8001374 <HAL_SPI_Receive+0x102>
        if ((((HAL_GetTick() - tickstart) >=  Timeout) && (Timeout != HAL_MAX_DELAY)) || (Timeout == 0U))
 8001364:	f7ff f902 	bl	800056c <HAL_GetTick>
 8001368:	1b80      	subs	r0, r0, r6
 800136a:	4285      	cmp	r5, r0
 800136c:	d8eb      	bhi.n	8001346 <HAL_SPI_Receive+0xd4>
 800136e:	1c69      	adds	r1, r5, #1
 8001370:	d0e9      	beq.n	8001346 <HAL_SPI_Receive+0xd4>
          errorcode = HAL_TIMEOUT;
 8001372:	2003      	movs	r0, #3
  hspi->State = HAL_SPI_STATE_READY;
 8001374:	2301      	movs	r3, #1
 8001376:	f884 3051 	strb.w	r3, [r4, #81]	; 0x51
  __HAL_UNLOCK(hspi);
 800137a:	2300      	movs	r3, #0
 800137c:	f884 3050 	strb.w	r3, [r4, #80]	; 0x50
  return errorcode;
 8001380:	e78b      	b.n	800129a <HAL_SPI_Receive+0x28>
        if ((((HAL_GetTick() - tickstart) >=  Timeout) && (Timeout != HAL_MAX_DELAY)) || (Timeout == 0U))
 8001382:	f7ff f8f3 	bl	800056c <HAL_GetTick>
 8001386:	1b80      	subs	r0, r0, r6
 8001388:	4285      	cmp	r5, r0
 800138a:	d8bd      	bhi.n	8001308 <HAL_SPI_Receive+0x96>
 800138c:	1c6b      	adds	r3, r5, #1
 800138e:	d0bb      	beq.n	8001308 <HAL_SPI_Receive+0x96>
 8001390:	e7ef      	b.n	8001372 <HAL_SPI_Receive+0x100>
    hspi->ErrorCode = HAL_SPI_ERROR_FLAG;
 8001392:	2320      	movs	r3, #32
 8001394:	6563      	str	r3, [r4, #84]	; 0x54
 8001396:	e7e0      	b.n	800135a <HAL_SPI_Receive+0xe8>
    errorcode = HAL_BUSY;
 8001398:	2002      	movs	r0, #2
 800139a:	e7eb      	b.n	8001374 <HAL_SPI_Receive+0x102>
  __HAL_LOCK(hspi);
 800139c:	2002      	movs	r0, #2
 800139e:	e77c      	b.n	800129a <HAL_SPI_Receive+0x28>

080013a0 <HAL_TIM_PeriodElapsedCallback>:
 80013a0:	4770      	bx	lr

080013a2 <HAL_TIM_OC_DelayElapsedCallback>:
 80013a2:	4770      	bx	lr

080013a4 <HAL_TIM_IC_CaptureCallback>:
 80013a4:	4770      	bx	lr

080013a6 <HAL_TIM_PWM_PulseFinishedCallback>:
 80013a6:	4770      	bx	lr

080013a8 <HAL_TIM_TriggerCallback>:
 80013a8:	4770      	bx	lr

080013aa <HAL_TIM_IRQHandler>:
  * @retval None
  */
void HAL_TIM_IRQHandler(TIM_HandleTypeDef *htim)
{
  /* Capture compare 1 event */
  if (__HAL_TIM_GET_FLAG(htim, TIM_FLAG_CC1) != RESET)
 80013aa:	6803      	ldr	r3, [r0, #0]
 80013ac:	691a      	ldr	r2, [r3, #16]
 80013ae:	0791      	lsls	r1, r2, #30
{
 80013b0:	b510      	push	{r4, lr}
 80013b2:	4604      	mov	r4, r0
  if (__HAL_TIM_GET_FLAG(htim, TIM_FLAG_CC1) != RESET)
 80013b4:	d50e      	bpl.n	80013d4 <HAL_TIM_IRQHandler+0x2a>
  {
    if (__HAL_TIM_GET_IT_SOURCE(htim, TIM_IT_CC1) != RESET)
 80013b6:	68da      	ldr	r2, [r3, #12]
 80013b8:	0792      	lsls	r2, r2, #30
 80013ba:	d50b      	bpl.n	80013d4 <HAL_TIM_IRQHandler+0x2a>
    {
      {
        __HAL_TIM_CLEAR_IT(htim, TIM_IT_CC1);
 80013bc:	f06f 0202 	mvn.w	r2, #2
 80013c0:	611a      	str	r2, [r3, #16]
        htim->Channel = HAL_TIM_ACTIVE_CHANNEL_1;

        /* Input capture event */
        if ((htim->Instance->CCMR1 & TIM_CCMR1_CC1S) != 0x00U)
 80013c2:	699b      	ldr	r3, [r3, #24]
        htim->Channel = HAL_TIM_ACTIVE_CHANNEL_1;
 80013c4:	2201      	movs	r2, #1
        if ((htim->Instance->CCMR1 & TIM_CCMR1_CC1S) != 0x00U)
 80013c6:	079b      	lsls	r3, r3, #30
        htim->Channel = HAL_TIM_ACTIVE_CHANNEL_1;
 80013c8:	7702      	strb	r2, [r0, #28]
        if ((htim->Instance->CCMR1 & TIM_CCMR1_CC1S) != 0x00U)
 80013ca:	d077      	beq.n	80014bc <HAL_TIM_IRQHandler+0x112>
        {
#if (USE_HAL_TIM_REGISTER_CALLBACKS == 1)
          htim->IC_CaptureCallback(htim);
#else
          HAL_TIM_IC_CaptureCallback(htim);
 80013cc:	f7ff ffea 	bl	80013a4 <HAL_TIM_IC_CaptureCallback>
#else
          HAL_TIM_OC_DelayElapsedCallback(htim);
          HAL_TIM_PWM_PulseFinishedCallback(htim);
#endif /* USE_HAL_TIM_REGISTER_CALLBACKS */
        }
        htim->Channel = HAL_TIM_ACTIVE_CHANNEL_CLEARED;
 80013d0:	2300      	movs	r3, #0
 80013d2:	7723      	strb	r3, [r4, #28]
      }
    }
  }
  /* Capture compare 2 event */
  if (__HAL_TIM_GET_FLAG(htim, TIM_FLAG_CC2) != RESET)
 80013d4:	6823      	ldr	r3, [r4, #0]
 80013d6:	691a      	ldr	r2, [r3, #16]
 80013d8:	0750      	lsls	r0, r2, #29
 80013da:	d510      	bpl.n	80013fe <HAL_TIM_IRQHandler+0x54>
  {
    if (__HAL_TIM_GET_IT_SOURCE(htim, TIM_IT_CC2) != RESET)
 80013dc:	68da      	ldr	r2, [r3, #12]
 80013de:	0751      	lsls	r1, r2, #29
 80013e0:	d50d      	bpl.n	80013fe <HAL_TIM_IRQHandler+0x54>
    {
      __HAL_TIM_CLEAR_IT(htim, TIM_IT_CC2);
 80013e2:	f06f 0204 	mvn.w	r2, #4
 80013e6:	611a      	str	r2, [r3, #16]
      htim->Channel = HAL_TIM_ACTIVE_CHANNEL_2;
      /* Input capture event */
      if ((htim->Instance->CCMR1 & TIM_CCMR1_CC2S) != 0x00U)
 80013e8:	699b      	ldr	r3, [r3, #24]
      htim->Channel = HAL_TIM_ACTIVE_CHANNEL_2;
 80013ea:	2202      	movs	r2, #2
      if ((htim->Instance->CCMR1 & TIM_CCMR1_CC2S) != 0x00U)
 80013ec:	f413 7f40 	tst.w	r3, #768	; 0x300
      htim->Channel = HAL_TIM_ACTIVE_CHANNEL_2;
 80013f0:	7722      	strb	r2, [r4, #28]
      {
#if (USE_HAL_TIM_REGISTER_CALLBACKS == 1)
        htim->IC_CaptureCallback(htim);
#else
        HAL_TIM_IC_CaptureCallback(htim);
 80013f2:	4620      	mov	r0, r4
      if ((htim->Instance->CCMR1 & TIM_CCMR1_CC2S) != 0x00U)
 80013f4:	d068      	beq.n	80014c8 <HAL_TIM_IRQHandler+0x11e>
        HAL_TIM_IC_CaptureCallback(htim);
 80013f6:	f7ff ffd5 	bl	80013a4 <HAL_TIM_IC_CaptureCallback>
#else
        HAL_TIM_OC_DelayElapsedCallback(htim);
        HAL_TIM_PWM_PulseFinishedCallback(htim);
#endif /* USE_HAL_TIM_REGISTER_CALLBACKS */
      }
      htim->Channel = HAL_TIM_ACTIVE_CHANNEL_CLEARED;
 80013fa:	2300      	movs	r3, #0
 80013fc:	7723      	strb	r3, [r4, #28]
    }
  }
  /* Capture compare 3 event */
  if (__HAL_TIM_GET_FLAG(htim, TIM_FLAG_CC3) != RESET)
 80013fe:	6823      	ldr	r3, [r4, #0]
 8001400:	691a      	ldr	r2, [r3, #16]
 8001402:	0712      	lsls	r2, r2, #28
 8001404:	d50f      	bpl.n	8001426 <HAL_TIM_IRQHandler+0x7c>
  {
    if (__HAL_TIM_GET_IT_SOURCE(htim, TIM_IT_CC3) != RESET)
 8001406:	68da      	ldr	r2, [r3, #12]
 8001408:	0710      	lsls	r0, r2, #28
 800140a:	d50c      	bpl.n	8001426 <HAL_TIM_IRQHandler+0x7c>
    {
      __HAL_TIM_CLEAR_IT(htim, TIM_IT_CC3);
 800140c:	f06f 0208 	mvn.w	r2, #8
 8001410:	611a      	str	r2, [r3, #16]
      htim->Channel = HAL_TIM_ACTIVE_CHANNEL_3;
      /* Input capture event */
      if ((htim->Instance->CCMR2 & TIM_CCMR2_CC3S) != 0x00U)
 8001412:	69db      	ldr	r3, [r3, #28]
      htim->Channel = HAL_TIM_ACTIVE_CHANNEL_3;
 8001414:	2204      	movs	r2, #4
      if ((htim->Instance->CCMR2 & TIM_CCMR2_CC3S) != 0x00U)
 8001416:	0799      	lsls	r1, r3, #30
      htim->Channel = HAL_TIM_ACTIVE_CHANNEL_3;
 8001418:	7722      	strb	r2, [r4, #28]
      {
#if (USE_HAL_TIM_REGISTER_CALLBACKS == 1)
        htim->IC_CaptureCallback(htim);
#else
        HAL_TIM_IC_CaptureCallback(htim);
 800141a:	4620      	mov	r0, r4
      if ((htim->Instance->CCMR2 & TIM_CCMR2_CC3S) != 0x00U)
 800141c:	d05a      	beq.n	80014d4 <HAL_TIM_IRQHandler+0x12a>
        HAL_TIM_IC_CaptureCallback(htim);
 800141e:	f7ff ffc1 	bl	80013a4 <HAL_TIM_IC_CaptureCallback>
#else
        HAL_TIM_OC_DelayElapsedCallback(htim);
        HAL_TIM_PWM_PulseFinishedCallback(htim);
#endif /* USE_HAL_TIM_REGISTER_CALLBACKS */
      }
      htim->Channel = HAL_TIM_ACTIVE_CHANNEL_CLEARED;
 8001422:	2300      	movs	r3, #0
 8001424:	7723      	strb	r3, [r4, #28]
    }
  }
  /* Capture compare 4 event */
  if (__HAL_TIM_GET_FLAG(htim, TIM_FLAG_CC4) != RESET)
 8001426:	6823      	ldr	r3, [r4, #0]
 8001428:	691a      	ldr	r2, [r3, #16]
 800142a:	06d2      	lsls	r2, r2, #27
 800142c:	d510      	bpl.n	8001450 <HAL_TIM_IRQHandler+0xa6>
  {
    if (__HAL_TIM_GET_IT_SOURCE(htim, TIM_IT_CC4) != RESET)
 800142e:	68da      	ldr	r2, [r3, #12]
 8001430:	06d0      	lsls	r0, r2, #27
 8001432:	d50d      	bpl.n	8001450 <HAL_TIM_IRQHandler+0xa6>
    {
      __HAL_TIM_CLEAR_IT(htim, TIM_IT_CC4);
 8001434:	f06f 0210 	mvn.w	r2, #16
 8001438:	611a      	str	r2, [r3, #16]
      htim->Channel = HAL_TIM_ACTIVE_CHANNEL_4;
      /* Input capture event */
      if ((htim->Instance->CCMR2 & TIM_CCMR2_CC4S) != 0x00U)
 800143a:	69db      	ldr	r3, [r3, #28]
      htim->Channel = HAL_TIM_ACTIVE_CHANNEL_4;
 800143c:	2208      	movs	r2, #8
      if ((htim->Instance->CCMR2 & TIM_CCMR2_CC4S) != 0x00U)
 800143e:	f413 7f40 	tst.w	r3, #768	; 0x300
      htim->Channel = HAL_TIM_ACTIVE_CHANNEL_4;
 8001442:	7722      	strb	r2, [r4, #28]
      {
#if (USE_HAL_TIM_REGISTER_CALLBACKS == 1)
        htim->IC_CaptureCallback(htim);
#else
        HAL_TIM_IC_CaptureCallback(htim);
 8001444:	4620      	mov	r0, r4
      if ((htim->Instance->CCMR2 & TIM_CCMR2_CC4S) != 0x00U)
 8001446:	d04b      	beq.n	80014e0 <HAL_TIM_IRQHandler+0x136>
        HAL_TIM_IC_CaptureCallback(htim);
 8001448:	f7ff ffac 	bl	80013a4 <HAL_TIM_IC_CaptureCallback>
#else
        HAL_TIM_OC_DelayElapsedCallback(htim);
        HAL_TIM_PWM_PulseFinishedCallback(htim);
#endif /* USE_HAL_TIM_REGISTER_CALLBACKS */
      }
      htim->Channel = HAL_TIM_ACTIVE_CHANNEL_CLEARED;
 800144c:	2300      	movs	r3, #0
 800144e:	7723      	strb	r3, [r4, #28]
    }
  }
  /* TIM Update event */
  if (__HAL_TIM_GET_FLAG(htim, TIM_FLAG_UPDATE) != RESET)
 8001450:	6823      	ldr	r3, [r4, #0]
 8001452:	691a      	ldr	r2, [r3, #16]
 8001454:	07d1      	lsls	r1, r2, #31
 8001456:	d508      	bpl.n	800146a <HAL_TIM_IRQHandler+0xc0>
  {
    if (__HAL_TIM_GET_IT_SOURCE(htim, TIM_IT_UPDATE) != RESET)
 8001458:	68da      	ldr	r2, [r3, #12]
 800145a:	07d2      	lsls	r2, r2, #31
 800145c:	d505      	bpl.n	800146a <HAL_TIM_IRQHandler+0xc0>
    {
      __HAL_TIM_CLEAR_IT(htim, TIM_IT_UPDATE);
 800145e:	f06f 0201 	mvn.w	r2, #1
 8001462:	611a      	str	r2, [r3, #16]
#if (USE_HAL_TIM_REGISTER_CALLBACKS == 1)
      htim->PeriodElapsedCallback(htim);
#else
      HAL_TIM_PeriodElapsedCallback(htim);
 8001464:	4620      	mov	r0, r4
 8001466:	f7ff ff9b 	bl	80013a0 <HAL_TIM_PeriodElapsedCallback>
#endif /* USE_HAL_TIM_REGISTER_CALLBACKS */
    }
  }
  /* TIM Break input event */
  if (__HAL_TIM_GET_FLAG(htim, TIM_FLAG_BREAK) != RESET)
 800146a:	6823      	ldr	r3, [r4, #0]
 800146c:	691a      	ldr	r2, [r3, #16]
 800146e:	0610      	lsls	r0, r2, #24
 8001470:	d508      	bpl.n	8001484 <HAL_TIM_IRQHandler+0xda>
  {
    if (__HAL_TIM_GET_IT_SOURCE(htim, TIM_IT_BREAK) != RESET)
 8001472:	68da      	ldr	r2, [r3, #12]
 8001474:	0611      	lsls	r1, r2, #24
 8001476:	d505      	bpl.n	8001484 <HAL_TIM_IRQHandler+0xda>
    {
      __HAL_TIM_CLEAR_IT(htim, TIM_IT_BREAK);
 8001478:	f06f 0280 	mvn.w	r2, #128	; 0x80
 800147c:	611a      	str	r2, [r3, #16]
#if (USE_HAL_TIM_REGISTER_CALLBACKS == 1)
      htim->BreakCallback(htim);
#else
      HAL_TIMEx_BreakCallback(htim);
 800147e:	4620      	mov	r0, r4
 8001480:	f000 f997 	bl	80017b2 <HAL_TIMEx_BreakCallback>
#endif /* USE_HAL_TIM_REGISTER_CALLBACKS */
    }
  }
  /* TIM Trigger detection event */
  if (__HAL_TIM_GET_FLAG(htim, TIM_FLAG_TRIGGER) != RESET)
 8001484:	6823      	ldr	r3, [r4, #0]
 8001486:	691a      	ldr	r2, [r3, #16]
 8001488:	0652      	lsls	r2, r2, #25
 800148a:	d508      	bpl.n	800149e <HAL_TIM_IRQHandler+0xf4>
  {
    if (__HAL_TIM_GET_IT_SOURCE(htim, TIM_IT_TRIGGER) != RESET)
 800148c:	68da      	ldr	r2, [r3, #12]
 800148e:	0650      	lsls	r0, r2, #25
 8001490:	d505      	bpl.n	800149e <HAL_TIM_IRQHandler+0xf4>
    {
      __HAL_TIM_CLEAR_IT(htim, TIM_IT_TRIGGER);
 8001492:	f06f 0240 	mvn.w	r2, #64	; 0x40
 8001496:	611a      	str	r2, [r3, #16]
#if (USE_HAL_TIM_REGISTER_CALLBACKS == 1)
      htim->TriggerCallback(htim);
#else
      HAL_TIM_TriggerCallback(htim);
 8001498:	4620      	mov	r0, r4
 800149a:	f7ff ff85 	bl	80013a8 <HAL_TIM_TriggerCallback>
#endif /* USE_HAL_TIM_REGISTER_CALLBACKS */
    }
  }
  /* TIM commutation event */
  if (__HAL_TIM_GET_FLAG(htim, TIM_FLAG_COM) != RESET)
 800149e:	6823      	ldr	r3, [r4, #0]
 80014a0:	691a      	ldr	r2, [r3, #16]
 80014a2:	0691      	lsls	r1, r2, #26
 80014a4:	d522      	bpl.n	80014ec <HAL_TIM_IRQHandler+0x142>
  {
    if (__HAL_TIM_GET_IT_SOURCE(htim, TIM_IT_COM) != RESET)
 80014a6:	68da      	ldr	r2, [r3, #12]
 80014a8:	0692      	lsls	r2, r2, #26
 80014aa:	d51f      	bpl.n	80014ec <HAL_TIM_IRQHandler+0x142>
    {
      __HAL_TIM_CLEAR_IT(htim, TIM_FLAG_COM);
 80014ac:	f06f 0220 	mvn.w	r2, #32
#if (USE_HAL_TIM_REGISTER_CALLBACKS == 1)
      htim->CommutationCallback(htim);
#else
      HAL_TIMEx_CommutCallback(htim);
 80014b0:	4620      	mov	r0, r4
      __HAL_TIM_CLEAR_IT(htim, TIM_FLAG_COM);
 80014b2:	611a      	str	r2, [r3, #16]
#endif /* USE_HAL_TIM_REGISTER_CALLBACKS */
    }
  }
}
 80014b4:	e8bd 4010 	ldmia.w	sp!, {r4, lr}
      HAL_TIMEx_CommutCallback(htim);
 80014b8:	f000 b97a 	b.w	80017b0 <HAL_TIMEx_CommutCallback>
          HAL_TIM_OC_DelayElapsedCallback(htim);
 80014bc:	f7ff ff71 	bl	80013a2 <HAL_TIM_OC_DelayElapsedCallback>
          HAL_TIM_PWM_PulseFinishedCallback(htim);
 80014c0:	4620      	mov	r0, r4
 80014c2:	f7ff ff70 	bl	80013a6 <HAL_TIM_PWM_PulseFinishedCallback>
 80014c6:	e783      	b.n	80013d0 <HAL_TIM_IRQHandler+0x26>
        HAL_TIM_OC_DelayElapsedCallback(htim);
 80014c8:	f7ff ff6b 	bl	80013a2 <HAL_TIM_OC_DelayElapsedCallback>
        HAL_TIM_PWM_PulseFinishedCallback(htim);
 80014cc:	4620      	mov	r0, r4
 80014ce:	f7ff ff6a 	bl	80013a6 <HAL_TIM_PWM_PulseFinishedCallback>
 80014d2:	e792      	b.n	80013fa <HAL_TIM_IRQHandler+0x50>
        HAL_TIM_OC_DelayElapsedCallback(htim);
 80014d4:	f7ff ff65 	bl	80013a2 <HAL_TIM_OC_DelayElapsedCallback>
        HAL_TIM_PWM_PulseFinishedCallback(htim);
 80014d8:	4620      	mov	r0, r4
 80014da:	f7ff ff64 	bl	80013a6 <HAL_TIM_PWM_PulseFinishedCallback>
 80014de:	e7a0      	b.n	8001422 <HAL_TIM_IRQHandler+0x78>
        HAL_TIM_OC_DelayElapsedCallback(htim);
 80014e0:	f7ff ff5f 	bl	80013a2 <HAL_TIM_OC_DelayElapsedCallback>
        HAL_TIM_PWM_PulseFinishedCallback(htim);
 80014e4:	4620      	mov	r0, r4
 80014e6:	f7ff ff5e 	bl	80013a6 <HAL_TIM_PWM_PulseFinishedCallback>
 80014ea:	e7af      	b.n	800144c <HAL_TIM_IRQHandler+0xa2>
 80014ec:	bd10      	pop	{r4, pc}
	...

080014f0 <TIM_Base_SetConfig>:
{
  uint32_t tmpcr1;
  tmpcr1 = TIMx->CR1;

  /* Set TIM Time Base Unit parameters ---------------------------------------*/
  if (IS_TIM_COUNTER_MODE_SELECT_INSTANCE(TIMx))
 80014f0:	4a30      	ldr	r2, [pc, #192]	; (80015b4 <TIM_Base_SetConfig+0xc4>)
  tmpcr1 = TIMx->CR1;
 80014f2:	6803      	ldr	r3, [r0, #0]
  if (IS_TIM_COUNTER_MODE_SELECT_INSTANCE(TIMx))
 80014f4:	4290      	cmp	r0, r2
 80014f6:	d012      	beq.n	800151e <TIM_Base_SetConfig+0x2e>
 80014f8:	f1b0 4f80 	cmp.w	r0, #1073741824	; 0x40000000
 80014fc:	d00f      	beq.n	800151e <TIM_Base_SetConfig+0x2e>
 80014fe:	f5a2 427c 	sub.w	r2, r2, #64512	; 0xfc00
 8001502:	4290      	cmp	r0, r2
 8001504:	d00b      	beq.n	800151e <TIM_Base_SetConfig+0x2e>
 8001506:	f502 6280 	add.w	r2, r2, #1024	; 0x400
 800150a:	4290      	cmp	r0, r2
 800150c:	d007      	beq.n	800151e <TIM_Base_SetConfig+0x2e>
 800150e:	f502 6280 	add.w	r2, r2, #1024	; 0x400
 8001512:	4290      	cmp	r0, r2
 8001514:	d003      	beq.n	800151e <TIM_Base_SetConfig+0x2e>
 8001516:	f502 4278 	add.w	r2, r2, #63488	; 0xf800
 800151a:	4290      	cmp	r0, r2
 800151c:	d119      	bne.n	8001552 <TIM_Base_SetConfig+0x62>
  {
    /* Select the Counter Mode */
    tmpcr1 &= ~(TIM_CR1_DIR | TIM_CR1_CMS);
    tmpcr1 |= Structure->CounterMode;
 800151e:	684a      	ldr	r2, [r1, #4]
    tmpcr1 &= ~(TIM_CR1_DIR | TIM_CR1_CMS);
 8001520:	f023 0370 	bic.w	r3, r3, #112	; 0x70
    tmpcr1 |= Structure->CounterMode;
 8001524:	4313      	orrs	r3, r2
  }

  if (IS_TIM_CLOCK_DIVISION_INSTANCE(TIMx))
 8001526:	4a23      	ldr	r2, [pc, #140]	; (80015b4 <TIM_Base_SetConfig+0xc4>)
 8001528:	4290      	cmp	r0, r2
 800152a:	d029      	beq.n	8001580 <TIM_Base_SetConfig+0x90>
 800152c:	f1b0 4f80 	cmp.w	r0, #1073741824	; 0x40000000
 8001530:	d026      	beq.n	8001580 <TIM_Base_SetConfig+0x90>
 8001532:	f5a2 427c 	sub.w	r2, r2, #64512	; 0xfc00
 8001536:	4290      	cmp	r0, r2
 8001538:	d022      	beq.n	8001580 <TIM_Base_SetConfig+0x90>
 800153a:	f502 6280 	add.w	r2, r2, #1024	; 0x400
 800153e:	4290      	cmp	r0, r2
 8001540:	d01e      	beq.n	8001580 <TIM_Base_SetConfig+0x90>
 8001542:	f502 6280 	add.w	r2, r2, #1024	; 0x400
 8001546:	4290      	cmp	r0, r2
 8001548:	d01a      	beq.n	8001580 <TIM_Base_SetConfig+0x90>
 800154a:	f502 4278 	add.w	r2, r2, #63488	; 0xf800
 800154e:	4290      	cmp	r0, r2
 8001550:	d016      	beq.n	8001580 <TIM_Base_SetConfig+0x90>
 8001552:	4a19      	ldr	r2, [pc, #100]	; (80015b8 <TIM_Base_SetConfig+0xc8>)
 8001554:	4290      	cmp	r0, r2
 8001556:	d013      	beq.n	8001580 <TIM_Base_SetConfig+0x90>
 8001558:	f502 6280 	add.w	r2, r2, #1024	; 0x400
 800155c:	4290      	cmp	r0, r2
 800155e:	d00f      	beq.n	8001580 <TIM_Base_SetConfig+0x90>
 8001560:	f502 6280 	add.w	r2, r2, #1024	; 0x400
 8001564:	4290      	cmp	r0, r2
 8001566:	d00b      	beq.n	8001580 <TIM_Base_SetConfig+0x90>
 8001568:	f5a2 3298 	sub.w	r2, r2, #77824	; 0x13000
 800156c:	4290      	cmp	r0, r2
 800156e:	d007      	beq.n	8001580 <TIM_Base_SetConfig+0x90>
 8001570:	f502 6280 	add.w	r2, r2, #1024	; 0x400
 8001574:	4290      	cmp	r0, r2
 8001576:	d003      	beq.n	8001580 <TIM_Base_SetConfig+0x90>
 8001578:	f502 6280 	add.w	r2, r2, #1024	; 0x400
 800157c:	4290      	cmp	r0, r2
 800157e:	d103      	bne.n	8001588 <TIM_Base_SetConfig+0x98>
  {
    /* Set the clock division */
    tmpcr1 &= ~TIM_CR1_CKD;
    tmpcr1 |= (uint32_t)Structure->ClockDivision;
 8001580:	68ca      	ldr	r2, [r1, #12]
    tmpcr1 &= ~TIM_CR1_CKD;
 8001582:	f423 7340 	bic.w	r3, r3, #768	; 0x300
    tmpcr1 |= (uint32_t)Structure->ClockDivision;
 8001586:	4313      	orrs	r3, r2
  }

  /* Set the auto-reload preload */
  MODIFY_REG(tmpcr1, TIM_CR1_ARPE, Structure->AutoReloadPreload);
 8001588:	694a      	ldr	r2, [r1, #20]
 800158a:	f023 0380 	bic.w	r3, r3, #128	; 0x80
 800158e:	4313      	orrs	r3, r2

  TIMx->CR1 = tmpcr1;
 8001590:	6003      	str	r3, [r0, #0]

  /* Set the Autoreload value */
  TIMx->ARR = (uint32_t)Structure->Period ;
 8001592:	688b      	ldr	r3, [r1, #8]
 8001594:	62c3      	str	r3, [r0, #44]	; 0x2c

  /* Set the Prescaler value */
  TIMx->PSC = Structure->Prescaler;
 8001596:	680b      	ldr	r3, [r1, #0]
 8001598:	6283      	str	r3, [r0, #40]	; 0x28

  if (IS_TIM_REPETITION_COUNTER_INSTANCE(TIMx))
 800159a:	4b06      	ldr	r3, [pc, #24]	; (80015b4 <TIM_Base_SetConfig+0xc4>)
 800159c:	4298      	cmp	r0, r3
 800159e:	d003      	beq.n	80015a8 <TIM_Base_SetConfig+0xb8>
 80015a0:	f503 6380 	add.w	r3, r3, #1024	; 0x400
 80015a4:	4298      	cmp	r0, r3
 80015a6:	d101      	bne.n	80015ac <TIM_Base_SetConfig+0xbc>
  {
    /* Set the Repetition Counter value */
    TIMx->RCR = Structure->RepetitionCounter;
 80015a8:	690b      	ldr	r3, [r1, #16]
 80015aa:	6303      	str	r3, [r0, #48]	; 0x30
  }

  /* Generate an update event to reload the Prescaler
     and the repetition counter (only for advanced timer) value immediately */
  TIMx->EGR = TIM_EGR_UG;
 80015ac:	2301      	movs	r3, #1
 80015ae:	6143      	str	r3, [r0, #20]
 80015b0:	4770      	bx	lr
 80015b2:	bf00      	nop
 80015b4:	40010000 	.word	0x40010000
 80015b8:	40014000 	.word	0x40014000

080015bc <HAL_TIM_Base_Init>:
{
 80015bc:	b510      	push	{r4, lr}
  if (htim == NULL)
 80015be:	4604      	mov	r4, r0
 80015c0:	b1a0      	cbz	r0, 80015ec <HAL_TIM_Base_Init+0x30>
  if (htim->State == HAL_TIM_STATE_RESET)
 80015c2:	f890 303d 	ldrb.w	r3, [r0, #61]	; 0x3d
 80015c6:	f003 02ff 	and.w	r2, r3, #255	; 0xff
 80015ca:	b91b      	cbnz	r3, 80015d4 <HAL_TIM_Base_Init+0x18>
    htim->Lock = HAL_UNLOCKED;
 80015cc:	f880 203c 	strb.w	r2, [r0, #60]	; 0x3c
    HAL_TIM_Base_MspInit(htim);
 80015d0:	f005 fd38 	bl	8007044 <HAL_TIM_Base_MspInit>
  htim->State = HAL_TIM_STATE_BUSY;
 80015d4:	2302      	movs	r3, #2
 80015d6:	f884 303d 	strb.w	r3, [r4, #61]	; 0x3d
  TIM_Base_SetConfig(htim->Instance, &htim->Init);
 80015da:	6820      	ldr	r0, [r4, #0]
 80015dc:	1d21      	adds	r1, r4, #4
 80015de:	f7ff ff87 	bl	80014f0 <TIM_Base_SetConfig>
  htim->State = HAL_TIM_STATE_READY;
 80015e2:	2301      	movs	r3, #1
 80015e4:	f884 303d 	strb.w	r3, [r4, #61]	; 0x3d
  return HAL_OK;
 80015e8:	2000      	movs	r0, #0
 80015ea:	bd10      	pop	{r4, pc}
    return HAL_ERROR;
 80015ec:	2001      	movs	r0, #1
}
 80015ee:	bd10      	pop	{r4, pc}

080015f0 <TIM_ETR_SetConfig>:
  *          This parameter must be a value between 0x00 and 0x0F
  * @retval None
  */
void TIM_ETR_SetConfig(TIM_TypeDef *TIMx, uint32_t TIM_ExtTRGPrescaler,
                       uint32_t TIM_ExtTRGPolarity, uint32_t ExtTRGFilter)
{
 80015f0:	b510      	push	{r4, lr}
  uint32_t tmpsmcr;

  tmpsmcr = TIMx->SMCR;
 80015f2:	6884      	ldr	r4, [r0, #8]

  /* Reset the ETR Bits */
  tmpsmcr &= ~(TIM_SMCR_ETF | TIM_SMCR_ETPS | TIM_SMCR_ECE | TIM_SMCR_ETP);

  /* Set the Prescaler, the Filter value and the Polarity */
  tmpsmcr |= (uint32_t)(TIM_ExtTRGPrescaler | (TIM_ExtTRGPolarity | (ExtTRGFilter << 8U)));
 80015f4:	430a      	orrs	r2, r1
  tmpsmcr &= ~(TIM_SMCR_ETF | TIM_SMCR_ETPS | TIM_SMCR_ECE | TIM_SMCR_ETP);
 80015f6:	f424 447f 	bic.w	r4, r4, #65280	; 0xff00
  tmpsmcr |= (uint32_t)(TIM_ExtTRGPrescaler | (TIM_ExtTRGPolarity | (ExtTRGFilter << 8U)));
 80015fa:	ea42 2303 	orr.w	r3, r2, r3, lsl #8
 80015fe:	4323      	orrs	r3, r4

  /* Write to TIMx SMCR */
  TIMx->SMCR = tmpsmcr;
 8001600:	6083      	str	r3, [r0, #8]
 8001602:	bd10      	pop	{r4, pc}

08001604 <HAL_TIM_ConfigClockSource>:
  __HAL_LOCK(htim);
 8001604:	f890 303c 	ldrb.w	r3, [r0, #60]	; 0x3c
 8001608:	2b01      	cmp	r3, #1
{
 800160a:	b570      	push	{r4, r5, r6, lr}
 800160c:	4604      	mov	r4, r0
 800160e:	f04f 0002 	mov.w	r0, #2
  __HAL_LOCK(htim);
 8001612:	d019      	beq.n	8001648 <HAL_TIM_ConfigClockSource+0x44>
  htim->State = HAL_TIM_STATE_BUSY;
 8001614:	f884 003d 	strb.w	r0, [r4, #61]	; 0x3d
  tmpsmcr = htim->Instance->SMCR;
 8001618:	6820      	ldr	r0, [r4, #0]
  __HAL_LOCK(htim);
 800161a:	2301      	movs	r3, #1
 800161c:	f884 303c 	strb.w	r3, [r4, #60]	; 0x3c
  tmpsmcr = htim->Instance->SMCR;
 8001620:	6883      	ldr	r3, [r0, #8]
  tmpsmcr &= ~(TIM_SMCR_ETF | TIM_SMCR_ETPS | TIM_SMCR_ECE | TIM_SMCR_ETP);
 8001622:	f423 437f 	bic.w	r3, r3, #65280	; 0xff00
 8001626:	f023 0377 	bic.w	r3, r3, #119	; 0x77
  htim->Instance->SMCR = tmpsmcr;
 800162a:	6083      	str	r3, [r0, #8]
  switch (sClockSourceConfig->ClockSource)
 800162c:	680b      	ldr	r3, [r1, #0]
 800162e:	2b40      	cmp	r3, #64	; 0x40
 8001630:	d065      	beq.n	80016fe <HAL_TIM_ConfigClockSource+0xfa>
 8001632:	d815      	bhi.n	8001660 <HAL_TIM_ConfigClockSource+0x5c>
 8001634:	2b10      	cmp	r3, #16
 8001636:	d00c      	beq.n	8001652 <HAL_TIM_ConfigClockSource+0x4e>
 8001638:	d807      	bhi.n	800164a <HAL_TIM_ConfigClockSource+0x46>
 800163a:	b153      	cbz	r3, 8001652 <HAL_TIM_ConfigClockSource+0x4e>
  htim->State = HAL_TIM_STATE_READY;
 800163c:	2301      	movs	r3, #1
  __HAL_UNLOCK(htim);
 800163e:	2000      	movs	r0, #0
  htim->State = HAL_TIM_STATE_READY;
 8001640:	f884 303d 	strb.w	r3, [r4, #61]	; 0x3d
  __HAL_UNLOCK(htim);
 8001644:	f884 003c 	strb.w	r0, [r4, #60]	; 0x3c
}
 8001648:	bd70      	pop	{r4, r5, r6, pc}
  switch (sClockSourceConfig->ClockSource)
 800164a:	2b20      	cmp	r3, #32
 800164c:	d001      	beq.n	8001652 <HAL_TIM_ConfigClockSource+0x4e>
 800164e:	2b30      	cmp	r3, #48	; 0x30
 8001650:	d1f4      	bne.n	800163c <HAL_TIM_ConfigClockSource+0x38>
  tmpsmcr = TIMx->SMCR;
 8001652:	6882      	ldr	r2, [r0, #8]
  tmpsmcr |= (InputTriggerSource | TIM_SLAVEMODE_EXTERNAL1);
 8001654:	f043 0307 	orr.w	r3, r3, #7
  tmpsmcr &= ~TIM_SMCR_TS;
 8001658:	f022 0270 	bic.w	r2, r2, #112	; 0x70
  tmpsmcr |= (InputTriggerSource | TIM_SLAVEMODE_EXTERNAL1);
 800165c:	4313      	orrs	r3, r2
 800165e:	e01a      	b.n	8001696 <HAL_TIM_ConfigClockSource+0x92>
  switch (sClockSourceConfig->ClockSource)
 8001660:	2b60      	cmp	r3, #96	; 0x60
 8001662:	d034      	beq.n	80016ce <HAL_TIM_ConfigClockSource+0xca>
 8001664:	d819      	bhi.n	800169a <HAL_TIM_ConfigClockSource+0x96>
 8001666:	2b50      	cmp	r3, #80	; 0x50
 8001668:	d1e8      	bne.n	800163c <HAL_TIM_ConfigClockSource+0x38>
      TIM_TI1_ConfigInputStage(htim->Instance,
 800166a:	684a      	ldr	r2, [r1, #4]
 800166c:	68ce      	ldr	r6, [r1, #12]
  tmpccer = TIMx->CCER;
 800166e:	6a01      	ldr	r1, [r0, #32]
  TIMx->CCER &= ~TIM_CCER_CC1E;
 8001670:	6a05      	ldr	r5, [r0, #32]
 8001672:	f025 0501 	bic.w	r5, r5, #1
 8001676:	6205      	str	r5, [r0, #32]
  tmpccmr1 = TIMx->CCMR1;
 8001678:	6983      	ldr	r3, [r0, #24]
  tmpccer &= ~(TIM_CCER_CC1P | TIM_CCER_CC1NP);
 800167a:	f021 010a 	bic.w	r1, r1, #10
  tmpccmr1 &= ~TIM_CCMR1_IC1F;
 800167e:	f023 03f0 	bic.w	r3, r3, #240	; 0xf0
  tmpccmr1 |= (TIM_ICFilter << 4U);
 8001682:	ea43 1306 	orr.w	r3, r3, r6, lsl #4
  tmpccer |= TIM_ICPolarity;
 8001686:	430a      	orrs	r2, r1
  TIMx->CCMR1 = tmpccmr1;
 8001688:	6183      	str	r3, [r0, #24]
  TIMx->CCER = tmpccer;
 800168a:	6202      	str	r2, [r0, #32]
  tmpsmcr = TIMx->SMCR;
 800168c:	6883      	ldr	r3, [r0, #8]
  tmpsmcr &= ~TIM_SMCR_TS;
 800168e:	f023 0370 	bic.w	r3, r3, #112	; 0x70
  tmpsmcr |= (InputTriggerSource | TIM_SLAVEMODE_EXTERNAL1);
 8001692:	f043 0357 	orr.w	r3, r3, #87	; 0x57
  TIMx->SMCR = tmpsmcr;
 8001696:	6083      	str	r3, [r0, #8]
 8001698:	e7d0      	b.n	800163c <HAL_TIM_ConfigClockSource+0x38>
  switch (sClockSourceConfig->ClockSource)
 800169a:	2b70      	cmp	r3, #112	; 0x70
 800169c:	d00c      	beq.n	80016b8 <HAL_TIM_ConfigClockSource+0xb4>
 800169e:	f5b3 5f00 	cmp.w	r3, #8192	; 0x2000
 80016a2:	d1cb      	bne.n	800163c <HAL_TIM_ConfigClockSource+0x38>
      TIM_ETR_SetConfig(htim->Instance,
 80016a4:	68cb      	ldr	r3, [r1, #12]
 80016a6:	684a      	ldr	r2, [r1, #4]
 80016a8:	6889      	ldr	r1, [r1, #8]
 80016aa:	f7ff ffa1 	bl	80015f0 <TIM_ETR_SetConfig>
      htim->Instance->SMCR |= TIM_SMCR_ECE;
 80016ae:	6822      	ldr	r2, [r4, #0]
 80016b0:	6893      	ldr	r3, [r2, #8]
 80016b2:	f443 4380 	orr.w	r3, r3, #16384	; 0x4000
 80016b6:	e008      	b.n	80016ca <HAL_TIM_ConfigClockSource+0xc6>
      TIM_ETR_SetConfig(htim->Instance,
 80016b8:	68cb      	ldr	r3, [r1, #12]
 80016ba:	684a      	ldr	r2, [r1, #4]
 80016bc:	6889      	ldr	r1, [r1, #8]
 80016be:	f7ff ff97 	bl	80015f0 <TIM_ETR_SetConfig>
      tmpsmcr = htim->Instance->SMCR;
 80016c2:	6822      	ldr	r2, [r4, #0]
 80016c4:	6893      	ldr	r3, [r2, #8]
      tmpsmcr |= (TIM_SLAVEMODE_EXTERNAL1 | TIM_CLOCKSOURCE_ETRMODE1);
 80016c6:	f043 0377 	orr.w	r3, r3, #119	; 0x77
      htim->Instance->SMCR |= TIM_SMCR_ECE;
 80016ca:	6093      	str	r3, [r2, #8]
      break;
 80016cc:	e7b6      	b.n	800163c <HAL_TIM_ConfigClockSource+0x38>
      TIM_TI2_ConfigInputStage(htim->Instance,
 80016ce:	684d      	ldr	r5, [r1, #4]
 80016d0:	68ce      	ldr	r6, [r1, #12]
  TIMx->CCER &= ~TIM_CCER_CC2E;
 80016d2:	6a01      	ldr	r1, [r0, #32]
 80016d4:	f021 0110 	bic.w	r1, r1, #16
 80016d8:	6201      	str	r1, [r0, #32]
  tmpccmr1 = TIMx->CCMR1;
 80016da:	6982      	ldr	r2, [r0, #24]
  tmpccer = TIMx->CCER;
 80016dc:	6a03      	ldr	r3, [r0, #32]
  tmpccmr1 &= ~TIM_CCMR1_IC2F;
 80016de:	f422 4270 	bic.w	r2, r2, #61440	; 0xf000
  tmpccer &= ~(TIM_CCER_CC2P | TIM_CCER_CC2NP);
 80016e2:	f023 03a0 	bic.w	r3, r3, #160	; 0xa0
  tmpccer |= (TIM_ICPolarity << 4U);
 80016e6:	ea43 1305 	orr.w	r3, r3, r5, lsl #4
  tmpccmr1 |= (TIM_ICFilter << 12U);
 80016ea:	ea42 3206 	orr.w	r2, r2, r6, lsl #12
  TIMx->CCMR1 = tmpccmr1 ;
 80016ee:	6182      	str	r2, [r0, #24]
  TIMx->CCER = tmpccer;
 80016f0:	6203      	str	r3, [r0, #32]
  tmpsmcr = TIMx->SMCR;
 80016f2:	6883      	ldr	r3, [r0, #8]
  tmpsmcr &= ~TIM_SMCR_TS;
 80016f4:	f023 0370 	bic.w	r3, r3, #112	; 0x70
  tmpsmcr |= (InputTriggerSource | TIM_SLAVEMODE_EXTERNAL1);
 80016f8:	f043 0367 	orr.w	r3, r3, #103	; 0x67
 80016fc:	e7cb      	b.n	8001696 <HAL_TIM_ConfigClockSource+0x92>
      TIM_TI1_ConfigInputStage(htim->Instance,
 80016fe:	684a      	ldr	r2, [r1, #4]
 8001700:	68ce      	ldr	r6, [r1, #12]
  tmpccer = TIMx->CCER;
 8001702:	6a01      	ldr	r1, [r0, #32]
  TIMx->CCER &= ~TIM_CCER_CC1E;
 8001704:	6a05      	ldr	r5, [r0, #32]
 8001706:	f025 0501 	bic.w	r5, r5, #1
 800170a:	6205      	str	r5, [r0, #32]
  tmpccmr1 = TIMx->CCMR1;
 800170c:	6983      	ldr	r3, [r0, #24]
  tmpccer &= ~(TIM_CCER_CC1P | TIM_CCER_CC1NP);
 800170e:	f021 010a 	bic.w	r1, r1, #10
  tmpccmr1 &= ~TIM_CCMR1_IC1F;
 8001712:	f023 03f0 	bic.w	r3, r3, #240	; 0xf0
  tmpccmr1 |= (TIM_ICFilter << 4U);
 8001716:	ea43 1306 	orr.w	r3, r3, r6, lsl #4
  tmpccer |= TIM_ICPolarity;
 800171a:	430a      	orrs	r2, r1
  TIMx->CCMR1 = tmpccmr1;
 800171c:	6183      	str	r3, [r0, #24]
  TIMx->CCER = tmpccer;
 800171e:	6202      	str	r2, [r0, #32]
  tmpsmcr = TIMx->SMCR;
 8001720:	6883      	ldr	r3, [r0, #8]
  tmpsmcr &= ~TIM_SMCR_TS;
 8001722:	f023 0370 	bic.w	r3, r3, #112	; 0x70
  tmpsmcr |= (InputTriggerSource | TIM_SLAVEMODE_EXTERNAL1);
 8001726:	f043 0347 	orr.w	r3, r3, #71	; 0x47
 800172a:	e7b4      	b.n	8001696 <HAL_TIM_ConfigClockSource+0x92>

0800172c <HAL_TIMEx_MasterConfigSynchronization>:
  assert_param(IS_TIM_MASTER_INSTANCE(htim->Instance));
  assert_param(IS_TIM_TRGO_SOURCE(sMasterConfig->MasterOutputTrigger));
  assert_param(IS_TIM_MSM_STATE(sMasterConfig->MasterSlaveMode));

  /* Check input state */
  __HAL_LOCK(htim);
 800172c:	f890 303c 	ldrb.w	r3, [r0, #60]	; 0x3c
 8001730:	2b01      	cmp	r3, #1
{
 8001732:	b530      	push	{r4, r5, lr}
 8001734:	f04f 0302 	mov.w	r3, #2
  __HAL_LOCK(htim);
 8001738:	d035      	beq.n	80017a6 <HAL_TIMEx_MasterConfigSynchronization+0x7a>

  /* Change the handler state */
  htim->State = HAL_TIM_STATE_BUSY;
 800173a:	f880 303d 	strb.w	r3, [r0, #61]	; 0x3d

  /* Get the TIMx CR2 register value */
  tmpcr2 = htim->Instance->CR2;
 800173e:	6803      	ldr	r3, [r0, #0]
  tmpsmcr = htim->Instance->SMCR;

  /* Reset the MMS Bits */
  tmpcr2 &= ~TIM_CR2_MMS;
  /* Select the TRGO source */
  tmpcr2 |=  sMasterConfig->MasterOutputTrigger;
 8001740:	680d      	ldr	r5, [r1, #0]
  tmpcr2 = htim->Instance->CR2;
 8001742:	685c      	ldr	r4, [r3, #4]
  tmpcr2 &= ~TIM_CR2_MMS;
 8001744:	f024 0470 	bic.w	r4, r4, #112	; 0x70
  __HAL_LOCK(htim);
 8001748:	2201      	movs	r2, #1
  tmpcr2 |=  sMasterConfig->MasterOutputTrigger;
 800174a:	432c      	orrs	r4, r5
  __HAL_LOCK(htim);
 800174c:	f880 203c 	strb.w	r2, [r0, #60]	; 0x3c
  tmpsmcr = htim->Instance->SMCR;
 8001750:	689a      	ldr	r2, [r3, #8]

  /* Update TIMx CR2 */
  htim->Instance->CR2 = tmpcr2;
 8001752:	605c      	str	r4, [r3, #4]

  if (IS_TIM_SLAVE_INSTANCE(htim->Instance))
 8001754:	4c15      	ldr	r4, [pc, #84]	; (80017ac <HAL_TIMEx_MasterConfigSynchronization+0x80>)
 8001756:	42a3      	cmp	r3, r4
 8001758:	d01a      	beq.n	8001790 <HAL_TIMEx_MasterConfigSynchronization+0x64>
 800175a:	f1b3 4f80 	cmp.w	r3, #1073741824	; 0x40000000
 800175e:	d017      	beq.n	8001790 <HAL_TIMEx_MasterConfigSynchronization+0x64>
 8001760:	f5a4 447c 	sub.w	r4, r4, #64512	; 0xfc00
 8001764:	42a3      	cmp	r3, r4
 8001766:	d013      	beq.n	8001790 <HAL_TIMEx_MasterConfigSynchronization+0x64>
 8001768:	f504 6480 	add.w	r4, r4, #1024	; 0x400
 800176c:	42a3      	cmp	r3, r4
 800176e:	d00f      	beq.n	8001790 <HAL_TIMEx_MasterConfigSynchronization+0x64>
 8001770:	f504 6480 	add.w	r4, r4, #1024	; 0x400
 8001774:	42a3      	cmp	r3, r4
 8001776:	d00b      	beq.n	8001790 <HAL_TIMEx_MasterConfigSynchronization+0x64>
 8001778:	f504 4478 	add.w	r4, r4, #63488	; 0xf800
 800177c:	42a3      	cmp	r3, r4
 800177e:	d007      	beq.n	8001790 <HAL_TIMEx_MasterConfigSynchronization+0x64>
 8001780:	f504 5470 	add.w	r4, r4, #15360	; 0x3c00
 8001784:	42a3      	cmp	r3, r4
 8001786:	d003      	beq.n	8001790 <HAL_TIMEx_MasterConfigSynchronization+0x64>
 8001788:	f5a4 3494 	sub.w	r4, r4, #75776	; 0x12800
 800178c:	42a3      	cmp	r3, r4
 800178e:	d104      	bne.n	800179a <HAL_TIMEx_MasterConfigSynchronization+0x6e>
  {
    /* Reset the MSM Bit */
    tmpsmcr &= ~TIM_SMCR_MSM;
    /* Set master mode */
    tmpsmcr |= sMasterConfig->MasterSlaveMode;
 8001790:	6849      	ldr	r1, [r1, #4]
    tmpsmcr &= ~TIM_SMCR_MSM;
 8001792:	f022 0280 	bic.w	r2, r2, #128	; 0x80
    tmpsmcr |= sMasterConfig->MasterSlaveMode;
 8001796:	430a      	orrs	r2, r1

    /* Update TIMx SMCR */
    htim->Instance->SMCR = tmpsmcr;
 8001798:	609a      	str	r2, [r3, #8]
  }

  /* Change the htim state */
  htim->State = HAL_TIM_STATE_READY;
 800179a:	2301      	movs	r3, #1
 800179c:	f880 303d 	strb.w	r3, [r0, #61]	; 0x3d

  __HAL_UNLOCK(htim);
 80017a0:	2300      	movs	r3, #0
 80017a2:	f880 303c 	strb.w	r3, [r0, #60]	; 0x3c
  __HAL_LOCK(htim);
 80017a6:	4618      	mov	r0, r3

  return HAL_OK;
}
 80017a8:	bd30      	pop	{r4, r5, pc}
 80017aa:	bf00      	nop
 80017ac:	40010000 	.word	0x40010000

080017b0 <HAL_TIMEx_CommutCallback>:
 80017b0:	4770      	bx	lr

080017b2 <HAL_TIMEx_BreakCallback>:
  * @brief  Hall Break detection callback in non-blocking mode
  * @param  htim TIM handle
  * @retval None
  */
__weak void HAL_TIMEx_BreakCallback(TIM_HandleTypeDef *htim)
{
 80017b2:	4770      	bx	lr

080017b4 <UART_SetConfig>:
  * @param  huart  Pointer to a UART_HandleTypeDef structure that contains
  *                the configuration information for the specified UART module.
  * @retval None
  */
static void UART_SetConfig(UART_HandleTypeDef *huart)
{
 80017b4:	b538      	push	{r3, r4, r5, lr}
  assert_param(IS_UART_MODE(huart->Init.Mode));

  /*-------------------------- USART CR2 Configuration -----------------------*/
  /* Configure the UART Stop Bits: Set STOP[13:12] bits
     according to huart->Init.StopBits value */
  MODIFY_REG(huart->Instance->CR2, USART_CR2_STOP, huart->Init.StopBits);
 80017b6:	6803      	ldr	r3, [r0, #0]
 80017b8:	68c1      	ldr	r1, [r0, #12]
 80017ba:	691a      	ldr	r2, [r3, #16]
{
 80017bc:	4604      	mov	r4, r0
  MODIFY_REG(huart->Instance->CR2, USART_CR2_STOP, huart->Init.StopBits);
 80017be:	f422 5240 	bic.w	r2, r2, #12288	; 0x3000
 80017c2:	430a      	orrs	r2, r1
 80017c4:	611a      	str	r2, [r3, #16]
     Set the M bits according to huart->Init.WordLength value
     Set PCE and PS bits according to huart->Init.Parity value
     Set TE and RE bits according to huart->Init.Mode value
     Set OVER8 bit according to huart->Init.OverSampling value */

  tmpreg = (uint32_t)huart->Init.WordLength | huart->Init.Parity | huart->Init.Mode | huart->Init.OverSampling;
 80017c6:	6925      	ldr	r5, [r4, #16]
 80017c8:	68a2      	ldr	r2, [r4, #8]
  MODIFY_REG(huart->Instance->CR1,
 80017ca:	68d9      	ldr	r1, [r3, #12]
  tmpreg = (uint32_t)huart->Init.WordLength | huart->Init.Parity | huart->Init.Mode | huart->Init.OverSampling;
 80017cc:	69c0      	ldr	r0, [r0, #28]
 80017ce:	432a      	orrs	r2, r5
 80017d0:	6965      	ldr	r5, [r4, #20]
  MODIFY_REG(huart->Instance->CR1,
 80017d2:	f421 4116 	bic.w	r1, r1, #38400	; 0x9600
  tmpreg = (uint32_t)huart->Init.WordLength | huart->Init.Parity | huart->Init.Mode | huart->Init.OverSampling;
 80017d6:	432a      	orrs	r2, r5
  MODIFY_REG(huart->Instance->CR1,
 80017d8:	f021 010c 	bic.w	r1, r1, #12
  tmpreg = (uint32_t)huart->Init.WordLength | huart->Init.Parity | huart->Init.Mode | huart->Init.OverSampling;
 80017dc:	4302      	orrs	r2, r0
  MODIFY_REG(huart->Instance->CR1,
 80017de:	430a      	orrs	r2, r1
 80017e0:	60da      	str	r2, [r3, #12]
             (uint32_t)(USART_CR1_M | USART_CR1_PCE | USART_CR1_PS | USART_CR1_TE | USART_CR1_RE | USART_CR1_OVER8),
             tmpreg);

  /*-------------------------- USART CR3 Configuration -----------------------*/
  /* Configure the UART HFC: Set CTSE and RTSE bits according to huart->Init.HwFlowCtl value */
  MODIFY_REG(huart->Instance->CR3, (USART_CR3_RTSE | USART_CR3_CTSE), huart->Init.HwFlowCtl);
 80017e2:	695a      	ldr	r2, [r3, #20]
 80017e4:	69a1      	ldr	r1, [r4, #24]
 80017e6:	f422 7240 	bic.w	r2, r2, #768	; 0x300
 80017ea:	430a      	orrs	r2, r1

  /* Check the Over Sampling */
  if (huart->Init.OverSampling == UART_OVERSAMPLING_8)
 80017ec:	f5b0 4f00 	cmp.w	r0, #32768	; 0x8000
  MODIFY_REG(huart->Instance->CR3, (USART_CR3_RTSE | USART_CR3_CTSE), huart->Init.HwFlowCtl);
 80017f0:	615a      	str	r2, [r3, #20]
 80017f2:	4a25      	ldr	r2, [pc, #148]	; (8001888 <UART_SetConfig+0xd4>)
  if (huart->Init.OverSampling == UART_OVERSAMPLING_8)
 80017f4:	d129      	bne.n	800184a <UART_SetConfig+0x96>
    {
      pclk = HAL_RCC_GetPCLK2Freq();
      huart->Instance->BRR = UART_BRR_SAMPLING8(pclk, huart->Init.BaudRate);
    }
#elif defined(USART6)
    if ((huart->Instance == USART1) || (huart->Instance == USART6))
 80017f6:	4293      	cmp	r3, r2
 80017f8:	d003      	beq.n	8001802 <UART_SetConfig+0x4e>
 80017fa:	f502 6280 	add.w	r2, r2, #1024	; 0x400
 80017fe:	4293      	cmp	r3, r2
 8001800:	d120      	bne.n	8001844 <UART_SetConfig+0x90>
    {
      pclk = HAL_RCC_GetPCLK2Freq();
 8001802:	f7ff fabd 	bl	8000d80 <HAL_RCC_GetPCLK2Freq>
    }
#endif /* USART6 */
    else
    {
      pclk = HAL_RCC_GetPCLK1Freq();
      huart->Instance->BRR = UART_BRR_SAMPLING8(pclk, huart->Init.BaudRate);
 8001806:	6862      	ldr	r2, [r4, #4]
 8001808:	6825      	ldr	r5, [r4, #0]
 800180a:	1892      	adds	r2, r2, r2
 800180c:	f04f 0300 	mov.w	r3, #0
 8001810:	f04f 0119 	mov.w	r1, #25
 8001814:	415b      	adcs	r3, r3
 8001816:	fba0 0101 	umull	r0, r1, r0, r1
 800181a:	f7fe fcd5 	bl	80001c8 <__aeabi_uldivmod>
 800181e:	2164      	movs	r1, #100	; 0x64
 8001820:	fbb0 f4f1 	udiv	r4, r0, r1
 8001824:	fb01 0314 	mls	r3, r1, r4, r0
 8001828:	00db      	lsls	r3, r3, #3
 800182a:	3332      	adds	r3, #50	; 0x32
 800182c:	fbb3 f3f1 	udiv	r3, r3, r1
 8001830:	f003 0207 	and.w	r2, r3, #7
 8001834:	005b      	lsls	r3, r3, #1
 8001836:	eb02 1204 	add.w	r2, r2, r4, lsl #4
 800183a:	f403 73f8 	and.w	r3, r3, #496	; 0x1f0
 800183e:	4413      	add	r3, r2
    }
#endif /* USART6 */
    else
    {
      pclk = HAL_RCC_GetPCLK1Freq();
      huart->Instance->BRR = UART_BRR_SAMPLING16(pclk, huart->Init.BaudRate);
 8001840:	60ab      	str	r3, [r5, #8]
 8001842:	bd38      	pop	{r3, r4, r5, pc}
      pclk = HAL_RCC_GetPCLK1Freq();
 8001844:	f7ff fa8c 	bl	8000d60 <HAL_RCC_GetPCLK1Freq>
 8001848:	e7dd      	b.n	8001806 <UART_SetConfig+0x52>
    if ((huart->Instance == USART1) || (huart->Instance == USART6))
 800184a:	4293      	cmp	r3, r2
 800184c:	d002      	beq.n	8001854 <UART_SetConfig+0xa0>
 800184e:	4a0f      	ldr	r2, [pc, #60]	; (800188c <UART_SetConfig+0xd8>)
 8001850:	4293      	cmp	r3, r2
 8001852:	d116      	bne.n	8001882 <UART_SetConfig+0xce>
      pclk = HAL_RCC_GetPCLK2Freq();
 8001854:	f7ff fa94 	bl	8000d80 <HAL_RCC_GetPCLK2Freq>
      huart->Instance->BRR = UART_BRR_SAMPLING16(pclk, huart->Init.BaudRate);
 8001858:	6863      	ldr	r3, [r4, #4]
 800185a:	6825      	ldr	r5, [r4, #0]
 800185c:	2119      	movs	r1, #25
 800185e:	009a      	lsls	r2, r3, #2
 8001860:	fba0 0101 	umull	r0, r1, r0, r1
 8001864:	0f9b      	lsrs	r3, r3, #30
 8001866:	f7fe fcaf 	bl	80001c8 <__aeabi_uldivmod>
 800186a:	2264      	movs	r2, #100	; 0x64
 800186c:	fbb0 f1f2 	udiv	r1, r0, r2
 8001870:	fb02 0311 	mls	r3, r2, r1, r0
 8001874:	011b      	lsls	r3, r3, #4
 8001876:	3332      	adds	r3, #50	; 0x32
 8001878:	fbb3 f3f2 	udiv	r3, r3, r2
 800187c:	eb03 1301 	add.w	r3, r3, r1, lsl #4
 8001880:	e7de      	b.n	8001840 <UART_SetConfig+0x8c>
      pclk = HAL_RCC_GetPCLK1Freq();
 8001882:	f7ff fa6d 	bl	8000d60 <HAL_RCC_GetPCLK1Freq>
 8001886:	e7e7      	b.n	8001858 <UART_SetConfig+0xa4>
 8001888:	40011000 	.word	0x40011000
 800188c:	40011400 	.word	0x40011400

08001890 <HAL_UART_Init>:
{
 8001890:	b510      	push	{r4, lr}
  if (huart == NULL)
 8001892:	4604      	mov	r4, r0
 8001894:	b340      	cbz	r0, 80018e8 <HAL_UART_Init+0x58>
  if (huart->gState == HAL_UART_STATE_RESET)
 8001896:	f890 3039 	ldrb.w	r3, [r0, #57]	; 0x39
 800189a:	f003 02ff 	and.w	r2, r3, #255	; 0xff
 800189e:	b91b      	cbnz	r3, 80018a8 <HAL_UART_Init+0x18>
    huart->Lock = HAL_UNLOCKED;
 80018a0:	f880 2038 	strb.w	r2, [r0, #56]	; 0x38
    HAL_UART_MspInit(huart);
 80018a4:	f005 fc04 	bl	80070b0 <HAL_UART_MspInit>
  __HAL_UART_DISABLE(huart);
 80018a8:	6822      	ldr	r2, [r4, #0]
  huart->gState = HAL_UART_STATE_BUSY;
 80018aa:	2324      	movs	r3, #36	; 0x24
 80018ac:	f884 3039 	strb.w	r3, [r4, #57]	; 0x39
  __HAL_UART_DISABLE(huart);
 80018b0:	68d3      	ldr	r3, [r2, #12]
 80018b2:	f423 5300 	bic.w	r3, r3, #8192	; 0x2000
 80018b6:	60d3      	str	r3, [r2, #12]
  UART_SetConfig(huart);
 80018b8:	4620      	mov	r0, r4
 80018ba:	f7ff ff7b 	bl	80017b4 <UART_SetConfig>
  CLEAR_BIT(huart->Instance->CR2, (USART_CR2_LINEN | USART_CR2_CLKEN));
 80018be:	6823      	ldr	r3, [r4, #0]
 80018c0:	691a      	ldr	r2, [r3, #16]
 80018c2:	f422 4290 	bic.w	r2, r2, #18432	; 0x4800
 80018c6:	611a      	str	r2, [r3, #16]
  CLEAR_BIT(huart->Instance->CR3, (USART_CR3_SCEN | USART_CR3_HDSEL | USART_CR3_IREN));
 80018c8:	695a      	ldr	r2, [r3, #20]
 80018ca:	f022 022a 	bic.w	r2, r2, #42	; 0x2a
 80018ce:	615a      	str	r2, [r3, #20]
  __HAL_UART_ENABLE(huart);
 80018d0:	68da      	ldr	r2, [r3, #12]
 80018d2:	f442 5200 	orr.w	r2, r2, #8192	; 0x2000
 80018d6:	60da      	str	r2, [r3, #12]
  huart->ErrorCode = HAL_UART_ERROR_NONE;
 80018d8:	2000      	movs	r0, #0
  huart->gState = HAL_UART_STATE_READY;
 80018da:	2320      	movs	r3, #32
  huart->ErrorCode = HAL_UART_ERROR_NONE;
 80018dc:	63e0      	str	r0, [r4, #60]	; 0x3c
  huart->gState = HAL_UART_STATE_READY;
 80018de:	f884 3039 	strb.w	r3, [r4, #57]	; 0x39
  huart->RxState = HAL_UART_STATE_READY;
 80018e2:	f884 303a 	strb.w	r3, [r4, #58]	; 0x3a
  return HAL_OK;
 80018e6:	bd10      	pop	{r4, pc}
    return HAL_ERROR;
 80018e8:	2001      	movs	r0, #1
}
 80018ea:	bd10      	pop	{r4, pc}

080018ec <lwip_htons>:
 80018ec:	ba40      	rev16	r0, r0
 80018ee:	b280      	uxth	r0, r0
 80018f0:	4770      	bx	lr

080018f2 <lwip_ntohs>:
 * @return n in host byte order
 */
u16_t
lwip_ntohs(u16_t n)
{
  return lwip_htons(n);
 80018f2:	ba40      	rev16	r0, r0
}
 80018f4:	b280      	uxth	r0, r0
 80018f6:	4770      	bx	lr

080018f8 <lwip_htonl>:
{
  return ((n & 0xff) << 24) |
    ((n & 0xff00) << 8) |
    ((n & 0xff0000UL) >> 8) |
    ((n & 0xff000000UL) >> 24);
}
 80018f8:	ba00      	rev	r0, r0
 80018fa:	4770      	bx	lr

080018fc <lwip_ntohl>:
 * @return n in host byte order
 */
u32_t
lwip_ntohl(u32_t n)
{
  return lwip_htonl(n);
 80018fc:	f7ff bffc 	b.w	80018f8 <lwip_htonl>

08001900 <dhcp_set_state>:
 * If the state changed, reset the number of tries.
 */
static void
dhcp_set_state(struct dhcp *dhcp, u8_t new_state)
{
  if (new_state != dhcp->state) {
 8001900:	7b03      	ldrb	r3, [r0, #12]
 8001902:	428b      	cmp	r3, r1
    dhcp->state = new_state;
    dhcp->tries = 0;
 8001904:	bf1f      	itttt	ne
 8001906:	2300      	movne	r3, #0
    dhcp->state = new_state;
 8001908:	7301      	strbne	r1, [r0, #12]
    dhcp->tries = 0;
 800190a:	7343      	strbne	r3, [r0, #13]
    dhcp->request_timeout = 0;
 800190c:	8343      	strhne	r3, [r0, #26]
 800190e:	4770      	bx	lr

08001910 <dhcp_option>:
 *
 */
static void
dhcp_option(struct dhcp *dhcp, u8_t option_type, u8_t option_len)
{
  LWIP_ASSERT("dhcp_option: dhcp->options_out_len + 2 + option_len <= DHCP_OPTIONS_LEN", dhcp->options_out_len + 2U + option_len <= DHCP_OPTIONS_LEN);
 8001910:	8b03      	ldrh	r3, [r0, #24]
{
 8001912:	b530      	push	{r4, r5, lr}
  dhcp->msg_out->options[dhcp->options_out_len++] = option_type;
 8001914:	6944      	ldr	r4, [r0, #20]
 8001916:	18e5      	adds	r5, r4, r3
 8001918:	f885 10f0 	strb.w	r1, [r5, #240]	; 0xf0
  dhcp->msg_out->options[dhcp->options_out_len++] = option_len;
 800191c:	1c99      	adds	r1, r3, #2
  dhcp->msg_out->options[dhcp->options_out_len++] = option_type;
 800191e:	3301      	adds	r3, #1
  dhcp->msg_out->options[dhcp->options_out_len++] = option_len;
 8001920:	fa14 f383 	uxtah	r3, r4, r3
 8001924:	8301      	strh	r1, [r0, #24]
 8001926:	f883 20f0 	strb.w	r2, [r3, #240]	; 0xf0
 800192a:	bd30      	pop	{r4, r5, pc}

0800192c <dhcp_option_byte>:
 *
 */
static void
dhcp_option_byte(struct dhcp *dhcp, u8_t value)
{
  LWIP_ASSERT("dhcp_option_byte: dhcp->options_out_len < DHCP_OPTIONS_LEN", dhcp->options_out_len < DHCP_OPTIONS_LEN);
 800192c:	8b02      	ldrh	r2, [r0, #24]
  dhcp->msg_out->options[dhcp->options_out_len++] = value;
 800192e:	6943      	ldr	r3, [r0, #20]
{
 8001930:	b510      	push	{r4, lr}
  dhcp->msg_out->options[dhcp->options_out_len++] = value;
 8001932:	4413      	add	r3, r2
 8001934:	1c54      	adds	r4, r2, #1
 8001936:	8304      	strh	r4, [r0, #24]
 8001938:	f883 10f0 	strb.w	r1, [r3, #240]	; 0xf0
 800193c:	bd10      	pop	{r4, pc}

0800193e <dhcp_option_short>:
}

static void
dhcp_option_short(struct dhcp *dhcp, u16_t value)
{
  LWIP_ASSERT("dhcp_option_short: dhcp->options_out_len + 2 <= DHCP_OPTIONS_LEN", dhcp->options_out_len + 2U <= DHCP_OPTIONS_LEN);
 800193e:	8b03      	ldrh	r3, [r0, #24]
  dhcp->msg_out->options[dhcp->options_out_len++] = (u8_t)((value & 0xff00U) >> 8);
 8001940:	6942      	ldr	r2, [r0, #20]
{
 8001942:	b530      	push	{r4, r5, lr}
  dhcp->msg_out->options[dhcp->options_out_len++] = (u8_t)((value & 0xff00U) >> 8);
 8001944:	18d4      	adds	r4, r2, r3
 8001946:	0a0d      	lsrs	r5, r1, #8
 8001948:	f884 50f0 	strb.w	r5, [r4, #240]	; 0xf0
  dhcp->msg_out->options[dhcp->options_out_len++] = (u8_t) (value & 0x00ffU);
 800194c:	1c9c      	adds	r4, r3, #2
  dhcp->msg_out->options[dhcp->options_out_len++] = (u8_t)((value & 0xff00U) >> 8);
 800194e:	3301      	adds	r3, #1
  dhcp->msg_out->options[dhcp->options_out_len++] = (u8_t) (value & 0x00ffU);
 8001950:	fa12 f383 	uxtah	r3, r2, r3
 8001954:	8304      	strh	r4, [r0, #24]
 8001956:	f883 10f0 	strb.w	r1, [r3, #240]	; 0xf0
 800195a:	bd30      	pop	{r4, r5, pc}

0800195c <dhcp_option_long>:
}

static void
dhcp_option_long(struct dhcp *dhcp, u32_t value)
{
  LWIP_ASSERT("dhcp_option_long: dhcp->options_out_len + 4 <= DHCP_OPTIONS_LEN", dhcp->options_out_len + 4U <= DHCP_OPTIONS_LEN);
 800195c:	8b03      	ldrh	r3, [r0, #24]
  dhcp->msg_out->options[dhcp->options_out_len++] = (u8_t)((value & 0xff000000UL) >> 24);
 800195e:	6942      	ldr	r2, [r0, #20]
{
 8001960:	b530      	push	{r4, r5, lr}
  dhcp->msg_out->options[dhcp->options_out_len++] = (u8_t)((value & 0xff000000UL) >> 24);
 8001962:	18d4      	adds	r4, r2, r3
 8001964:	0e0d      	lsrs	r5, r1, #24
 8001966:	f884 50f0 	strb.w	r5, [r4, #240]	; 0xf0
 800196a:	1c5c      	adds	r4, r3, #1
  dhcp->msg_out->options[dhcp->options_out_len++] = (u8_t)((value & 0x00ff0000UL) >> 16);
 800196c:	fa12 f484 	uxtah	r4, r2, r4
 8001970:	0c0d      	lsrs	r5, r1, #16
 8001972:	f884 50f0 	strb.w	r5, [r4, #240]	; 0xf0
 8001976:	1c9c      	adds	r4, r3, #2
  dhcp->msg_out->options[dhcp->options_out_len++] = (u8_t)((value & 0x0000ff00UL) >> 8);
 8001978:	fa12 f484 	uxtah	r4, r2, r4
 800197c:	0a0d      	lsrs	r5, r1, #8
 800197e:	f884 50f0 	strb.w	r5, [r4, #240]	; 0xf0
  dhcp->msg_out->options[dhcp->options_out_len++] = (u8_t)((value & 0x000000ffUL));
 8001982:	1d1c      	adds	r4, r3, #4
  dhcp->msg_out->options[dhcp->options_out_len++] = (u8_t)((value & 0x0000ff00UL) >> 8);
 8001984:	3303      	adds	r3, #3
  dhcp->msg_out->options[dhcp->options_out_len++] = (u8_t)((value & 0x000000ffUL));
 8001986:	fa12 f383 	uxtah	r3, r2, r3
 800198a:	8304      	strh	r4, [r0, #24]
 800198c:	f883 10f0 	strb.w	r1, [r3, #240]	; 0xf0
 8001990:	bd30      	pop	{r4, r5, pc}

08001992 <dhcp_option_trailer>:
 *
 * @param dhcp DHCP state structure
 */
static void
dhcp_option_trailer(struct dhcp *dhcp)
{
 8001992:	b510      	push	{r4, lr}
  LWIP_ERROR("dhcp_option_trailer: dhcp != NULL", (dhcp != NULL), return;);
 8001994:	b158      	cbz	r0, 80019ae <dhcp_option_trailer+0x1c>
  LWIP_ASSERT("dhcp_option_trailer: dhcp->msg_out != NULL\n", dhcp->msg_out != NULL);
  LWIP_ASSERT("dhcp_option_trailer: dhcp->options_out_len < DHCP_OPTIONS_LEN\n", dhcp->options_out_len < DHCP_OPTIONS_LEN);
 8001996:	8b03      	ldrh	r3, [r0, #24]
  LWIP_ASSERT("dhcp_option_trailer: dhcp->msg_out != NULL\n", dhcp->msg_out != NULL);
 8001998:	6942      	ldr	r2, [r0, #20]
  dhcp->msg_out->options[dhcp->options_out_len++] = DHCP_OPTION_END;
 800199a:	1c59      	adds	r1, r3, #1
 800199c:	4413      	add	r3, r2
 800199e:	8301      	strh	r1, [r0, #24]
 80019a0:	21ff      	movs	r1, #255	; 0xff
 80019a2:	f883 10f0 	strb.w	r1, [r3, #240]	; 0xf0
  /* packet is too small, or not 4 byte aligned? */
  while (((dhcp->options_out_len < DHCP_MIN_OPTIONS_LEN) || (dhcp->options_out_len & 3)) &&
         (dhcp->options_out_len < DHCP_OPTIONS_LEN)) {
    /* add a fill/padding byte */
    dhcp->msg_out->options[dhcp->options_out_len++] = 0;
 80019a6:	2100      	movs	r1, #0
  while (((dhcp->options_out_len < DHCP_MIN_OPTIONS_LEN) || (dhcp->options_out_len & 3)) &&
 80019a8:	8b03      	ldrh	r3, [r0, #24]
 80019aa:	2b43      	cmp	r3, #67	; 0x43
 80019ac:	d900      	bls.n	80019b0 <dhcp_option_trailer+0x1e>
 80019ae:	bd10      	pop	{r4, pc}
    dhcp->msg_out->options[dhcp->options_out_len++] = 0;
 80019b0:	1c5c      	adds	r4, r3, #1
 80019b2:	4413      	add	r3, r2
 80019b4:	8304      	strh	r4, [r0, #24]
 80019b6:	f883 10f0 	strb.w	r1, [r3, #240]	; 0xf0
 80019ba:	e7f5      	b.n	80019a8 <dhcp_option_trailer+0x16>

080019bc <dhcp_create_msg>:
{
 80019bc:	e92d 41f0 	stmdb	sp!, {r4, r5, r6, r7, r8, lr}
 80019c0:	460c      	mov	r4, r1
 80019c2:	4616      	mov	r6, r2
  LWIP_ERROR("dhcp_create_msg: netif != NULL", (netif != NULL), return ERR_ARG;);
 80019c4:	4680      	mov	r8, r0
 80019c6:	2800      	cmp	r0, #0
 80019c8:	f000 8089 	beq.w	8001ade <dhcp_create_msg+0x122>
  LWIP_ERROR("dhcp_create_msg: dhcp != NULL", (dhcp != NULL), return ERR_VAL;);
 80019cc:	2900      	cmp	r1, #0
 80019ce:	f000 808a 	beq.w	8001ae6 <dhcp_create_msg+0x12a>
  dhcp->p_out = pbuf_alloc(PBUF_TRANSPORT, sizeof(struct dhcp_msg), PBUF_RAM);
 80019d2:	2200      	movs	r2, #0
 80019d4:	f44f 719a 	mov.w	r1, #308	; 0x134
 80019d8:	4610      	mov	r0, r2
 80019da:	f001 fc3d 	bl	8003258 <pbuf_alloc>
 80019de:	4603      	mov	r3, r0
 80019e0:	6120      	str	r0, [r4, #16]
  if (dhcp->p_out == NULL) {
 80019e2:	2800      	cmp	r0, #0
 80019e4:	f000 8083 	beq.w	8001aee <dhcp_create_msg+0x132>
  if (dhcp->tries == 0) {
 80019e8:	7b61      	ldrb	r1, [r4, #13]
 80019ea:	4a43      	ldr	r2, [pc, #268]	; (8001af8 <dhcp_create_msg+0x13c>)
 80019ec:	b911      	cbnz	r1, 80019f4 <dhcp_create_msg+0x38>
    xid++;
 80019ee:	6811      	ldr	r1, [r2, #0]
 80019f0:	3101      	adds	r1, #1
 80019f2:	6011      	str	r1, [r2, #0]
  dhcp->msg_out = (struct dhcp_msg *)dhcp->p_out->payload;
 80019f4:	685f      	ldr	r7, [r3, #4]
  dhcp->xid = xid;
 80019f6:	6810      	ldr	r0, [r2, #0]
 80019f8:	6020      	str	r0, [r4, #0]
  dhcp->msg_out->op = DHCP_BOOTREQUEST;
 80019fa:	2301      	movs	r3, #1
  dhcp->msg_out = (struct dhcp_msg *)dhcp->p_out->payload;
 80019fc:	6167      	str	r7, [r4, #20]
  dhcp->msg_out->op = DHCP_BOOTREQUEST;
 80019fe:	703b      	strb	r3, [r7, #0]
  dhcp->msg_out->htype = DHCP_HTYPE_ETH;
 8001a00:	707b      	strb	r3, [r7, #1]
  dhcp->msg_out->hops = 0;
 8001a02:	2500      	movs	r5, #0
  dhcp->msg_out->hlen = netif->hwaddr_len;
 8001a04:	f898 302a 	ldrb.w	r3, [r8, #42]	; 0x2a
 8001a08:	70bb      	strb	r3, [r7, #2]
  dhcp->msg_out->hops = 0;
 8001a0a:	70fd      	strb	r5, [r7, #3]
  dhcp->msg_out->xid = htonl(dhcp->xid);
 8001a0c:	f7ff ff74 	bl	80018f8 <lwip_htonl>
  dhcp->msg_out->secs = 0;
 8001a10:	6963      	ldr	r3, [r4, #20]
  dhcp->msg_out->xid = htonl(dhcp->xid);
 8001a12:	6078      	str	r0, [r7, #4]
  if ((message_type == DHCP_INFORM) || (message_type == DHCP_DECLINE) ||
 8001a14:	2e08      	cmp	r6, #8
  dhcp->msg_out->secs = 0;
 8001a16:	721d      	strb	r5, [r3, #8]
 8001a18:	725d      	strb	r5, [r3, #9]
  dhcp->msg_out->flags = 0;
 8001a1a:	729d      	strb	r5, [r3, #10]
 8001a1c:	72dd      	strb	r5, [r3, #11]
  ip_addr_set_zero(&dhcp->msg_out->ciaddr);
 8001a1e:	731d      	strb	r5, [r3, #12]
 8001a20:	735d      	strb	r5, [r3, #13]
 8001a22:	739d      	strb	r5, [r3, #14]
 8001a24:	73dd      	strb	r5, [r3, #15]
  if ((message_type == DHCP_INFORM) || (message_type == DHCP_DECLINE) ||
 8001a26:	d007      	beq.n	8001a38 <dhcp_create_msg+0x7c>
 8001a28:	2e04      	cmp	r6, #4
 8001a2a:	d005      	beq.n	8001a38 <dhcp_create_msg+0x7c>
 8001a2c:	2e03      	cmp	r6, #3
 8001a2e:	d106      	bne.n	8001a3e <dhcp_create_msg+0x82>
       ((dhcp->state==DHCP_RENEWING) || dhcp->state==DHCP_REBINDING))) {
 8001a30:	7b22      	ldrb	r2, [r4, #12]
      ((message_type == DHCP_REQUEST) && /* DHCP_BOUND not used for sending! */
 8001a32:	3a04      	subs	r2, #4
 8001a34:	2a01      	cmp	r2, #1
 8001a36:	d802      	bhi.n	8001a3e <dhcp_create_msg+0x82>
    ip_addr_copy(dhcp->msg_out->ciaddr, netif->ip_addr);
 8001a38:	f8d8 2004 	ldr.w	r2, [r8, #4]
 8001a3c:	60da      	str	r2, [r3, #12]
  ip_addr_set_zero(&dhcp->msg_out->yiaddr);
 8001a3e:	2200      	movs	r2, #0
 8001a40:	741a      	strb	r2, [r3, #16]
 8001a42:	745a      	strb	r2, [r3, #17]
 8001a44:	749a      	strb	r2, [r3, #18]
 8001a46:	74da      	strb	r2, [r3, #19]
  ip_addr_set_zero(&dhcp->msg_out->siaddr);
 8001a48:	751a      	strb	r2, [r3, #20]
 8001a4a:	755a      	strb	r2, [r3, #21]
 8001a4c:	759a      	strb	r2, [r3, #22]
 8001a4e:	75da      	strb	r2, [r3, #23]
  ip_addr_set_zero(&dhcp->msg_out->giaddr);
 8001a50:	761a      	strb	r2, [r3, #24]
 8001a52:	765a      	strb	r2, [r3, #25]
 8001a54:	769a      	strb	r2, [r3, #26]
 8001a56:	76da      	strb	r2, [r3, #27]
    dhcp->msg_out->chaddr[i] = (i < netif->hwaddr_len) ? netif->hwaddr[i] : 0/* pad byte*/;
 8001a58:	f898 502a 	ldrb.w	r5, [r8, #42]	; 0x2a
 8001a5c:	f103 011c 	add.w	r1, r3, #28
 8001a60:	b290      	uxth	r0, r2
 8001a62:	4285      	cmp	r5, r0
 8001a64:	bf88      	it	hi
 8001a66:	eb08 0002 	addhi.w	r0, r8, r2
 8001a6a:	f102 0201 	add.w	r2, r2, #1
 8001a6e:	bf8c      	ite	hi
 8001a70:	f890 002b 	ldrbhi.w	r0, [r0, #43]	; 0x2b
 8001a74:	2000      	movls	r0, #0
  for (i = 0; i < DHCP_CHADDR_LEN; i++) {
 8001a76:	2a10      	cmp	r2, #16
    dhcp->msg_out->chaddr[i] = (i < netif->hwaddr_len) ? netif->hwaddr[i] : 0/* pad byte*/;
 8001a78:	f801 0b01 	strb.w	r0, [r1], #1
  for (i = 0; i < DHCP_CHADDR_LEN; i++) {
 8001a7c:	d1f0      	bne.n	8001a60 <dhcp_create_msg+0xa4>
 8001a7e:	f103 022c 	add.w	r2, r3, #44	; 0x2c
 8001a82:	f103 016c 	add.w	r1, r3, #108	; 0x6c
    dhcp->msg_out->sname[i] = 0;
 8001a86:	2000      	movs	r0, #0
 8001a88:	f802 0b01 	strb.w	r0, [r2], #1
  for (i = 0; i < DHCP_SNAME_LEN; i++) {
 8001a8c:	428a      	cmp	r2, r1
 8001a8e:	d1fb      	bne.n	8001a88 <dhcp_create_msg+0xcc>
 8001a90:	f103 00ec 	add.w	r0, r3, #236	; 0xec
    dhcp->msg_out->file[i] = 0;
 8001a94:	2100      	movs	r1, #0
 8001a96:	f802 1b01 	strb.w	r1, [r2], #1
  for (i = 0; i < DHCP_FILE_LEN; i++) {
 8001a9a:	4282      	cmp	r2, r0
 8001a9c:	d1fb      	bne.n	8001a96 <dhcp_create_msg+0xda>
  dhcp->msg_out->cookie = PP_HTONL(DHCP_MAGIC_COOKIE);
 8001a9e:	f06f 007d 	mvn.w	r0, #125	; 0x7d
 8001aa2:	2263      	movs	r2, #99	; 0x63
 8001aa4:	f883 00ed 	strb.w	r0, [r3, #237]	; 0xed
 8001aa8:	2053      	movs	r0, #83	; 0x53
 8001aaa:	f883 20ec 	strb.w	r2, [r3, #236]	; 0xec
 8001aae:	f883 20ef 	strb.w	r2, [r3, #239]	; 0xef
 8001ab2:	f883 00ee 	strb.w	r0, [r3, #238]	; 0xee
  dhcp->options_out_len = 0;
 8001ab6:	2200      	movs	r2, #0
 8001ab8:	8321      	strh	r1, [r4, #24]
 8001aba:	33f0      	adds	r3, #240	; 0xf0
    dhcp->msg_out->options[i] = (u8_t)i; /* for debugging only, no matter if truncated */
 8001abc:	f803 2b01 	strb.w	r2, [r3], #1
 8001ac0:	3201      	adds	r2, #1
  for (i = 0; i < DHCP_OPTIONS_LEN; i++) {
 8001ac2:	2a44      	cmp	r2, #68	; 0x44
 8001ac4:	d1fa      	bne.n	8001abc <dhcp_create_msg+0x100>
  dhcp_option(dhcp, DHCP_OPTION_MESSAGE_TYPE, DHCP_OPTION_MESSAGE_TYPE_LEN);
 8001ac6:	2201      	movs	r2, #1
 8001ac8:	4620      	mov	r0, r4
 8001aca:	2135      	movs	r1, #53	; 0x35
 8001acc:	f7ff ff20 	bl	8001910 <dhcp_option>
  dhcp_option_byte(dhcp, message_type);
 8001ad0:	4620      	mov	r0, r4
 8001ad2:	4631      	mov	r1, r6
 8001ad4:	f7ff ff2a 	bl	800192c <dhcp_option_byte>
  return ERR_OK;
 8001ad8:	2000      	movs	r0, #0
 8001ada:	e8bd 81f0 	ldmia.w	sp!, {r4, r5, r6, r7, r8, pc}
  LWIP_ERROR("dhcp_create_msg: netif != NULL", (netif != NULL), return ERR_ARG;);
 8001ade:	f06f 000d 	mvn.w	r0, #13
 8001ae2:	e8bd 81f0 	ldmia.w	sp!, {r4, r5, r6, r7, r8, pc}
  LWIP_ERROR("dhcp_create_msg: dhcp != NULL", (dhcp != NULL), return ERR_VAL;);
 8001ae6:	f06f 0005 	mvn.w	r0, #5
 8001aea:	e8bd 81f0 	ldmia.w	sp!, {r4, r5, r6, r7, r8, pc}
    return ERR_MEM;
 8001aee:	f04f 30ff 	mov.w	r0, #4294967295
}
 8001af2:	e8bd 81f0 	ldmia.w	sp!, {r4, r5, r6, r7, r8, pc}
 8001af6:	bf00      	nop
 8001af8:	20000008 	.word	0x20000008

08001afc <dhcp_delete_msg>:
{
 8001afc:	b510      	push	{r4, lr}
  LWIP_ERROR("dhcp_delete_msg: dhcp != NULL", (dhcp != NULL), return;);
 8001afe:	4604      	mov	r4, r0
 8001b00:	b130      	cbz	r0, 8001b10 <dhcp_delete_msg+0x14>
  LWIP_ASSERT("dhcp_delete_msg: dhcp->p_out != NULL", dhcp->p_out != NULL);
 8001b02:	6900      	ldr	r0, [r0, #16]
  if (dhcp->p_out != NULL) {
 8001b04:	b108      	cbz	r0, 8001b0a <dhcp_delete_msg+0xe>
    pbuf_free(dhcp->p_out);
 8001b06:	f001 fb80 	bl	800320a <pbuf_free>
  dhcp->p_out = NULL;
 8001b0a:	2300      	movs	r3, #0
 8001b0c:	6123      	str	r3, [r4, #16]
  dhcp->msg_out = NULL;
 8001b0e:	6163      	str	r3, [r4, #20]
 8001b10:	bd10      	pop	{r4, pc}
	...

08001b14 <dhcp_rebind>:
{
 8001b14:	b573      	push	{r0, r1, r4, r5, r6, lr}
  struct dhcp *dhcp = netif->dhcp;
 8001b16:	6a44      	ldr	r4, [r0, #36]	; 0x24
{
 8001b18:	4606      	mov	r6, r0
  dhcp_set_state(dhcp, DHCP_REBINDING);
 8001b1a:	2104      	movs	r1, #4
 8001b1c:	4620      	mov	r0, r4
 8001b1e:	f7ff feef 	bl	8001900 <dhcp_set_state>
  result = dhcp_create_msg(netif, dhcp, DHCP_REQUEST);
 8001b22:	2203      	movs	r2, #3
 8001b24:	4621      	mov	r1, r4
 8001b26:	4630      	mov	r0, r6
 8001b28:	f7ff ff48 	bl	80019bc <dhcp_create_msg>
  if (result == ERR_OK) {
 8001b2c:	4605      	mov	r5, r0
 8001b2e:	b9d8      	cbnz	r0, 8001b68 <dhcp_rebind+0x54>
    dhcp_option(dhcp, DHCP_OPTION_MAX_MSG_SIZE, DHCP_OPTION_MAX_MSG_SIZE_LEN);
 8001b30:	2202      	movs	r2, #2
 8001b32:	2139      	movs	r1, #57	; 0x39
 8001b34:	4620      	mov	r0, r4
 8001b36:	f7ff feeb 	bl	8001910 <dhcp_option>
    dhcp_option_short(dhcp, DHCP_MAX_MSG_LEN(netif));
 8001b3a:	8d31      	ldrh	r1, [r6, #40]	; 0x28
 8001b3c:	4620      	mov	r0, r4
 8001b3e:	f7ff fefe 	bl	800193e <dhcp_option_short>
    dhcp_option_trailer(dhcp);
 8001b42:	4620      	mov	r0, r4
 8001b44:	f7ff ff25 	bl	8001992 <dhcp_option_trailer>
    pbuf_realloc(dhcp->p_out, sizeof(struct dhcp_msg) - DHCP_OPTIONS_LEN + dhcp->options_out_len);
 8001b48:	8b21      	ldrh	r1, [r4, #24]
 8001b4a:	6920      	ldr	r0, [r4, #16]
 8001b4c:	31f0      	adds	r1, #240	; 0xf0
 8001b4e:	b289      	uxth	r1, r1
 8001b50:	f001 fc05 	bl	800335e <pbuf_realloc>
    udp_sendto_if(dhcp->pcb, dhcp->p_out, IP_ADDR_BROADCAST, DHCP_SERVER_PORT, netif);
 8001b54:	9600      	str	r6, [sp, #0]
 8001b56:	2343      	movs	r3, #67	; 0x43
 8001b58:	4a10      	ldr	r2, [pc, #64]	; (8001b9c <dhcp_rebind+0x88>)
 8001b5a:	6921      	ldr	r1, [r4, #16]
 8001b5c:	6860      	ldr	r0, [r4, #4]
 8001b5e:	f003 fffb 	bl	8005b58 <udp_sendto_if>
    dhcp_delete_msg(dhcp);
 8001b62:	4620      	mov	r0, r4
 8001b64:	f7ff ffca 	bl	8001afc <dhcp_delete_msg>
  dhcp->tries++;
 8001b68:	7b63      	ldrb	r3, [r4, #13]
 8001b6a:	3301      	adds	r3, #1
 8001b6c:	b2db      	uxtb	r3, r3
  msecs = dhcp->tries < 10 ? dhcp->tries * 1000 : 10 * 1000;
 8001b6e:	2b09      	cmp	r3, #9
 8001b70:	bf98      	it	ls
 8001b72:	ebc3 1243 	rsbls	r2, r3, r3, lsl #5
  dhcp->tries++;
 8001b76:	7363      	strb	r3, [r4, #13]
  msecs = dhcp->tries < 10 ? dhcp->tries * 1000 : 10 * 1000;
 8001b78:	bf9d      	ittte	ls
 8001b7a:	eb03 0382 	addls.w	r3, r3, r2, lsl #2
 8001b7e:	00db      	lslls	r3, r3, #3
 8001b80:	b29b      	uxthls	r3, r3
 8001b82:	f242 7310 	movwhi	r3, #10000	; 0x2710
  dhcp->request_timeout = (msecs + DHCP_FINE_TIMER_MSECS - 1) / DHCP_FINE_TIMER_MSECS;
 8001b86:	f44f 72fa 	mov.w	r2, #500	; 0x1f4
}
 8001b8a:	4628      	mov	r0, r5
  dhcp->request_timeout = (msecs + DHCP_FINE_TIMER_MSECS - 1) / DHCP_FINE_TIMER_MSECS;
 8001b8c:	f203 13f3 	addw	r3, r3, #499	; 0x1f3
 8001b90:	fb93 f3f2 	sdiv	r3, r3, r2
 8001b94:	8363      	strh	r3, [r4, #26]
}
 8001b96:	b002      	add	sp, #8
 8001b98:	bd70      	pop	{r4, r5, r6, pc}
 8001b9a:	bf00      	nop
 8001b9c:	08007478 	.word	0x08007478

08001ba0 <dhcp_discover>:
{
 8001ba0:	b573      	push	{r0, r1, r4, r5, r6, lr}
  struct dhcp *dhcp = netif->dhcp;
 8001ba2:	6a44      	ldr	r4, [r0, #36]	; 0x24
  ip_addr_set_any(&dhcp->offered_ip_addr);
 8001ba4:	2300      	movs	r3, #0
{
 8001ba6:	4606      	mov	r6, r0
  ip_addr_set_any(&dhcp->offered_ip_addr);
 8001ba8:	6263      	str	r3, [r4, #36]	; 0x24
  dhcp_set_state(dhcp, DHCP_SELECTING);
 8001baa:	2106      	movs	r1, #6
 8001bac:	4620      	mov	r0, r4
 8001bae:	f7ff fea7 	bl	8001900 <dhcp_set_state>
  result = dhcp_create_msg(netif, dhcp, DHCP_DISCOVER);
 8001bb2:	2201      	movs	r2, #1
 8001bb4:	4621      	mov	r1, r4
 8001bb6:	4630      	mov	r0, r6
 8001bb8:	f7ff ff00 	bl	80019bc <dhcp_create_msg>
  if (result == ERR_OK) {
 8001bbc:	4605      	mov	r5, r0
 8001bbe:	bb80      	cbnz	r0, 8001c22 <dhcp_discover+0x82>
    dhcp_option(dhcp, DHCP_OPTION_MAX_MSG_SIZE, DHCP_OPTION_MAX_MSG_SIZE_LEN);
 8001bc0:	2202      	movs	r2, #2
 8001bc2:	2139      	movs	r1, #57	; 0x39
 8001bc4:	4620      	mov	r0, r4
 8001bc6:	f7ff fea3 	bl	8001910 <dhcp_option>
    dhcp_option_short(dhcp, DHCP_MAX_MSG_LEN(netif));
 8001bca:	8d31      	ldrh	r1, [r6, #40]	; 0x28
 8001bcc:	4620      	mov	r0, r4
 8001bce:	f7ff feb6 	bl	800193e <dhcp_option_short>
    dhcp_option(dhcp, DHCP_OPTION_PARAMETER_REQUEST_LIST, 4/*num options*/);
 8001bd2:	2204      	movs	r2, #4
 8001bd4:	2137      	movs	r1, #55	; 0x37
 8001bd6:	4620      	mov	r0, r4
 8001bd8:	f7ff fe9a 	bl	8001910 <dhcp_option>
    dhcp_option_byte(dhcp, DHCP_OPTION_SUBNET_MASK);
 8001bdc:	2101      	movs	r1, #1
 8001bde:	4620      	mov	r0, r4
 8001be0:	f7ff fea4 	bl	800192c <dhcp_option_byte>
    dhcp_option_byte(dhcp, DHCP_OPTION_ROUTER);
 8001be4:	2103      	movs	r1, #3
 8001be6:	4620      	mov	r0, r4
 8001be8:	f7ff fea0 	bl	800192c <dhcp_option_byte>
    dhcp_option_byte(dhcp, DHCP_OPTION_BROADCAST);
 8001bec:	211c      	movs	r1, #28
 8001bee:	4620      	mov	r0, r4
 8001bf0:	f7ff fe9c 	bl	800192c <dhcp_option_byte>
    dhcp_option_byte(dhcp, DHCP_OPTION_DNS_SERVER);
 8001bf4:	2106      	movs	r1, #6
 8001bf6:	4620      	mov	r0, r4
 8001bf8:	f7ff fe98 	bl	800192c <dhcp_option_byte>
    dhcp_option_trailer(dhcp);
 8001bfc:	4620      	mov	r0, r4
 8001bfe:	f7ff fec8 	bl	8001992 <dhcp_option_trailer>
    pbuf_realloc(dhcp->p_out, sizeof(struct dhcp_msg) - DHCP_OPTIONS_LEN + dhcp->options_out_len);
 8001c02:	8b21      	ldrh	r1, [r4, #24]
 8001c04:	6920      	ldr	r0, [r4, #16]
 8001c06:	31f0      	adds	r1, #240	; 0xf0
 8001c08:	b289      	uxth	r1, r1
 8001c0a:	f001 fba8 	bl	800335e <pbuf_realloc>
    udp_sendto_if(dhcp->pcb, dhcp->p_out, IP_ADDR_BROADCAST, DHCP_SERVER_PORT, netif);
 8001c0e:	9600      	str	r6, [sp, #0]
 8001c10:	2343      	movs	r3, #67	; 0x43
 8001c12:	4a0f      	ldr	r2, [pc, #60]	; (8001c50 <dhcp_discover+0xb0>)
 8001c14:	6921      	ldr	r1, [r4, #16]
 8001c16:	6860      	ldr	r0, [r4, #4]
 8001c18:	f003 ff9e 	bl	8005b58 <udp_sendto_if>
    dhcp_delete_msg(dhcp);
 8001c1c:	4620      	mov	r0, r4
 8001c1e:	f7ff ff6d 	bl	8001afc <dhcp_delete_msg>
  dhcp->tries++;
 8001c22:	7b63      	ldrb	r3, [r4, #13]
 8001c24:	3301      	adds	r3, #1
 8001c26:	b2da      	uxtb	r2, r3
  msecs = (dhcp->tries < 6 ? 1 << dhcp->tries : 60) * 1000;
 8001c28:	2a05      	cmp	r2, #5
 8001c2a:	bf9c      	itt	ls
 8001c2c:	f44f 737a 	movls.w	r3, #1000	; 0x3e8
 8001c30:	4093      	lslls	r3, r2
  dhcp->tries++;
 8001c32:	7362      	strb	r2, [r4, #13]
 8001c34:	bf88      	it	hi
 8001c36:	f64e 2360 	movwhi	r3, #60000	; 0xea60
  dhcp->request_timeout = (msecs + DHCP_FINE_TIMER_MSECS - 1) / DHCP_FINE_TIMER_MSECS;
 8001c3a:	f44f 72fa 	mov.w	r2, #500	; 0x1f4
}
 8001c3e:	4628      	mov	r0, r5
  dhcp->request_timeout = (msecs + DHCP_FINE_TIMER_MSECS - 1) / DHCP_FINE_TIMER_MSECS;
 8001c40:	f203 13f3 	addw	r3, r3, #499	; 0x1f3
 8001c44:	fb93 f3f2 	sdiv	r3, r3, r2
 8001c48:	8363      	strh	r3, [r4, #26]
}
 8001c4a:	b002      	add	sp, #8
 8001c4c:	bd70      	pop	{r4, r5, r6, pc}
 8001c4e:	bf00      	nop
 8001c50:	08007478 	.word	0x08007478

08001c54 <dhcp_select>:
{
 8001c54:	b573      	push	{r0, r1, r4, r5, r6, lr}
  struct dhcp *dhcp = netif->dhcp;
 8001c56:	6a44      	ldr	r4, [r0, #36]	; 0x24
{
 8001c58:	4606      	mov	r6, r0
  dhcp_set_state(dhcp, DHCP_REQUESTING);
 8001c5a:	2101      	movs	r1, #1
 8001c5c:	4620      	mov	r0, r4
 8001c5e:	f7ff fe4f 	bl	8001900 <dhcp_set_state>
  result = dhcp_create_msg(netif, dhcp, DHCP_REQUEST);
 8001c62:	2203      	movs	r2, #3
 8001c64:	4621      	mov	r1, r4
 8001c66:	4630      	mov	r0, r6
 8001c68:	f7ff fea8 	bl	80019bc <dhcp_create_msg>
  if (result == ERR_OK) {
 8001c6c:	4605      	mov	r5, r0
 8001c6e:	2800      	cmp	r0, #0
 8001c70:	d148      	bne.n	8001d04 <dhcp_select+0xb0>
    dhcp_option(dhcp, DHCP_OPTION_MAX_MSG_SIZE, DHCP_OPTION_MAX_MSG_SIZE_LEN);
 8001c72:	2202      	movs	r2, #2
 8001c74:	2139      	movs	r1, #57	; 0x39
 8001c76:	4620      	mov	r0, r4
 8001c78:	f7ff fe4a 	bl	8001910 <dhcp_option>
    dhcp_option_short(dhcp, DHCP_MAX_MSG_LEN(netif));
 8001c7c:	8d31      	ldrh	r1, [r6, #40]	; 0x28
 8001c7e:	4620      	mov	r0, r4
 8001c80:	f7ff fe5d 	bl	800193e <dhcp_option_short>
    dhcp_option(dhcp, DHCP_OPTION_REQUESTED_IP, 4);
 8001c84:	2204      	movs	r2, #4
 8001c86:	2132      	movs	r1, #50	; 0x32
 8001c88:	4620      	mov	r0, r4
 8001c8a:	f7ff fe41 	bl	8001910 <dhcp_option>
    dhcp_option_long(dhcp, ntohl(ip4_addr_get_u32(&dhcp->offered_ip_addr)));
 8001c8e:	6a60      	ldr	r0, [r4, #36]	; 0x24
 8001c90:	f7ff fe34 	bl	80018fc <lwip_ntohl>
 8001c94:	4601      	mov	r1, r0
 8001c96:	4620      	mov	r0, r4
 8001c98:	f7ff fe60 	bl	800195c <dhcp_option_long>
    dhcp_option(dhcp, DHCP_OPTION_SERVER_ID, 4);
 8001c9c:	2204      	movs	r2, #4
 8001c9e:	2136      	movs	r1, #54	; 0x36
 8001ca0:	4620      	mov	r0, r4
 8001ca2:	f7ff fe35 	bl	8001910 <dhcp_option>
    dhcp_option_long(dhcp, ntohl(ip4_addr_get_u32(&dhcp->server_ip_addr)));
 8001ca6:	6a20      	ldr	r0, [r4, #32]
 8001ca8:	f7ff fe28 	bl	80018fc <lwip_ntohl>
 8001cac:	4601      	mov	r1, r0
 8001cae:	4620      	mov	r0, r4
 8001cb0:	f7ff fe54 	bl	800195c <dhcp_option_long>
    dhcp_option(dhcp, DHCP_OPTION_PARAMETER_REQUEST_LIST, 4/*num options*/);
 8001cb4:	2204      	movs	r2, #4
 8001cb6:	2137      	movs	r1, #55	; 0x37
 8001cb8:	4620      	mov	r0, r4
 8001cba:	f7ff fe29 	bl	8001910 <dhcp_option>
    dhcp_option_byte(dhcp, DHCP_OPTION_SUBNET_MASK);
 8001cbe:	2101      	movs	r1, #1
 8001cc0:	4620      	mov	r0, r4
 8001cc2:	f7ff fe33 	bl	800192c <dhcp_option_byte>
    dhcp_option_byte(dhcp, DHCP_OPTION_ROUTER);
 8001cc6:	2103      	movs	r1, #3
 8001cc8:	4620      	mov	r0, r4
 8001cca:	f7ff fe2f 	bl	800192c <dhcp_option_byte>
    dhcp_option_byte(dhcp, DHCP_OPTION_BROADCAST);
 8001cce:	211c      	movs	r1, #28
 8001cd0:	4620      	mov	r0, r4
 8001cd2:	f7ff fe2b 	bl	800192c <dhcp_option_byte>
    dhcp_option_byte(dhcp, DHCP_OPTION_DNS_SERVER);
 8001cd6:	2106      	movs	r1, #6
 8001cd8:	4620      	mov	r0, r4
 8001cda:	f7ff fe27 	bl	800192c <dhcp_option_byte>
    dhcp_option_trailer(dhcp);
 8001cde:	4620      	mov	r0, r4
 8001ce0:	f7ff fe57 	bl	8001992 <dhcp_option_trailer>
    pbuf_realloc(dhcp->p_out, sizeof(struct dhcp_msg) - DHCP_OPTIONS_LEN + dhcp->options_out_len);
 8001ce4:	8b21      	ldrh	r1, [r4, #24]
 8001ce6:	6920      	ldr	r0, [r4, #16]
 8001ce8:	31f0      	adds	r1, #240	; 0xf0
 8001cea:	b289      	uxth	r1, r1
 8001cec:	f001 fb37 	bl	800335e <pbuf_realloc>
    udp_sendto_if(dhcp->pcb, dhcp->p_out, IP_ADDR_BROADCAST, DHCP_SERVER_PORT, netif);
 8001cf0:	9600      	str	r6, [sp, #0]
 8001cf2:	2343      	movs	r3, #67	; 0x43
 8001cf4:	4a0e      	ldr	r2, [pc, #56]	; (8001d30 <dhcp_select+0xdc>)
 8001cf6:	6921      	ldr	r1, [r4, #16]
 8001cf8:	6860      	ldr	r0, [r4, #4]
 8001cfa:	f003 ff2d 	bl	8005b58 <udp_sendto_if>
    dhcp_delete_msg(dhcp);
 8001cfe:	4620      	mov	r0, r4
 8001d00:	f7ff fefc 	bl	8001afc <dhcp_delete_msg>
  dhcp->tries++;
 8001d04:	7b63      	ldrb	r3, [r4, #13]
 8001d06:	3301      	adds	r3, #1
 8001d08:	b2da      	uxtb	r2, r3
  msecs = (dhcp->tries < 6 ? 1 << dhcp->tries : 60) * 1000;
 8001d0a:	2a05      	cmp	r2, #5
 8001d0c:	bf9c      	itt	ls
 8001d0e:	f44f 737a 	movls.w	r3, #1000	; 0x3e8
 8001d12:	4093      	lslls	r3, r2
  dhcp->tries++;
 8001d14:	7362      	strb	r2, [r4, #13]
 8001d16:	bf88      	it	hi
 8001d18:	f64e 2360 	movwhi	r3, #60000	; 0xea60
  dhcp->request_timeout = (msecs + DHCP_FINE_TIMER_MSECS - 1) / DHCP_FINE_TIMER_MSECS;
 8001d1c:	f44f 72fa 	mov.w	r2, #500	; 0x1f4
}
 8001d20:	4628      	mov	r0, r5
  dhcp->request_timeout = (msecs + DHCP_FINE_TIMER_MSECS - 1) / DHCP_FINE_TIMER_MSECS;
 8001d22:	f203 13f3 	addw	r3, r3, #499	; 0x1f3
 8001d26:	fb93 f3f2 	sdiv	r3, r3, r2
 8001d2a:	8363      	strh	r3, [r4, #26]
}
 8001d2c:	b002      	add	sp, #8
 8001d2e:	bd70      	pop	{r4, r5, r6, pc}
 8001d30:	08007478 	.word	0x08007478

08001d34 <dhcp_reboot>:
{
 8001d34:	b573      	push	{r0, r1, r4, r5, r6, lr}
  struct dhcp *dhcp = netif->dhcp;
 8001d36:	6a44      	ldr	r4, [r0, #36]	; 0x24
{
 8001d38:	4606      	mov	r6, r0
  dhcp_set_state(dhcp, DHCP_REBOOTING);
 8001d3a:	2103      	movs	r1, #3
 8001d3c:	4620      	mov	r0, r4
 8001d3e:	f7ff fddf 	bl	8001900 <dhcp_set_state>
  result = dhcp_create_msg(netif, dhcp, DHCP_REQUEST);
 8001d42:	2203      	movs	r2, #3
 8001d44:	4621      	mov	r1, r4
 8001d46:	4630      	mov	r0, r6
 8001d48:	f7ff fe38 	bl	80019bc <dhcp_create_msg>
  if (result == ERR_OK) {
 8001d4c:	4605      	mov	r5, r0
 8001d4e:	bb40      	cbnz	r0, 8001da2 <dhcp_reboot+0x6e>
    dhcp_option(dhcp, DHCP_OPTION_MAX_MSG_SIZE, DHCP_OPTION_MAX_MSG_SIZE_LEN);
 8001d50:	2202      	movs	r2, #2
 8001d52:	2139      	movs	r1, #57	; 0x39
 8001d54:	4620      	mov	r0, r4
 8001d56:	f7ff fddb 	bl	8001910 <dhcp_option>
    dhcp_option_short(dhcp, 576);
 8001d5a:	f44f 7110 	mov.w	r1, #576	; 0x240
 8001d5e:	4620      	mov	r0, r4
 8001d60:	f7ff fded 	bl	800193e <dhcp_option_short>
    dhcp_option(dhcp, DHCP_OPTION_REQUESTED_IP, 4);
 8001d64:	2204      	movs	r2, #4
 8001d66:	2132      	movs	r1, #50	; 0x32
 8001d68:	4620      	mov	r0, r4
 8001d6a:	f7ff fdd1 	bl	8001910 <dhcp_option>
    dhcp_option_long(dhcp, ntohl(ip4_addr_get_u32(&dhcp->offered_ip_addr)));
 8001d6e:	6a60      	ldr	r0, [r4, #36]	; 0x24
 8001d70:	f7ff fdc4 	bl	80018fc <lwip_ntohl>
 8001d74:	4601      	mov	r1, r0
 8001d76:	4620      	mov	r0, r4
 8001d78:	f7ff fdf0 	bl	800195c <dhcp_option_long>
    dhcp_option_trailer(dhcp);
 8001d7c:	4620      	mov	r0, r4
 8001d7e:	f7ff fe08 	bl	8001992 <dhcp_option_trailer>
    pbuf_realloc(dhcp->p_out, sizeof(struct dhcp_msg) - DHCP_OPTIONS_LEN + dhcp->options_out_len);
 8001d82:	8b21      	ldrh	r1, [r4, #24]
 8001d84:	6920      	ldr	r0, [r4, #16]
 8001d86:	31f0      	adds	r1, #240	; 0xf0
 8001d88:	b289      	uxth	r1, r1
 8001d8a:	f001 fae8 	bl	800335e <pbuf_realloc>
    udp_sendto_if(dhcp->pcb, dhcp->p_out, IP_ADDR_BROADCAST, DHCP_SERVER_PORT, netif);
 8001d8e:	9600      	str	r6, [sp, #0]
 8001d90:	2343      	movs	r3, #67	; 0x43
 8001d92:	4a10      	ldr	r2, [pc, #64]	; (8001dd4 <dhcp_reboot+0xa0>)
 8001d94:	6921      	ldr	r1, [r4, #16]
 8001d96:	6860      	ldr	r0, [r4, #4]
 8001d98:	f003 fede 	bl	8005b58 <udp_sendto_if>
    dhcp_delete_msg(dhcp);
 8001d9c:	4620      	mov	r0, r4
 8001d9e:	f7ff fead 	bl	8001afc <dhcp_delete_msg>
  dhcp->tries++;
 8001da2:	7b63      	ldrb	r3, [r4, #13]
 8001da4:	3301      	adds	r3, #1
 8001da6:	b2db      	uxtb	r3, r3
  msecs = dhcp->tries < 10 ? dhcp->tries * 1000 : 10 * 1000;
 8001da8:	2b09      	cmp	r3, #9
 8001daa:	bf98      	it	ls
 8001dac:	ebc3 1243 	rsbls	r2, r3, r3, lsl #5
  dhcp->tries++;
 8001db0:	7363      	strb	r3, [r4, #13]
  msecs = dhcp->tries < 10 ? dhcp->tries * 1000 : 10 * 1000;
 8001db2:	bf9d      	ittte	ls
 8001db4:	eb03 0382 	addls.w	r3, r3, r2, lsl #2
 8001db8:	00db      	lslls	r3, r3, #3
 8001dba:	b29b      	uxthls	r3, r3
 8001dbc:	f242 7310 	movwhi	r3, #10000	; 0x2710
  dhcp->request_timeout = (msecs + DHCP_FINE_TIMER_MSECS - 1) / DHCP_FINE_TIMER_MSECS;
 8001dc0:	f44f 72fa 	mov.w	r2, #500	; 0x1f4
}
 8001dc4:	4628      	mov	r0, r5
  dhcp->request_timeout = (msecs + DHCP_FINE_TIMER_MSECS - 1) / DHCP_FINE_TIMER_MSECS;
 8001dc6:	f203 13f3 	addw	r3, r3, #499	; 0x1f3
 8001dca:	fb93 f3f2 	sdiv	r3, r3, r2
 8001dce:	8363      	strh	r3, [r4, #26]
}
 8001dd0:	b002      	add	sp, #8
 8001dd2:	bd70      	pop	{r4, r5, r6, pc}
 8001dd4:	08007478 	.word	0x08007478

08001dd8 <dhcp_check>:
{
 8001dd8:	b538      	push	{r3, r4, r5, lr}
  struct dhcp *dhcp = netif->dhcp;
 8001dda:	6a44      	ldr	r4, [r0, #36]	; 0x24
{
 8001ddc:	4605      	mov	r5, r0
  dhcp_set_state(dhcp, DHCP_CHECKING);
 8001dde:	2108      	movs	r1, #8
 8001de0:	4620      	mov	r0, r4
 8001de2:	f7ff fd8d 	bl	8001900 <dhcp_set_state>
  result = etharp_query(netif, &dhcp->offered_ip_addr, NULL);
 8001de6:	2200      	movs	r2, #0
 8001de8:	f104 0124 	add.w	r1, r4, #36	; 0x24
 8001dec:	4628      	mov	r0, r5
 8001dee:	f004 f863 	bl	8005eb8 <etharp_query>
  dhcp->tries++;
 8001df2:	7b63      	ldrb	r3, [r4, #13]
 8001df4:	3301      	adds	r3, #1
 8001df6:	7363      	strb	r3, [r4, #13]
  dhcp->request_timeout = (msecs + DHCP_FINE_TIMER_MSECS - 1) / DHCP_FINE_TIMER_MSECS;
 8001df8:	2301      	movs	r3, #1
 8001dfa:	8363      	strh	r3, [r4, #26]
 8001dfc:	bd38      	pop	{r3, r4, r5, pc}

08001dfe <dhcp_bind>:
{
 8001dfe:	b537      	push	{r0, r1, r2, r4, r5, lr}
  LWIP_ERROR("dhcp_bind: netif != NULL", (netif != NULL), return;);
 8001e00:	4605      	mov	r5, r0
 8001e02:	2800      	cmp	r0, #0
 8001e04:	d047      	beq.n	8001e96 <dhcp_bind+0x98>
  dhcp = netif->dhcp;
 8001e06:	6a44      	ldr	r4, [r0, #36]	; 0x24
  LWIP_ERROR("dhcp_bind: dhcp != NULL", (dhcp != NULL), return;);
 8001e08:	2c00      	cmp	r4, #0
 8001e0a:	d044      	beq.n	8001e96 <dhcp_bind+0x98>
  if (dhcp->offered_t1_renew != 0xffffffffUL) {
 8001e0c:	6b63      	ldr	r3, [r4, #52]	; 0x34
 8001e0e:	1c58      	adds	r0, r3, #1
 8001e10:	d00b      	beq.n	8001e2a <dhcp_bind+0x2c>
    timeout = (dhcp->offered_t1_renew + DHCP_COARSE_TIMER_SECS / 2) / DHCP_COARSE_TIMER_SECS;
 8001e12:	223c      	movs	r2, #60	; 0x3c
 8001e14:	331e      	adds	r3, #30
 8001e16:	fbb3 f3f2 	udiv	r3, r3, r2
 8001e1a:	f64f 72ff 	movw	r2, #65535	; 0xffff
 8001e1e:	4293      	cmp	r3, r2
 8001e20:	bf28      	it	cs
 8001e22:	4613      	movcs	r3, r2
    if (dhcp->t1_timeout == 0) {
 8001e24:	2b00      	cmp	r3, #0
 8001e26:	d038      	beq.n	8001e9a <dhcp_bind+0x9c>
      dhcp->t1_timeout = 1;
 8001e28:	83a3      	strh	r3, [r4, #28]
  if (dhcp->offered_t2_rebind != 0xffffffffUL) {
 8001e2a:	6ba3      	ldr	r3, [r4, #56]	; 0x38
 8001e2c:	1c59      	adds	r1, r3, #1
 8001e2e:	d00a      	beq.n	8001e46 <dhcp_bind+0x48>
    timeout = (dhcp->offered_t2_rebind + DHCP_COARSE_TIMER_SECS / 2) / DHCP_COARSE_TIMER_SECS;
 8001e30:	223c      	movs	r2, #60	; 0x3c
 8001e32:	331e      	adds	r3, #30
 8001e34:	fbb3 f3f2 	udiv	r3, r3, r2
 8001e38:	f64f 72ff 	movw	r2, #65535	; 0xffff
 8001e3c:	4293      	cmp	r3, r2
 8001e3e:	bf28      	it	cs
 8001e40:	4613      	movcs	r3, r2
    if (dhcp->t2_timeout == 0) {
 8001e42:	b363      	cbz	r3, 8001e9e <dhcp_bind+0xa0>
      dhcp->t2_timeout = 1;
 8001e44:	83e3      	strh	r3, [r4, #30]
  if ((dhcp->t1_timeout >= dhcp->t2_timeout) && (dhcp->t2_timeout > 0)) {
 8001e46:	8be3      	ldrh	r3, [r4, #30]
 8001e48:	8ba2      	ldrh	r2, [r4, #28]
 8001e4a:	429a      	cmp	r2, r3
 8001e4c:	d302      	bcc.n	8001e54 <dhcp_bind+0x56>
 8001e4e:	b10b      	cbz	r3, 8001e54 <dhcp_bind+0x56>
    dhcp->t1_timeout = 0;
 8001e50:	2300      	movs	r3, #0
 8001e52:	83a3      	strh	r3, [r4, #28]
  if (dhcp->subnet_mask_given) {
 8001e54:	7ba3      	ldrb	r3, [r4, #14]
 8001e56:	b323      	cbz	r3, 8001ea2 <dhcp_bind+0xa4>
    ip_addr_copy(sn_mask, dhcp->offered_sn_mask);
 8001e58:	6aa3      	ldr	r3, [r4, #40]	; 0x28
      ip4_addr_set_u32(&sn_mask, PP_HTONL(0xffff0000UL));
 8001e5a:	9300      	str	r3, [sp, #0]
  ip_addr_copy(gw_addr, dhcp->offered_gw_addr);
 8001e5c:	6ae3      	ldr	r3, [r4, #44]	; 0x2c
 8001e5e:	9301      	str	r3, [sp, #4]
  if (ip_addr_isany(&gw_addr)) {
 8001e60:	b92b      	cbnz	r3, 8001e6e <dhcp_bind+0x70>
    ip_addr_get_network(&gw_addr, &dhcp->offered_ip_addr, &sn_mask);
 8001e62:	6a63      	ldr	r3, [r4, #36]	; 0x24
 8001e64:	9a00      	ldr	r2, [sp, #0]
 8001e66:	4013      	ands	r3, r2
    ip4_addr_set_u32(&gw_addr, ip4_addr_get_u32(&gw_addr) | PP_HTONL(0x00000001UL));
 8001e68:	f043 7380 	orr.w	r3, r3, #16777216	; 0x1000000
 8001e6c:	9301      	str	r3, [sp, #4]
  netif_set_ipaddr(netif, &dhcp->offered_ip_addr);
 8001e6e:	f104 0124 	add.w	r1, r4, #36	; 0x24
 8001e72:	4628      	mov	r0, r5
 8001e74:	f001 f8bc 	bl	8002ff0 <netif_set_ipaddr>
  netif_set_netmask(netif, &sn_mask);
 8001e78:	4669      	mov	r1, sp
 8001e7a:	4628      	mov	r0, r5
 8001e7c:	f001 f91a 	bl	80030b4 <netif_set_netmask>
  netif_set_gw(netif, &gw_addr);
 8001e80:	a901      	add	r1, sp, #4
 8001e82:	4628      	mov	r0, r5
 8001e84:	f001 f912 	bl	80030ac <netif_set_gw>
  netif_set_up(netif);
 8001e88:	4628      	mov	r0, r5
 8001e8a:	f001 f91d 	bl	80030c8 <netif_set_up>
  dhcp_set_state(dhcp, DHCP_BOUND);
 8001e8e:	210a      	movs	r1, #10
 8001e90:	4620      	mov	r0, r4
 8001e92:	f7ff fd35 	bl	8001900 <dhcp_set_state>
}
 8001e96:	b003      	add	sp, #12
 8001e98:	bd30      	pop	{r4, r5, pc}
      dhcp->t1_timeout = 1;
 8001e9a:	2301      	movs	r3, #1
 8001e9c:	e7c4      	b.n	8001e28 <dhcp_bind+0x2a>
      dhcp->t2_timeout = 1;
 8001e9e:	2301      	movs	r3, #1
 8001ea0:	e7d0      	b.n	8001e44 <dhcp_bind+0x46>
    u8_t first_octet = ip4_addr1(&dhcp->offered_ip_addr);
 8001ea2:	f894 3024 	ldrb.w	r3, [r4, #36]	; 0x24
    if (first_octet <= 127) {
 8001ea6:	061a      	lsls	r2, r3, #24
 8001ea8:	d401      	bmi.n	8001eae <dhcp_bind+0xb0>
      ip4_addr_set_u32(&sn_mask, PP_HTONL(0xff000000UL));
 8001eaa:	23ff      	movs	r3, #255	; 0xff
 8001eac:	e7d5      	b.n	8001e5a <dhcp_bind+0x5c>
    } else if (first_octet >= 192) {
 8001eae:	2bbf      	cmp	r3, #191	; 0xbf
      ip4_addr_set_u32(&sn_mask, PP_HTONL(0xffffff00UL));
 8001eb0:	bf8c      	ite	hi
 8001eb2:	f06f 437f 	mvnhi.w	r3, #4278190080	; 0xff000000
      ip4_addr_set_u32(&sn_mask, PP_HTONL(0xffff0000UL));
 8001eb6:	f64f 73ff 	movwls	r3, #65535	; 0xffff
 8001eba:	e7ce      	b.n	8001e5a <dhcp_bind+0x5c>

08001ebc <dhcp_network_changed>:
{
 8001ebc:	b538      	push	{r3, r4, r5, lr}
  struct dhcp *dhcp = netif->dhcp;
 8001ebe:	6a45      	ldr	r5, [r0, #36]	; 0x24
{
 8001ec0:	4604      	mov	r4, r0
  if (!dhcp)
 8001ec2:	b1cd      	cbz	r5, 8001ef8 <dhcp_network_changed+0x3c>
  switch (dhcp->state) {
 8001ec4:	7b2b      	ldrb	r3, [r5, #12]
 8001ec6:	2b0a      	cmp	r3, #10
 8001ec8:	d810      	bhi.n	8001eec <dhcp_network_changed+0x30>
 8001eca:	e8df f003 	tbb	[pc, r3]
 8001ece:	0f15      	.short	0x0f15
 8001ed0:	0606060f 	.word	0x0606060f
 8001ed4:	0f0f0f0f 	.word	0x0f0f0f0f
 8001ed8:	06          	.byte	0x06
 8001ed9:	00          	.byte	0x00
    netif_set_down(netif);
 8001eda:	f001 f906 	bl	80030ea <netif_set_down>
    dhcp->tries = 0;
 8001ede:	2300      	movs	r3, #0
 8001ee0:	736b      	strb	r3, [r5, #13]
    dhcp_reboot(netif);
 8001ee2:	4620      	mov	r0, r4
}
 8001ee4:	e8bd 4038 	ldmia.w	sp!, {r3, r4, r5, lr}
    dhcp_reboot(netif);
 8001ee8:	f7ff bf24 	b.w	8001d34 <dhcp_reboot>
    dhcp->tries = 0;
 8001eec:	2300      	movs	r3, #0
 8001eee:	736b      	strb	r3, [r5, #13]
}
 8001ef0:	e8bd 4038 	ldmia.w	sp!, {r3, r4, r5, lr}
    dhcp_discover(netif);
 8001ef4:	f7ff be54 	b.w	8001ba0 <dhcp_discover>
 8001ef8:	bd38      	pop	{r3, r4, r5, pc}
	...

08001efc <dhcp_arp_reply>:
{
 8001efc:	b537      	push	{r0, r1, r2, r4, r5, lr}
  LWIP_ERROR("netif != NULL", (netif != NULL), return;);
 8001efe:	4605      	mov	r5, r0
 8001f00:	2800      	cmp	r0, #0
 8001f02:	d037      	beq.n	8001f74 <dhcp_arp_reply+0x78>
  if ((netif->dhcp != NULL) && (netif->dhcp->state == DHCP_CHECKING)) {
 8001f04:	6a44      	ldr	r4, [r0, #36]	; 0x24
 8001f06:	2c00      	cmp	r4, #0
 8001f08:	d034      	beq.n	8001f74 <dhcp_arp_reply+0x78>
 8001f0a:	7b23      	ldrb	r3, [r4, #12]
 8001f0c:	2b08      	cmp	r3, #8
 8001f0e:	d131      	bne.n	8001f74 <dhcp_arp_reply+0x78>
    if (ip_addr_cmp(addr, &netif->dhcp->offered_ip_addr)) {
 8001f10:	680a      	ldr	r2, [r1, #0]
 8001f12:	6a63      	ldr	r3, [r4, #36]	; 0x24
 8001f14:	429a      	cmp	r2, r3
 8001f16:	d12d      	bne.n	8001f74 <dhcp_arp_reply+0x78>
  dhcp_set_state(dhcp, DHCP_BACKING_OFF);
 8001f18:	210c      	movs	r1, #12
 8001f1a:	4620      	mov	r0, r4
 8001f1c:	f7ff fcf0 	bl	8001900 <dhcp_set_state>
  result = dhcp_create_msg(netif, dhcp, DHCP_DECLINE);
 8001f20:	2204      	movs	r2, #4
 8001f22:	4621      	mov	r1, r4
 8001f24:	4628      	mov	r0, r5
 8001f26:	f7ff fd49 	bl	80019bc <dhcp_create_msg>
  if (result == ERR_OK) {
 8001f2a:	b9f0      	cbnz	r0, 8001f6a <dhcp_arp_reply+0x6e>
    dhcp_option(dhcp, DHCP_OPTION_REQUESTED_IP, 4);
 8001f2c:	2204      	movs	r2, #4
 8001f2e:	2132      	movs	r1, #50	; 0x32
 8001f30:	4620      	mov	r0, r4
 8001f32:	f7ff fced 	bl	8001910 <dhcp_option>
    dhcp_option_long(dhcp, ntohl(ip4_addr_get_u32(&dhcp->offered_ip_addr)));
 8001f36:	6a60      	ldr	r0, [r4, #36]	; 0x24
 8001f38:	f7ff fce0 	bl	80018fc <lwip_ntohl>
 8001f3c:	4601      	mov	r1, r0
 8001f3e:	4620      	mov	r0, r4
 8001f40:	f7ff fd0c 	bl	800195c <dhcp_option_long>
    dhcp_option_trailer(dhcp);
 8001f44:	4620      	mov	r0, r4
 8001f46:	f7ff fd24 	bl	8001992 <dhcp_option_trailer>
    pbuf_realloc(dhcp->p_out, sizeof(struct dhcp_msg) - DHCP_OPTIONS_LEN + dhcp->options_out_len);
 8001f4a:	8b21      	ldrh	r1, [r4, #24]
 8001f4c:	6920      	ldr	r0, [r4, #16]
 8001f4e:	31f0      	adds	r1, #240	; 0xf0
 8001f50:	b289      	uxth	r1, r1
 8001f52:	f001 fa04 	bl	800335e <pbuf_realloc>
    udp_sendto_if(dhcp->pcb, dhcp->p_out, IP_ADDR_BROADCAST, DHCP_SERVER_PORT, netif);
 8001f56:	9500      	str	r5, [sp, #0]
 8001f58:	2343      	movs	r3, #67	; 0x43
 8001f5a:	4a07      	ldr	r2, [pc, #28]	; (8001f78 <dhcp_arp_reply+0x7c>)
 8001f5c:	6921      	ldr	r1, [r4, #16]
 8001f5e:	6860      	ldr	r0, [r4, #4]
 8001f60:	f003 fdfa 	bl	8005b58 <udp_sendto_if>
    dhcp_delete_msg(dhcp);
 8001f64:	4620      	mov	r0, r4
 8001f66:	f7ff fdc9 	bl	8001afc <dhcp_delete_msg>
  dhcp->tries++;
 8001f6a:	7b63      	ldrb	r3, [r4, #13]
 8001f6c:	3301      	adds	r3, #1
 8001f6e:	7363      	strb	r3, [r4, #13]
  dhcp->request_timeout = (msecs + DHCP_FINE_TIMER_MSECS - 1) / DHCP_FINE_TIMER_MSECS;
 8001f70:	2314      	movs	r3, #20
 8001f72:	8363      	strh	r3, [r4, #26]
}
 8001f74:	b003      	add	sp, #12
 8001f76:	bd30      	pop	{r4, r5, pc}
 8001f78:	08007478 	.word	0x08007478

08001f7c <dhcp_renew>:
{
 8001f7c:	b573      	push	{r0, r1, r4, r5, r6, lr}
  struct dhcp *dhcp = netif->dhcp;
 8001f7e:	6a44      	ldr	r4, [r0, #36]	; 0x24
{
 8001f80:	4606      	mov	r6, r0
  dhcp_set_state(dhcp, DHCP_RENEWING);
 8001f82:	2105      	movs	r1, #5
 8001f84:	4620      	mov	r0, r4
 8001f86:	f7ff fcbb 	bl	8001900 <dhcp_set_state>
  result = dhcp_create_msg(netif, dhcp, DHCP_REQUEST);
 8001f8a:	2203      	movs	r2, #3
 8001f8c:	4621      	mov	r1, r4
 8001f8e:	4630      	mov	r0, r6
 8001f90:	f7ff fd14 	bl	80019bc <dhcp_create_msg>
  if (result == ERR_OK) {
 8001f94:	4605      	mov	r5, r0
 8001f96:	b9e0      	cbnz	r0, 8001fd2 <dhcp_renew+0x56>
    dhcp_option(dhcp, DHCP_OPTION_MAX_MSG_SIZE, DHCP_OPTION_MAX_MSG_SIZE_LEN);
 8001f98:	2202      	movs	r2, #2
 8001f9a:	2139      	movs	r1, #57	; 0x39
 8001f9c:	4620      	mov	r0, r4
 8001f9e:	f7ff fcb7 	bl	8001910 <dhcp_option>
    dhcp_option_short(dhcp, DHCP_MAX_MSG_LEN(netif));
 8001fa2:	8d31      	ldrh	r1, [r6, #40]	; 0x28
 8001fa4:	4620      	mov	r0, r4
 8001fa6:	f7ff fcca 	bl	800193e <dhcp_option_short>
    dhcp_option_trailer(dhcp);
 8001faa:	4620      	mov	r0, r4
 8001fac:	f7ff fcf1 	bl	8001992 <dhcp_option_trailer>
    pbuf_realloc(dhcp->p_out, sizeof(struct dhcp_msg) - DHCP_OPTIONS_LEN + dhcp->options_out_len);
 8001fb0:	8b21      	ldrh	r1, [r4, #24]
 8001fb2:	6920      	ldr	r0, [r4, #16]
 8001fb4:	31f0      	adds	r1, #240	; 0xf0
 8001fb6:	b289      	uxth	r1, r1
 8001fb8:	f001 f9d1 	bl	800335e <pbuf_realloc>
    udp_sendto_if(dhcp->pcb, dhcp->p_out, &dhcp->server_ip_addr, DHCP_SERVER_PORT, netif);
 8001fbc:	9600      	str	r6, [sp, #0]
 8001fbe:	2343      	movs	r3, #67	; 0x43
 8001fc0:	f104 0220 	add.w	r2, r4, #32
 8001fc4:	6921      	ldr	r1, [r4, #16]
 8001fc6:	6860      	ldr	r0, [r4, #4]
 8001fc8:	f003 fdc6 	bl	8005b58 <udp_sendto_if>
    dhcp_delete_msg(dhcp);
 8001fcc:	4620      	mov	r0, r4
 8001fce:	f7ff fd95 	bl	8001afc <dhcp_delete_msg>
  dhcp->tries++;
 8001fd2:	7b63      	ldrb	r3, [r4, #13]
 8001fd4:	3301      	adds	r3, #1
 8001fd6:	b2db      	uxtb	r3, r3
  msecs = dhcp->tries < 10 ? dhcp->tries * 2000 : 20 * 1000;
 8001fd8:	2b09      	cmp	r3, #9
 8001fda:	bf98      	it	ls
 8001fdc:	ebc3 1243 	rsbls	r2, r3, r3, lsl #5
  dhcp->tries++;
 8001fe0:	7363      	strb	r3, [r4, #13]
  msecs = dhcp->tries < 10 ? dhcp->tries * 2000 : 20 * 1000;
 8001fe2:	bf9d      	ittte	ls
 8001fe4:	eb03 0382 	addls.w	r3, r3, r2, lsl #2
 8001fe8:	011b      	lslls	r3, r3, #4
 8001fea:	b29b      	uxthls	r3, r3
 8001fec:	f644 6320 	movwhi	r3, #20000	; 0x4e20
  dhcp->request_timeout = (msecs + DHCP_FINE_TIMER_MSECS - 1) / DHCP_FINE_TIMER_MSECS;
 8001ff0:	f44f 72fa 	mov.w	r2, #500	; 0x1f4
}
 8001ff4:	4628      	mov	r0, r5
  dhcp->request_timeout = (msecs + DHCP_FINE_TIMER_MSECS - 1) / DHCP_FINE_TIMER_MSECS;
 8001ff6:	f203 13f3 	addw	r3, r3, #499	; 0x1f3
 8001ffa:	fb93 f3f2 	sdiv	r3, r3, r2
 8001ffe:	8363      	strh	r3, [r4, #26]
}
 8002000:	b002      	add	sp, #8
 8002002:	bd70      	pop	{r4, r5, r6, pc}

08002004 <dhcp_coarse_tmr>:
  struct netif *netif = netif_list;
 8002004:	4b13      	ldr	r3, [pc, #76]	; (8002054 <dhcp_coarse_tmr+0x50>)
{
 8002006:	b510      	push	{r4, lr}
  struct netif *netif = netif_list;
 8002008:	681c      	ldr	r4, [r3, #0]
  while (netif != NULL) {
 800200a:	b904      	cbnz	r4, 800200e <dhcp_coarse_tmr+0xa>
}
 800200c:	bd10      	pop	{r4, pc}
    if (netif->dhcp != NULL) {
 800200e:	6a63      	ldr	r3, [r4, #36]	; 0x24
 8002010:	b173      	cbz	r3, 8002030 <dhcp_coarse_tmr+0x2c>
      if (netif->dhcp->t2_timeout-- == 1) {
 8002012:	8bda      	ldrh	r2, [r3, #30]
 8002014:	1e51      	subs	r1, r2, #1
 8002016:	2a01      	cmp	r2, #1
 8002018:	83d9      	strh	r1, [r3, #30]
 800201a:	d10b      	bne.n	8002034 <dhcp_coarse_tmr+0x30>
  if ((dhcp->state == DHCP_REQUESTING) || (dhcp->state == DHCP_BOUND) ||
 800201c:	7b1b      	ldrb	r3, [r3, #12]
 800201e:	f003 02fb 	and.w	r2, r3, #251	; 0xfb
 8002022:	2a01      	cmp	r2, #1
 8002024:	d001      	beq.n	800202a <dhcp_coarse_tmr+0x26>
 8002026:	2b0a      	cmp	r3, #10
 8002028:	d102      	bne.n	8002030 <dhcp_coarse_tmr+0x2c>
    dhcp_rebind(netif);
 800202a:	4620      	mov	r0, r4
 800202c:	f7ff fd72 	bl	8001b14 <dhcp_rebind>
    netif = netif->next;
 8002030:	6824      	ldr	r4, [r4, #0]
 8002032:	e7ea      	b.n	800200a <dhcp_coarse_tmr+0x6>
      } else if (netif->dhcp->t1_timeout-- == 1) {
 8002034:	8b9a      	ldrh	r2, [r3, #28]
 8002036:	1e51      	subs	r1, r2, #1
 8002038:	2a01      	cmp	r2, #1
 800203a:	8399      	strh	r1, [r3, #28]
 800203c:	d1f8      	bne.n	8002030 <dhcp_coarse_tmr+0x2c>
  if ((dhcp->state == DHCP_REQUESTING) || (dhcp->state == DHCP_BOUND) ||
 800203e:	7b1b      	ldrb	r3, [r3, #12]
 8002040:	f003 02fb 	and.w	r2, r3, #251	; 0xfb
 8002044:	2a01      	cmp	r2, #1
 8002046:	d001      	beq.n	800204c <dhcp_coarse_tmr+0x48>
 8002048:	2b0a      	cmp	r3, #10
 800204a:	d1f1      	bne.n	8002030 <dhcp_coarse_tmr+0x2c>
    dhcp_renew(netif);
 800204c:	4620      	mov	r0, r4
 800204e:	f7ff ff95 	bl	8001f7c <dhcp_renew>
 8002052:	e7ed      	b.n	8002030 <dhcp_coarse_tmr+0x2c>
 8002054:	20004e50 	.word	0x20004e50

08002058 <dhcp_release>:
{
 8002058:	b573      	push	{r0, r1, r4, r5, r6, lr}
  struct dhcp *dhcp = netif->dhcp;
 800205a:	6a44      	ldr	r4, [r0, #36]	; 0x24
{
 800205c:	4605      	mov	r5, r0
  dhcp_set_state(dhcp, DHCP_OFF);
 800205e:	2100      	movs	r1, #0
 8002060:	4620      	mov	r0, r4
 8002062:	f7ff fc4d 	bl	8001900 <dhcp_set_state>
  ip_addr_set_zero(&dhcp->server_ip_addr);
 8002066:	2300      	movs	r3, #0
 8002068:	6223      	str	r3, [r4, #32]
  ip_addr_set_zero(&dhcp->offered_ip_addr);
 800206a:	6263      	str	r3, [r4, #36]	; 0x24
  ip_addr_set_zero(&dhcp->offered_sn_mask);
 800206c:	62a3      	str	r3, [r4, #40]	; 0x28
  ip_addr_set_zero(&dhcp->offered_gw_addr);
 800206e:	62e3      	str	r3, [r4, #44]	; 0x2c
  dhcp->offered_t0_lease = dhcp->offered_t1_renew = dhcp->offered_t2_rebind = 0;
 8002070:	63a3      	str	r3, [r4, #56]	; 0x38
 8002072:	6363      	str	r3, [r4, #52]	; 0x34
 8002074:	6323      	str	r3, [r4, #48]	; 0x30
  result = dhcp_create_msg(netif, dhcp, DHCP_RELEASE);
 8002076:	2207      	movs	r2, #7
 8002078:	4621      	mov	r1, r4
 800207a:	4628      	mov	r0, r5
 800207c:	f7ff fc9e 	bl	80019bc <dhcp_create_msg>
  if (result == ERR_OK) {
 8002080:	4606      	mov	r6, r0
 8002082:	b998      	cbnz	r0, 80020ac <dhcp_release+0x54>
    dhcp_option_trailer(dhcp);
 8002084:	4620      	mov	r0, r4
 8002086:	f7ff fc84 	bl	8001992 <dhcp_option_trailer>
    pbuf_realloc(dhcp->p_out, sizeof(struct dhcp_msg) - DHCP_OPTIONS_LEN + dhcp->options_out_len);
 800208a:	8b21      	ldrh	r1, [r4, #24]
 800208c:	6920      	ldr	r0, [r4, #16]
 800208e:	31f0      	adds	r1, #240	; 0xf0
 8002090:	b289      	uxth	r1, r1
 8002092:	f001 f964 	bl	800335e <pbuf_realloc>
    udp_sendto_if(dhcp->pcb, dhcp->p_out, &dhcp->server_ip_addr, DHCP_SERVER_PORT, netif);
 8002096:	9500      	str	r5, [sp, #0]
 8002098:	2343      	movs	r3, #67	; 0x43
 800209a:	f104 0220 	add.w	r2, r4, #32
 800209e:	6921      	ldr	r1, [r4, #16]
 80020a0:	6860      	ldr	r0, [r4, #4]
 80020a2:	f003 fd59 	bl	8005b58 <udp_sendto_if>
    dhcp_delete_msg(dhcp);
 80020a6:	4620      	mov	r0, r4
 80020a8:	f7ff fd28 	bl	8001afc <dhcp_delete_msg>
  dhcp->tries++;
 80020ac:	7b63      	ldrb	r3, [r4, #13]
 80020ae:	3301      	adds	r3, #1
 80020b0:	b2db      	uxtb	r3, r3
  msecs = dhcp->tries < 10 ? dhcp->tries * 1000 : 10 * 1000;
 80020b2:	2b09      	cmp	r3, #9
 80020b4:	bf98      	it	ls
 80020b6:	ebc3 1243 	rsbls	r2, r3, r3, lsl #5
  dhcp->tries++;
 80020ba:	7363      	strb	r3, [r4, #13]
  msecs = dhcp->tries < 10 ? dhcp->tries * 1000 : 10 * 1000;
 80020bc:	bf9d      	ittte	ls
 80020be:	eb03 0382 	addls.w	r3, r3, r2, lsl #2
 80020c2:	00db      	lslls	r3, r3, #3
 80020c4:	b29b      	uxthls	r3, r3
 80020c6:	f242 7310 	movwhi	r3, #10000	; 0x2710
  dhcp->request_timeout = (msecs + DHCP_FINE_TIMER_MSECS - 1) / DHCP_FINE_TIMER_MSECS;
 80020ca:	f44f 72fa 	mov.w	r2, #500	; 0x1f4
  netif_set_down(netif);
 80020ce:	4628      	mov	r0, r5
  dhcp->request_timeout = (msecs + DHCP_FINE_TIMER_MSECS - 1) / DHCP_FINE_TIMER_MSECS;
 80020d0:	f203 13f3 	addw	r3, r3, #499	; 0x1f3
 80020d4:	fb93 f3f2 	sdiv	r3, r3, r2
 80020d8:	8363      	strh	r3, [r4, #26]
  netif_set_down(netif);
 80020da:	f001 f806 	bl	80030ea <netif_set_down>
  netif_set_ipaddr(netif, IP_ADDR_ANY);
 80020de:	4628      	mov	r0, r5
 80020e0:	4906      	ldr	r1, [pc, #24]	; (80020fc <dhcp_release+0xa4>)
 80020e2:	f000 ff85 	bl	8002ff0 <netif_set_ipaddr>
  netif_set_gw(netif, IP_ADDR_ANY);
 80020e6:	4628      	mov	r0, r5
 80020e8:	4904      	ldr	r1, [pc, #16]	; (80020fc <dhcp_release+0xa4>)
 80020ea:	f000 ffdf 	bl	80030ac <netif_set_gw>
  netif_set_netmask(netif, IP_ADDR_ANY);
 80020ee:	4628      	mov	r0, r5
 80020f0:	4902      	ldr	r1, [pc, #8]	; (80020fc <dhcp_release+0xa4>)
 80020f2:	f000 ffdf 	bl	80030b4 <netif_set_netmask>
}
 80020f6:	4630      	mov	r0, r6
 80020f8:	b002      	add	sp, #8
 80020fa:	bd70      	pop	{r4, r5, r6, pc}
 80020fc:	08007474 	.word	0x08007474

08002100 <dhcp_fine_tmr>:
{
 8002100:	b538      	push	{r3, r4, r5, lr}
  struct netif *netif = netif_list;
 8002102:	4b24      	ldr	r3, [pc, #144]	; (8002194 <dhcp_fine_tmr+0x94>)
 8002104:	681c      	ldr	r4, [r3, #0]
        netif->dhcp->request_timeout--;
 8002106:	2500      	movs	r5, #0
  while (netif != NULL) {
 8002108:	b904      	cbnz	r4, 800210c <dhcp_fine_tmr+0xc>
}
 800210a:	bd38      	pop	{r3, r4, r5, pc}
    if (netif->dhcp != NULL) {
 800210c:	6a63      	ldr	r3, [r4, #36]	; 0x24
 800210e:	b123      	cbz	r3, 800211a <dhcp_fine_tmr+0x1a>
      if (netif->dhcp->request_timeout > 1) {
 8002110:	8b5a      	ldrh	r2, [r3, #26]
 8002112:	2a01      	cmp	r2, #1
 8002114:	d903      	bls.n	800211e <dhcp_fine_tmr+0x1e>
        netif->dhcp->request_timeout--;
 8002116:	3a01      	subs	r2, #1
 8002118:	835a      	strh	r2, [r3, #26]
    netif = netif->next;
 800211a:	6824      	ldr	r4, [r4, #0]
 800211c:	e7f4      	b.n	8002108 <dhcp_fine_tmr+0x8>
      else if (netif->dhcp->request_timeout == 1) {
 800211e:	d1fc      	bne.n	800211a <dhcp_fine_tmr+0x1a>
  if ((dhcp->state == DHCP_BACKING_OFF) || (dhcp->state == DHCP_SELECTING)) {
 8002120:	7b1a      	ldrb	r2, [r3, #12]
        netif->dhcp->request_timeout--;
 8002122:	835d      	strh	r5, [r3, #26]
  if ((dhcp->state == DHCP_BACKING_OFF) || (dhcp->state == DHCP_SELECTING)) {
 8002124:	2a0c      	cmp	r2, #12
 8002126:	d001      	beq.n	800212c <dhcp_fine_tmr+0x2c>
 8002128:	2a06      	cmp	r2, #6
 800212a:	d103      	bne.n	8002134 <dhcp_fine_tmr+0x34>
      dhcp_discover(netif);
 800212c:	4620      	mov	r0, r4
      dhcp_discover(netif);
 800212e:	f7ff fd37 	bl	8001ba0 <dhcp_discover>
 8002132:	e7f2      	b.n	800211a <dhcp_fine_tmr+0x1a>
  } else if (dhcp->state == DHCP_REQUESTING) {
 8002134:	2a01      	cmp	r2, #1
 8002136:	d106      	bne.n	8002146 <dhcp_fine_tmr+0x46>
    if (dhcp->tries <= 5) {
 8002138:	7b5b      	ldrb	r3, [r3, #13]
 800213a:	2b05      	cmp	r3, #5
      dhcp_select(netif);
 800213c:	4620      	mov	r0, r4
    if (dhcp->tries <= 5) {
 800213e:	d81d      	bhi.n	800217c <dhcp_fine_tmr+0x7c>
      dhcp_select(netif);
 8002140:	f7ff fd88 	bl	8001c54 <dhcp_select>
 8002144:	e7e9      	b.n	800211a <dhcp_fine_tmr+0x1a>
  } else if (dhcp->state == DHCP_CHECKING) {
 8002146:	2a08      	cmp	r2, #8
 8002148:	d109      	bne.n	800215e <dhcp_fine_tmr+0x5e>
    if (dhcp->tries <= 1) {
 800214a:	7b5b      	ldrb	r3, [r3, #13]
 800214c:	2b01      	cmp	r3, #1
      dhcp_check(netif);
 800214e:	4620      	mov	r0, r4
    if (dhcp->tries <= 1) {
 8002150:	d802      	bhi.n	8002158 <dhcp_fine_tmr+0x58>
      dhcp_check(netif);
 8002152:	f7ff fe41 	bl	8001dd8 <dhcp_check>
 8002156:	e7e0      	b.n	800211a <dhcp_fine_tmr+0x1a>
      dhcp_bind(netif);
 8002158:	f7ff fe51 	bl	8001dfe <dhcp_bind>
 800215c:	e7dd      	b.n	800211a <dhcp_fine_tmr+0x1a>
  else if (dhcp->state == DHCP_RENEWING) {
 800215e:	2a05      	cmp	r2, #5
 8002160:	d103      	bne.n	800216a <dhcp_fine_tmr+0x6a>
    dhcp_renew(netif);
 8002162:	4620      	mov	r0, r4
 8002164:	f7ff ff0a 	bl	8001f7c <dhcp_renew>
 8002168:	e7d7      	b.n	800211a <dhcp_fine_tmr+0x1a>
  } else if (dhcp->state == DHCP_REBINDING) {
 800216a:	2a04      	cmp	r2, #4
 800216c:	d109      	bne.n	8002182 <dhcp_fine_tmr+0x82>
    if (dhcp->tries <= 8) {
 800216e:	7b5b      	ldrb	r3, [r3, #13]
 8002170:	2b08      	cmp	r3, #8
      dhcp_rebind(netif);
 8002172:	4620      	mov	r0, r4
    if (dhcp->tries <= 8) {
 8002174:	d802      	bhi.n	800217c <dhcp_fine_tmr+0x7c>
      dhcp_rebind(netif);
 8002176:	f7ff fccd 	bl	8001b14 <dhcp_rebind>
 800217a:	e7ce      	b.n	800211a <dhcp_fine_tmr+0x1a>
      dhcp_release(netif);
 800217c:	f7ff ff6c 	bl	8002058 <dhcp_release>
 8002180:	e7d4      	b.n	800212c <dhcp_fine_tmr+0x2c>
  } else if (dhcp->state == DHCP_REBOOTING) {
 8002182:	2a03      	cmp	r2, #3
 8002184:	d1c9      	bne.n	800211a <dhcp_fine_tmr+0x1a>
    if (dhcp->tries < REBOOT_TRIES) {
 8002186:	7b5b      	ldrb	r3, [r3, #13]
 8002188:	2b01      	cmp	r3, #1
      dhcp_reboot(netif);
 800218a:	4620      	mov	r0, r4
    if (dhcp->tries < REBOOT_TRIES) {
 800218c:	d8cf      	bhi.n	800212e <dhcp_fine_tmr+0x2e>
      dhcp_reboot(netif);
 800218e:	f7ff fdd1 	bl	8001d34 <dhcp_reboot>
 8002192:	e7c2      	b.n	800211a <dhcp_fine_tmr+0x1a>
 8002194:	20004e50 	.word	0x20004e50

08002198 <lwip_init>:
/**
 * Perform Sanity check of user-configurable values, and initialize all modules.
 */
void
lwip_init(void)
{
 8002198:	b508      	push	{r3, lr}
  /* Modules initialization */
  stats_init();
#if !NO_SYS
  sys_init();
#endif /* !NO_SYS */
  mem_init();
 800219a:	f000 fdcb 	bl	8002d34 <mem_init>
  memp_init();
 800219e:	f000 fedd 	bl	8002f5c <memp_init>
  pbuf_init();
  netif_init();
 80021a2:	f000 ff23 	bl	8002fec <netif_init>
#endif /* LWIP_ARP */
#if LWIP_RAW
  raw_init();
#endif /* LWIP_RAW */
#if LWIP_UDP
  udp_init();
 80021a6:	f003 fbc7 	bl	8005938 <udp_init>
#endif /* LWIP_UDP */
#if LWIP_TCP
  tcp_init();
 80021aa:	f001 fa09 	bl	80035c0 <tcp_init>
#endif /* LWIP_DNS */

#if LWIP_TIMERS
  sys_timeouts_init();
#endif /* LWIP_TIMERS */
}
 80021ae:	e8bd 4008 	ldmia.w	sp!, {r3, lr}
  sys_timeouts_init();
 80021b2:	f003 bb39 	b.w	8005828 <sys_timeouts_init>

080021b6 <icmp_send_response.isra.0>:
 *          p->payload pointing to the IP header
 * @param type Type of the ICMP header
 * @param code Code of the ICMP header
 */
static void
icmp_send_response(struct pbuf *p, u8_t type, u8_t code)
 80021b6:	e92d 41ff 	stmdb	sp!, {r0, r1, r2, r3, r4, r5, r6, r7, r8, lr}
 80021ba:	4604      	mov	r4, r0
 80021bc:	4688      	mov	r8, r1
 80021be:	4616      	mov	r6, r2
  /* we can use the echo header here */
  struct icmp_echo_hdr *icmphdr;
  ip_addr_t iphdr_src;

  /* ICMP header + IP header + 8 bytes of data */
  q = pbuf_alloc(PBUF_IP, sizeof(struct icmp_echo_hdr) + IP_HLEN + ICMP_DEST_UNREACH_DATASIZE,
 80021c0:	2124      	movs	r1, #36	; 0x24
 80021c2:	2200      	movs	r2, #0
 80021c4:	2001      	movs	r0, #1
 80021c6:	f001 f847 	bl	8003258 <pbuf_alloc>
                 PBUF_RAM);
  if (q == NULL) {
 80021ca:	4605      	mov	r5, r0
 80021cc:	b358      	cbz	r0, 8002226 <icmp_send_response.isra.0+0x70>
    return;
  }
  LWIP_ASSERT("check that first pbuf can hold icmp message",
             (q->len >= (sizeof(struct icmp_echo_hdr) + IP_HLEN + ICMP_DEST_UNREACH_DATASIZE)));

  iphdr = (struct ip_hdr *)p->payload;
 80021ce:	6827      	ldr	r7, [r4, #0]
  ip_addr_debug_print(ICMP_DEBUG, &(iphdr->src));
  LWIP_DEBUGF(ICMP_DEBUG, (" to "));
  ip_addr_debug_print(ICMP_DEBUG, &(iphdr->dest));
  LWIP_DEBUGF(ICMP_DEBUG, ("\n"));

  icmphdr = (struct icmp_echo_hdr *)q->payload;
 80021d0:	6844      	ldr	r4, [r0, #4]
  icmphdr->type = type;
  icmphdr->code = code;
  icmphdr->id = 0;
 80021d2:	2300      	movs	r3, #0
 80021d4:	7123      	strb	r3, [r4, #4]
 80021d6:	7163      	strb	r3, [r4, #5]
  icmphdr->seqno = 0;
 80021d8:	71a3      	strb	r3, [r4, #6]
 80021da:	71e3      	strb	r3, [r4, #7]
  icmphdr->type = type;
 80021dc:	f884 8000 	strb.w	r8, [r4]
  icmphdr->code = code;
 80021e0:	7066      	strb	r6, [r4, #1]

  /* copy fields from original packet */
  SMEMCPY((u8_t *)q->payload + sizeof(struct icmp_echo_hdr), (u8_t *)p->payload,
 80021e2:	463b      	mov	r3, r7
 80021e4:	f104 0208 	add.w	r2, r4, #8
 80021e8:	f107 011c 	add.w	r1, r7, #28
 80021ec:	f853 0b04 	ldr.w	r0, [r3], #4
 80021f0:	f842 0b04 	str.w	r0, [r2], #4
 80021f4:	428b      	cmp	r3, r1
 80021f6:	d1f9      	bne.n	80021ec <icmp_send_response.isra.0+0x36>
          IP_HLEN + ICMP_DEST_UNREACH_DATASIZE);

  /* calculate checksum */
  icmphdr->chksum = 0;
 80021f8:	2600      	movs	r6, #0
  icmphdr->chksum = inet_chksum(icmphdr, q->len);
 80021fa:	8969      	ldrh	r1, [r5, #10]
  icmphdr->chksum = 0;
 80021fc:	70a6      	strb	r6, [r4, #2]
 80021fe:	70e6      	strb	r6, [r4, #3]
  icmphdr->chksum = inet_chksum(icmphdr, q->len);
 8002200:	4620      	mov	r0, r4
 8002202:	f000 f924 	bl	800244e <inet_chksum>
  ICMP_STATS_INC(icmp.xmit);
  /* increase number of messages attempted to send */
  snmp_inc_icmpoutmsgs();
  /* increase number of destination unreachable messages attempted to send */
  snmp_inc_icmpouttimeexcds();
  ip_addr_copy(iphdr_src, iphdr->src);
 8002206:	aa04      	add	r2, sp, #16
  icmphdr->chksum = inet_chksum(icmphdr, q->len);
 8002208:	8060      	strh	r0, [r4, #2]
  ip_addr_copy(iphdr_src, iphdr->src);
 800220a:	68fb      	ldr	r3, [r7, #12]
 800220c:	f842 3d04 	str.w	r3, [r2, #-4]!
  ip_output(q, NULL, &iphdr_src, ICMP_TTL, 0, IP_PROTO_ICMP);
 8002210:	2301      	movs	r3, #1
 8002212:	9301      	str	r3, [sp, #4]
 8002214:	9600      	str	r6, [sp, #0]
 8002216:	23ff      	movs	r3, #255	; 0xff
 8002218:	4631      	mov	r1, r6
 800221a:	4628      	mov	r0, r5
 800221c:	f000 fa98 	bl	8002750 <ip_output>
  pbuf_free(q);
 8002220:	4628      	mov	r0, r5
 8002222:	f000 fff2 	bl	800320a <pbuf_free>
}
 8002226:	b004      	add	sp, #16
 8002228:	e8bd 81f0 	ldmia.w	sp!, {r4, r5, r6, r7, r8, pc}

0800222c <icmp_input>:
{
 800222c:	e92d 47ff 	stmdb	sp!, {r0, r1, r2, r3, r4, r5, r6, r7, r8, r9, sl, lr}
  iphdr = (struct ip_hdr *)p->payload;
 8002230:	6846      	ldr	r6, [r0, #4]
  hlen = IPH_HL(iphdr) * 4;
 8002232:	7835      	ldrb	r5, [r6, #0]
 8002234:	f005 050f 	and.w	r5, r5, #15
 8002238:	00ad      	lsls	r5, r5, #2
  if (pbuf_header(p, -hlen) || (p->tot_len < sizeof(u16_t)*2)) {
 800223a:	f1c5 0a00 	rsb	sl, r5, #0
 800223e:	fa0f fa8a 	sxth.w	sl, sl
{
 8002242:	460f      	mov	r7, r1
  if (pbuf_header(p, -hlen) || (p->tot_len < sizeof(u16_t)*2)) {
 8002244:	4651      	mov	r1, sl
{
 8002246:	4604      	mov	r4, r0
  if (pbuf_header(p, -hlen) || (p->tot_len < sizeof(u16_t)*2)) {
 8002248:	f000 ffb4 	bl	80031b4 <pbuf_header>
 800224c:	b998      	cbnz	r0, 8002276 <icmp_input+0x4a>
 800224e:	8923      	ldrh	r3, [r4, #8]
 8002250:	2b03      	cmp	r3, #3
 8002252:	d910      	bls.n	8002276 <icmp_input+0x4a>
  type = *((u8_t *)p->payload);
 8002254:	6863      	ldr	r3, [r4, #4]
  switch (type) {
 8002256:	781b      	ldrb	r3, [r3, #0]
 8002258:	2b08      	cmp	r3, #8
 800225a:	d10c      	bne.n	8002276 <icmp_input+0x4a>
      if (ip_addr_ismulticast(&current_iphdr_dest)) {
 800225c:	f8df 90f0 	ldr.w	r9, [pc, #240]	; 8002350 <icmp_input+0x124>
 8002260:	f8d9 0000 	ldr.w	r0, [r9]
      if (ip_addr_isbroadcast(&current_iphdr_dest, inp)) {
 8002264:	4639      	mov	r1, r7
      if (ip_addr_ismulticast(&current_iphdr_dest)) {
 8002266:	f000 08f0 	and.w	r8, r0, #240	; 0xf0
      if (ip_addr_isbroadcast(&current_iphdr_dest, inp)) {
 800226a:	f000 fa8d 	bl	8002788 <ip4_addr_isbroadcast>
 800226e:	b910      	cbnz	r0, 8002276 <icmp_input+0x4a>
      if (!accepted) {
 8002270:	f1b8 0fe0 	cmp.w	r8, #224	; 0xe0
 8002274:	d105      	bne.n	8002282 <icmp_input+0x56>
  pbuf_free(p);
 8002276:	4620      	mov	r0, r4
}
 8002278:	b004      	add	sp, #16
 800227a:	e8bd 47f0 	ldmia.w	sp!, {r4, r5, r6, r7, r8, r9, sl, lr}
  pbuf_free(p);
 800227e:	f000 bfc4 	b.w	800320a <pbuf_free>
    if (p->tot_len < sizeof(struct icmp_echo_hdr)) {
 8002282:	8923      	ldrh	r3, [r4, #8]
 8002284:	2b07      	cmp	r3, #7
 8002286:	d9f6      	bls.n	8002276 <icmp_input+0x4a>
    if (inet_chksum_pbuf(p) != 0) {
 8002288:	4620      	mov	r0, r4
 800228a:	f000 f8e6 	bl	800245a <inet_chksum_pbuf>
 800228e:	2800      	cmp	r0, #0
 8002290:	d1f1      	bne.n	8002276 <icmp_input+0x4a>
    if (pbuf_header(p, (PBUF_IP_HLEN + PBUF_LINK_HLEN))) {
 8002292:	2122      	movs	r1, #34	; 0x22
 8002294:	4620      	mov	r0, r4
  hlen = IPH_HL(iphdr) * 4;
 8002296:	b22d      	sxth	r5, r5
    if (pbuf_header(p, (PBUF_IP_HLEN + PBUF_LINK_HLEN))) {
 8002298:	f000 ff8c 	bl	80031b4 <pbuf_header>
 800229c:	2800      	cmp	r0, #0
 800229e:	d04c      	beq.n	800233a <icmp_input+0x10e>
      if (pbuf_header(p, hlen)) {
 80022a0:	4629      	mov	r1, r5
 80022a2:	4620      	mov	r0, r4
 80022a4:	f000 ff86 	bl	80031b4 <pbuf_header>
 80022a8:	4602      	mov	r2, r0
 80022aa:	2800      	cmp	r0, #0
 80022ac:	d1e3      	bne.n	8002276 <icmp_input+0x4a>
      r = pbuf_alloc(PBUF_LINK, p->tot_len, PBUF_RAM);
 80022ae:	8921      	ldrh	r1, [r4, #8]
 80022b0:	2002      	movs	r0, #2
 80022b2:	f000 ffd1 	bl	8003258 <pbuf_alloc>
      if (r == NULL) {
 80022b6:	4680      	mov	r8, r0
 80022b8:	2800      	cmp	r0, #0
 80022ba:	d0dc      	beq.n	8002276 <icmp_input+0x4a>
      if (pbuf_copy(r, p) != ERR_OK) {
 80022bc:	4621      	mov	r1, r4
 80022be:	f001 f897 	bl	80033f0 <pbuf_copy>
 80022c2:	2800      	cmp	r0, #0
 80022c4:	d1d7      	bne.n	8002276 <icmp_input+0x4a>
      if (pbuf_header(r, -hlen)) {
 80022c6:	4651      	mov	r1, sl
 80022c8:	4640      	mov	r0, r8
      iphdr = (struct ip_hdr *)r->payload;
 80022ca:	f8d8 6004 	ldr.w	r6, [r8, #4]
      if (pbuf_header(r, -hlen)) {
 80022ce:	f000 ff71 	bl	80031b4 <pbuf_header>
 80022d2:	2800      	cmp	r0, #0
 80022d4:	d1cf      	bne.n	8002276 <icmp_input+0x4a>
      pbuf_free(p);
 80022d6:	4620      	mov	r0, r4
 80022d8:	f000 ff97 	bl	800320a <pbuf_free>
 80022dc:	4644      	mov	r4, r8
    ip_addr_copy(iphdr->src, *ip_current_dest_addr());
 80022de:	f8d9 3000 	ldr.w	r3, [r9]
    iecho = (struct icmp_echo_hdr *)p->payload;
 80022e2:	6862      	ldr	r2, [r4, #4]
    ip_addr_copy(iphdr->src, *ip_current_dest_addr());
 80022e4:	60f3      	str	r3, [r6, #12]
    ip_addr_copy(iphdr->dest, *ip_current_src_addr());
 80022e6:	4b19      	ldr	r3, [pc, #100]	; (800234c <icmp_input+0x120>)
 80022e8:	681b      	ldr	r3, [r3, #0]
 80022ea:	6133      	str	r3, [r6, #16]
    ICMPH_TYPE_SET(iecho, ICMP_ER);
 80022ec:	2300      	movs	r3, #0
 80022ee:	7013      	strb	r3, [r2, #0]
    if (iecho->chksum >= PP_HTONS(0xffffU - (ICMP_ECHO << 8))) {
 80022f0:	8853      	ldrh	r3, [r2, #2]
 80022f2:	f64f 71f6 	movw	r1, #65526	; 0xfff6
 80022f6:	428b      	cmp	r3, r1
      iecho->chksum += PP_HTONS(ICMP_ECHO << 8) + 1;
 80022f8:	bf8c      	ite	hi
 80022fa:	3309      	addhi	r3, #9
      iecho->chksum += PP_HTONS(ICMP_ECHO << 8);
 80022fc:	3308      	addls	r3, #8
 80022fe:	8053      	strh	r3, [r2, #2]
    IPH_TTL_SET(iphdr, ICMP_TTL);
 8002300:	f04f 08ff 	mov.w	r8, #255	; 0xff
    IPH_CHKSUM_SET(iphdr, 0);
 8002304:	2300      	movs	r3, #0
 8002306:	72b3      	strb	r3, [r6, #10]
 8002308:	72f3      	strb	r3, [r6, #11]
    IPH_CHKSUM_SET(iphdr, inet_chksum(iphdr, IP_HLEN));
 800230a:	2114      	movs	r1, #20
    IPH_TTL_SET(iphdr, ICMP_TTL);
 800230c:	f886 8008 	strb.w	r8, [r6, #8]
    IPH_CHKSUM_SET(iphdr, inet_chksum(iphdr, IP_HLEN));
 8002310:	4630      	mov	r0, r6
 8002312:	f000 f89c 	bl	800244e <inet_chksum>
    if(pbuf_header(p, hlen)) {
 8002316:	4629      	mov	r1, r5
    IPH_CHKSUM_SET(iphdr, inet_chksum(iphdr, IP_HLEN));
 8002318:	8170      	strh	r0, [r6, #10]
    if(pbuf_header(p, hlen)) {
 800231a:	4620      	mov	r0, r4
 800231c:	f000 ff4a 	bl	80031b4 <pbuf_header>
 8002320:	4602      	mov	r2, r0
 8002322:	2800      	cmp	r0, #0
 8002324:	d1a7      	bne.n	8002276 <icmp_input+0x4a>
      ret = ip_output_if(p, ip_current_dest_addr(), IP_HDRINCL,
 8002326:	2301      	movs	r3, #1
 8002328:	e88d 000c 	stmia.w	sp, {r2, r3}
 800232c:	9702      	str	r7, [sp, #8]
 800232e:	4643      	mov	r3, r8
 8002330:	4907      	ldr	r1, [pc, #28]	; (8002350 <icmp_input+0x124>)
 8002332:	4620      	mov	r0, r4
 8002334:	f000 f996 	bl	8002664 <ip_output_if>
 8002338:	e79d      	b.n	8002276 <icmp_input+0x4a>
      if (pbuf_header(p, -(s16_t)(PBUF_IP_HLEN + PBUF_LINK_HLEN))) {
 800233a:	f06f 0121 	mvn.w	r1, #33	; 0x21
 800233e:	4620      	mov	r0, r4
 8002340:	f000 ff38 	bl	80031b4 <pbuf_header>
 8002344:	2800      	cmp	r0, #0
 8002346:	d196      	bne.n	8002276 <icmp_input+0x4a>
 8002348:	e7c9      	b.n	80022de <icmp_input+0xb2>
 800234a:	bf00      	nop
 800234c:	2000262c 	.word	0x2000262c
 8002350:	20002634 	.word	0x20002634

08002354 <icmp_dest_unreach>:
  icmp_send_response(p, ICMP_DUR, t);
 8002354:	460a      	mov	r2, r1
 8002356:	3004      	adds	r0, #4
 8002358:	2103      	movs	r1, #3
 800235a:	f7ff bf2c 	b.w	80021b6 <icmp_send_response.isra.0>

0800235e <icmp_time_exceeded>:
  icmp_send_response(p, ICMP_TE, t);
 800235e:	460a      	mov	r2, r1
 8002360:	3004      	adds	r0, #4
 8002362:	210b      	movs	r1, #11
 8002364:	f7ff bf27 	b.w	80021b6 <icmp_send_response.isra.0>

08002368 <lwip_standard_chksum>:
 * @return host order (!) lwip checksum (non-inverted Internet sum) 
 */

static u16_t
lwip_standard_chksum(void *dataptr, int len)
{
 8002368:	b513      	push	{r0, r1, r4, lr}
  u8_t *pb = (u8_t *)dataptr;
  u16_t *ps, t = 0;
 800236a:	2300      	movs	r3, #0
  u32_t sum = 0;
  int odd = ((mem_ptr_t)pb & 1);

  /* Get aligned to u16_t */
  if (odd && len > 0) {
 800236c:	f010 0201 	ands.w	r2, r0, #1
  u16_t *ps, t = 0;
 8002370:	f8ad 3006 	strh.w	r3, [sp, #6]
  if (odd && len > 0) {
 8002374:	d01f      	beq.n	80023b6 <lwip_standard_chksum+0x4e>
 8002376:	4299      	cmp	r1, r3
 8002378:	dd24      	ble.n	80023c4 <lwip_standard_chksum+0x5c>
    ((u8_t *)&t)[1] = *pb++;
 800237a:	1c43      	adds	r3, r0, #1
 800237c:	7800      	ldrb	r0, [r0, #0]
 800237e:	f88d 0007 	strb.w	r0, [sp, #7]
    len--;
 8002382:	3901      	subs	r1, #1
  u32_t sum = 0;
 8002384:	2000      	movs	r0, #0
  }

  /* Add the bulk of the data */
  ps = (u16_t *)(void *)pb;
  while (len > 1) {
 8002386:	2901      	cmp	r1, #1
 8002388:	dc17      	bgt.n	80023ba <lwip_standard_chksum+0x52>
    sum += *ps++;
    len -= 2;
  }

  /* Consume left-over byte, if any */
  if (len > 0) {
 800238a:	d102      	bne.n	8002392 <lwip_standard_chksum+0x2a>
    ((u8_t *)&t)[0] = *(u8_t *)ps;
 800238c:	781b      	ldrb	r3, [r3, #0]
 800238e:	f88d 3006 	strb.w	r3, [sp, #6]
  }

  /* Add end bytes */
  sum += t;
 8002392:	f8bd 3006 	ldrh.w	r3, [sp, #6]
 8002396:	4403      	add	r3, r0

  /* Fold 32-bit sum to 16 bits
     calling this twice is propably faster than if statements... */
  sum = FOLD_U32T(sum);
 8002398:	b298      	uxth	r0, r3
 800239a:	eb00 4313 	add.w	r3, r0, r3, lsr #16
  sum = FOLD_U32T(sum);
 800239e:	b298      	uxth	r0, r3
 80023a0:	eb00 4013 	add.w	r0, r0, r3, lsr #16

  /* Swap if alignment was odd */
  if (odd) {
 80023a4:	b122      	cbz	r2, 80023b0 <lwip_standard_chksum+0x48>
    sum = SWAP_BYTES_IN_WORD(sum);
 80023a6:	0203      	lsls	r3, r0, #8
 80023a8:	b29b      	uxth	r3, r3
 80023aa:	f3c0 2007 	ubfx	r0, r0, #8, #8
 80023ae:	4318      	orrs	r0, r3
  }

  return (u16_t)sum;
}
 80023b0:	b280      	uxth	r0, r0
 80023b2:	b002      	add	sp, #8
 80023b4:	bd10      	pop	{r4, pc}
 80023b6:	4603      	mov	r3, r0
 80023b8:	e7e4      	b.n	8002384 <lwip_standard_chksum+0x1c>
    sum += *ps++;
 80023ba:	f833 4b02 	ldrh.w	r4, [r3], #2
    len -= 2;
 80023be:	3902      	subs	r1, #2
    sum += *ps++;
 80023c0:	4420      	add	r0, r4
 80023c2:	e7e0      	b.n	8002386 <lwip_standard_chksum+0x1e>
  u32_t sum = 0;
 80023c4:	4618      	mov	r0, r3
 80023c6:	e7e4      	b.n	8002392 <lwip_standard_chksum+0x2a>

080023c8 <inet_chksum_pseudo>:
 */
u16_t
inet_chksum_pseudo(struct pbuf *p,
       ip_addr_t *src, ip_addr_t *dest,
       u8_t proto, u16_t proto_len)
{
 80023c8:	e92d 43f8 	stmdb	sp!, {r3, r4, r5, r6, r7, r8, r9, lr}
  u32_t addr;
  struct pbuf *q;
  u8_t swapped;

  acc = 0;
  swapped = 0;
 80023cc:	2500      	movs	r5, #0
{
 80023ce:	4606      	mov	r6, r0
 80023d0:	4688      	mov	r8, r1
 80023d2:	4691      	mov	r9, r2
 80023d4:	461f      	mov	r7, r3
  acc = 0;
 80023d6:	462c      	mov	r4, r5
  /* iterate through all pbuf in chain */
  for(q = p; q != NULL; q = q->next) {
 80023d8:	bb26      	cbnz	r6, 8002424 <inet_chksum_pseudo+0x5c>
      acc = SWAP_BYTES_IN_WORD(acc);
    }
    /*LWIP_DEBUGF(INET_DEBUG, ("inet_chksum_pseudo(): wrapped lwip_chksum()=%"X32_F" \n", acc));*/
  }

  if (swapped) {
 80023da:	b125      	cbz	r5, 80023e6 <inet_chksum_pseudo+0x1e>
    acc = SWAP_BYTES_IN_WORD(acc);
 80023dc:	0221      	lsls	r1, r4, #8
 80023de:	b289      	uxth	r1, r1
 80023e0:	f3c4 2407 	ubfx	r4, r4, #8, #8
 80023e4:	430c      	orrs	r4, r1
  }
  addr = ip4_addr_get_u32(src);
  acc += (addr & 0xffffUL);
  acc += ((addr >> 16) & 0xffffUL);
  addr = ip4_addr_get_u32(dest);
 80023e6:	f8d9 2000 	ldr.w	r2, [r9]
  addr = ip4_addr_get_u32(src);
 80023ea:	f8d8 3000 	ldr.w	r3, [r8]
  acc += (addr & 0xffffUL);
  acc += ((addr >> 16) & 0xffffUL);
 80023ee:	0c10      	lsrs	r0, r2, #16
 80023f0:	fa10 f082 	uxtah	r0, r0, r2
 80023f4:	fa10 f083 	uxtah	r0, r0, r3
 80023f8:	eb00 4013 	add.w	r0, r0, r3, lsr #16
 80023fc:	4404      	add	r4, r0
  acc += (u32_t)htons((u16_t)proto);
 80023fe:	4638      	mov	r0, r7
 8002400:	f7ff fa74 	bl	80018ec <lwip_htons>
 8002404:	4404      	add	r4, r0
  acc += (u32_t)htons(proto_len);
 8002406:	f8bd 0020 	ldrh.w	r0, [sp, #32]
 800240a:	f7ff fa6f 	bl	80018ec <lwip_htons>
 800240e:	4420      	add	r0, r4

  /* Fold 32-bit sum to 16 bits
     calling this twice is propably faster than if statements... */
  acc = FOLD_U32T(acc);
 8002410:	b284      	uxth	r4, r0
 8002412:	eb04 4410 	add.w	r4, r4, r0, lsr #16
  acc = FOLD_U32T(acc);
 8002416:	b2a0      	uxth	r0, r4
 8002418:	eb00 4014 	add.w	r0, r0, r4, lsr #16
  LWIP_DEBUGF(INET_DEBUG, ("inet_chksum_pseudo(): pbuf chain lwip_chksum()=%"X32_F"\n", acc));
  return (u16_t)~(acc & 0xffffUL);
 800241c:	43c0      	mvns	r0, r0
}
 800241e:	b280      	uxth	r0, r0
 8002420:	e8bd 83f8 	ldmia.w	sp!, {r3, r4, r5, r6, r7, r8, r9, pc}
    acc += LWIP_CHKSUM(q->payload, q->len);
 8002424:	8971      	ldrh	r1, [r6, #10]
 8002426:	6870      	ldr	r0, [r6, #4]
 8002428:	f7ff ff9e 	bl	8002368 <lwip_standard_chksum>
    if (q->len % 2 != 0) {
 800242c:	8973      	ldrh	r3, [r6, #10]
    acc += LWIP_CHKSUM(q->payload, q->len);
 800242e:	4404      	add	r4, r0
    acc = FOLD_U32T(acc);
 8002430:	b2a0      	uxth	r0, r4
    if (q->len % 2 != 0) {
 8002432:	07db      	lsls	r3, r3, #31
    acc = FOLD_U32T(acc);
 8002434:	eb00 4414 	add.w	r4, r0, r4, lsr #16
    if (q->len % 2 != 0) {
 8002438:	d507      	bpl.n	800244a <inet_chksum_pseudo+0x82>
      acc = SWAP_BYTES_IN_WORD(acc);
 800243a:	0223      	lsls	r3, r4, #8
      swapped = 1 - swapped;
 800243c:	f1c5 0501 	rsb	r5, r5, #1
      acc = SWAP_BYTES_IN_WORD(acc);
 8002440:	b29b      	uxth	r3, r3
 8002442:	f3c4 2407 	ubfx	r4, r4, #8, #8
      swapped = 1 - swapped;
 8002446:	b2ed      	uxtb	r5, r5
      acc = SWAP_BYTES_IN_WORD(acc);
 8002448:	431c      	orrs	r4, r3
  for(q = p; q != NULL; q = q->next) {
 800244a:	6836      	ldr	r6, [r6, #0]
 800244c:	e7c4      	b.n	80023d8 <inet_chksum_pseudo+0x10>

0800244e <inet_chksum>:
 * @return checksum (as u16_t) to be saved directly in the protocol header
 */

u16_t
inet_chksum(void *dataptr, u16_t len)
{
 800244e:	b508      	push	{r3, lr}
  return ~LWIP_CHKSUM(dataptr, len);
 8002450:	f7ff ff8a 	bl	8002368 <lwip_standard_chksum>
 8002454:	43c0      	mvns	r0, r0
}
 8002456:	b280      	uxth	r0, r0
 8002458:	bd08      	pop	{r3, pc}

0800245a <inet_chksum_pbuf>:
 * @param p pbuf chain over that the checksum should be calculated
 * @return checksum (as u16_t) to be saved directly in the protocol header
 */
u16_t
inet_chksum_pbuf(struct pbuf *p)
{
 800245a:	b570      	push	{r4, r5, r6, lr}
  u32_t acc;
  struct pbuf *q;
  u8_t swapped;

  acc = 0;
  swapped = 0;
 800245c:	2500      	movs	r5, #0
{
 800245e:	4606      	mov	r6, r0
  acc = 0;
 8002460:	462c      	mov	r4, r5
  for(q = p; q != NULL; q = q->next) {
 8002462:	b946      	cbnz	r6, 8002476 <inet_chksum_pbuf+0x1c>
      swapped = 1 - swapped;
      acc = SWAP_BYTES_IN_WORD(acc);
    }
  }

  if (swapped) {
 8002464:	b125      	cbz	r5, 8002470 <inet_chksum_pbuf+0x16>
    acc = SWAP_BYTES_IN_WORD(acc);
 8002466:	0223      	lsls	r3, r4, #8
 8002468:	b29b      	uxth	r3, r3
 800246a:	f3c4 2407 	ubfx	r4, r4, #8, #8
 800246e:	431c      	orrs	r4, r3
  }
  return (u16_t)~(acc & 0xffffUL);
 8002470:	43e0      	mvns	r0, r4
}
 8002472:	b280      	uxth	r0, r0
 8002474:	bd70      	pop	{r4, r5, r6, pc}
    acc += LWIP_CHKSUM(q->payload, q->len);
 8002476:	8971      	ldrh	r1, [r6, #10]
 8002478:	6870      	ldr	r0, [r6, #4]
 800247a:	f7ff ff75 	bl	8002368 <lwip_standard_chksum>
    if (q->len % 2 != 0) {
 800247e:	8973      	ldrh	r3, [r6, #10]
    acc += LWIP_CHKSUM(q->payload, q->len);
 8002480:	4420      	add	r0, r4
    acc = FOLD_U32T(acc);
 8002482:	b284      	uxth	r4, r0
    if (q->len % 2 != 0) {
 8002484:	07db      	lsls	r3, r3, #31
    acc = FOLD_U32T(acc);
 8002486:	eb04 4410 	add.w	r4, r4, r0, lsr #16
    if (q->len % 2 != 0) {
 800248a:	d507      	bpl.n	800249c <inet_chksum_pbuf+0x42>
      acc = SWAP_BYTES_IN_WORD(acc);
 800248c:	0223      	lsls	r3, r4, #8
      swapped = 1 - swapped;
 800248e:	f1c5 0501 	rsb	r5, r5, #1
      acc = SWAP_BYTES_IN_WORD(acc);
 8002492:	b29b      	uxth	r3, r3
 8002494:	f3c4 2407 	ubfx	r4, r4, #8, #8
      swapped = 1 - swapped;
 8002498:	b2ed      	uxtb	r5, r5
      acc = SWAP_BYTES_IN_WORD(acc);
 800249a:	431c      	orrs	r4, r3
  for(q = p; q != NULL; q = q->next) {
 800249c:	6836      	ldr	r6, [r6, #0]
 800249e:	e7e0      	b.n	8002462 <inet_chksum_pbuf+0x8>

080024a0 <ip_route>:
    return netif;
  }
#endif

  /* iterate through netifs */
  for (netif = netif_list; netif != NULL; netif = netif->next) {
 80024a0:	4b0c      	ldr	r3, [pc, #48]	; (80024d4 <ip_route+0x34>)
 80024a2:	681b      	ldr	r3, [r3, #0]
 80024a4:	b94b      	cbnz	r3, 80024ba <ip_route+0x1a>
        /* return netif on which to forward IP packet */
        return netif;
      }
    }
  }
  if ((netif_default == NULL) || (!netif_is_up(netif_default))) {
 80024a6:	4a0c      	ldr	r2, [pc, #48]	; (80024d8 <ip_route+0x38>)
 80024a8:	6812      	ldr	r2, [r2, #0]
 80024aa:	b182      	cbz	r2, 80024ce <ip_route+0x2e>
 80024ac:	f892 1031 	ldrb.w	r1, [r2, #49]	; 0x31
 80024b0:	f011 0f01 	tst.w	r1, #1
 80024b4:	bf18      	it	ne
 80024b6:	4613      	movne	r3, r2
 80024b8:	e009      	b.n	80024ce <ip_route+0x2e>
    if (netif_is_up(netif)) {
 80024ba:	f893 2031 	ldrb.w	r2, [r3, #49]	; 0x31
 80024be:	07d2      	lsls	r2, r2, #31
 80024c0:	d5ef      	bpl.n	80024a2 <ip_route+0x2>
      if (ip_addr_netcmp(dest, &(netif->ip_addr), &(netif->netmask))) {
 80024c2:	6859      	ldr	r1, [r3, #4]
 80024c4:	6802      	ldr	r2, [r0, #0]
 80024c6:	404a      	eors	r2, r1
 80024c8:	6899      	ldr	r1, [r3, #8]
 80024ca:	420a      	tst	r2, r1
 80024cc:	d1e9      	bne.n	80024a2 <ip_route+0x2>
    snmp_inc_ipoutnoroutes();
    return NULL;
  }
  /* no matching netif found, use default netif */
  return netif_default;
}
 80024ce:	4618      	mov	r0, r3
 80024d0:	4770      	bx	lr
 80024d2:	bf00      	nop
 80024d4:	20004e50 	.word	0x20004e50
 80024d8:	20004e54 	.word	0x20004e54

080024dc <ip_input>:
 * @return ERR_OK if the packet was processed (could return ERR_* if it wasn't
 *         processed, but currently always returns ERR_OK)
 */
err_t
ip_input(struct pbuf *p, struct netif *inp)
{
 80024dc:	e92d 4ff7 	stmdb	sp!, {r0, r1, r2, r4, r5, r6, r7, r8, r9, sl, fp, lr}

  IP_STATS_INC(ip.recv);
  snmp_inc_ipinreceives();

  /* identify the IP header */
  iphdr = (struct ip_hdr *)p->payload;
 80024e0:	6845      	ldr	r5, [r0, #4]
  if (IPH_V(iphdr) != 4) {
 80024e2:	f895 8000 	ldrb.w	r8, [r5]
 80024e6:	ea4f 1318 	mov.w	r3, r8, lsr #4
 80024ea:	2b04      	cmp	r3, #4
{
 80024ec:	4604      	mov	r4, r0
 80024ee:	460f      	mov	r7, r1
  if (IPH_V(iphdr) != 4) {
 80024f0:	d006      	beq.n	8002500 <ip_input+0x24>
    LWIP_DEBUGF(IP_DEBUG | LWIP_DBG_LEVEL_WARNING, ("IP packet dropped due to bad version number %"U16_F"\n", IPH_V(iphdr)));
    ip_debug_print(p);
    pbuf_free(p);
 80024f2:	4620      	mov	r0, r4
 80024f4:	f000 fe89 	bl	800320a <pbuf_free>
  current_header = NULL;
  ip_addr_set_any(&current_iphdr_src);
  ip_addr_set_any(&current_iphdr_dest);

  return ERR_OK;
}
 80024f8:	2000      	movs	r0, #0
 80024fa:	b003      	add	sp, #12
 80024fc:	e8bd 8ff0 	ldmia.w	sp!, {r4, r5, r6, r7, r8, r9, sl, fp, pc}
  iphdr_len = ntohs(IPH_LEN(iphdr));
 8002500:	8868      	ldrh	r0, [r5, #2]
 8002502:	f7ff f9f6 	bl	80018f2 <lwip_ntohs>
  iphdr_hlen = IPH_HL(iphdr);
 8002506:	f008 080f 	and.w	r8, r8, #15
  if ((iphdr_hlen > p->len) || (iphdr_len > p->tot_len)) {
 800250a:	8963      	ldrh	r3, [r4, #10]
  iphdr_hlen *= 4;
 800250c:	ea4f 0888 	mov.w	r8, r8, lsl #2
  if ((iphdr_hlen > p->len) || (iphdr_len > p->tot_len)) {
 8002510:	4543      	cmp	r3, r8
  iphdr_len = ntohs(IPH_LEN(iphdr));
 8002512:	4606      	mov	r6, r0
  if ((iphdr_hlen > p->len) || (iphdr_len > p->tot_len)) {
 8002514:	d3ed      	bcc.n	80024f2 <ip_input+0x16>
 8002516:	8923      	ldrh	r3, [r4, #8]
 8002518:	4283      	cmp	r3, r0
 800251a:	d3ea      	bcc.n	80024f2 <ip_input+0x16>
  if (inet_chksum(iphdr, iphdr_hlen) != 0) {
 800251c:	4641      	mov	r1, r8
 800251e:	4628      	mov	r0, r5
 8002520:	f7ff ff95 	bl	800244e <inet_chksum>
 8002524:	2800      	cmp	r0, #0
 8002526:	d1e4      	bne.n	80024f2 <ip_input+0x16>
  pbuf_realloc(p, iphdr_len);
 8002528:	4631      	mov	r1, r6
 800252a:	4620      	mov	r0, r4
 800252c:	f000 ff17 	bl	800335e <pbuf_realloc>
  ip_addr_copy(current_iphdr_dest, iphdr->dest);
 8002530:	4a47      	ldr	r2, [pc, #284]	; (8002650 <ip_input+0x174>)
 8002532:	692b      	ldr	r3, [r5, #16]
 8002534:	6013      	str	r3, [r2, #0]
  ip_addr_copy(current_iphdr_src, iphdr->src);
 8002536:	4b47      	ldr	r3, [pc, #284]	; (8002654 <ip_input+0x178>)
 8002538:	68e9      	ldr	r1, [r5, #12]
 800253a:	6019      	str	r1, [r3, #0]
 800253c:	469a      	mov	sl, r3
        netif = netif_list;
 800253e:	4b46      	ldr	r3, [pc, #280]	; (8002658 <ip_input+0x17c>)
  ip_addr_copy(current_iphdr_src, iphdr->src);
 8002540:	463e      	mov	r6, r7
    int first = 1;
 8002542:	f04f 0b01 	mov.w	fp, #1
 8002546:	4691      	mov	r9, r2
      if ((netif_is_up(netif)) && (!ip_addr_isany(&(netif->ip_addr)))) {
 8002548:	f896 2031 	ldrb.w	r2, [r6, #49]	; 0x31
 800254c:	07d2      	lsls	r2, r2, #31
 800254e:	d404      	bmi.n	800255a <ip_input+0x7e>
      if (first) {
 8002550:	f1bb 0f00 	cmp.w	fp, #0
 8002554:	d141      	bne.n	80025da <ip_input+0xfe>
        netif = netif->next;
 8002556:	6836      	ldr	r6, [r6, #0]
 8002558:	e040      	b.n	80025dc <ip_input+0x100>
      if ((netif_is_up(netif)) && (!ip_addr_isany(&(netif->ip_addr)))) {
 800255a:	6872      	ldr	r2, [r6, #4]
 800255c:	2a00      	cmp	r2, #0
 800255e:	d0f7      	beq.n	8002550 <ip_input+0x74>
        if (ip_addr_cmp(&current_iphdr_dest, &(netif->ip_addr)) ||
 8002560:	f8d9 0000 	ldr.w	r0, [r9]
 8002564:	9301      	str	r3, [sp, #4]
 8002566:	4282      	cmp	r2, r0
 8002568:	d005      	beq.n	8002576 <ip_input+0x9a>
            ip_addr_isbroadcast(&current_iphdr_dest, netif)) {
 800256a:	4631      	mov	r1, r6
 800256c:	f000 f90c 	bl	8002788 <ip4_addr_isbroadcast>
        if (ip_addr_cmp(&current_iphdr_dest, &(netif->ip_addr)) ||
 8002570:	9b01      	ldr	r3, [sp, #4]
 8002572:	2800      	cmp	r0, #0
 8002574:	d0ec      	beq.n	8002550 <ip_input+0x74>
  if (check_ip_src && !ip_addr_isany(&current_iphdr_src))
 8002576:	f8da 0000 	ldr.w	r0, [sl]
 800257a:	b150      	cbz	r0, 8002592 <ip_input+0xb6>
  {  if ((ip_addr_isbroadcast(&current_iphdr_src, inp)) ||
 800257c:	4639      	mov	r1, r7
 800257e:	f000 f903 	bl	8002788 <ip4_addr_isbroadcast>
 8002582:	2800      	cmp	r0, #0
 8002584:	d1b5      	bne.n	80024f2 <ip_input+0x16>
         (ip_addr_ismulticast(&current_iphdr_src))) {
 8002586:	f8da 3000 	ldr.w	r3, [sl]
 800258a:	f003 03f0 	and.w	r3, r3, #240	; 0xf0
  {  if ((ip_addr_isbroadcast(&current_iphdr_src, inp)) ||
 800258e:	2be0      	cmp	r3, #224	; 0xe0
 8002590:	d0af      	beq.n	80024f2 <ip_input+0x16>
  if (netif == NULL) {
 8002592:	2e00      	cmp	r6, #0
 8002594:	d0ad      	beq.n	80024f2 <ip_input+0x16>
  if ((IPH_OFFSET(iphdr) & PP_HTONS(IP_OFFMASK | IP_MF)) != 0) {
 8002596:	88eb      	ldrh	r3, [r5, #6]
 8002598:	f023 03c0 	bic.w	r3, r3, #192	; 0xc0
 800259c:	b133      	cbz	r3, 80025ac <ip_input+0xd0>
    p = ip_reass(p);
 800259e:	4620      	mov	r0, r4
 80025a0:	f000 f9ae 	bl	8002900 <ip_reass>
    if (p == NULL) {
 80025a4:	4604      	mov	r4, r0
 80025a6:	2800      	cmp	r0, #0
 80025a8:	d0a6      	beq.n	80024f8 <ip_input+0x1c>
    iphdr = (struct ip_hdr *)p->payload;
 80025aa:	6845      	ldr	r5, [r0, #4]
  current_netif = inp;
 80025ac:	f8df 80b0 	ldr.w	r8, [pc, #176]	; 8002660 <ip_input+0x184>
  current_header = iphdr;
 80025b0:	4e2a      	ldr	r6, [pc, #168]	; (800265c <ip_input+0x180>)
  current_netif = inp;
 80025b2:	f8c8 7000 	str.w	r7, [r8]
  if (raw_input(p, inp) == 0)
 80025b6:	4639      	mov	r1, r7
 80025b8:	4620      	mov	r0, r4
  current_header = iphdr;
 80025ba:	6035      	str	r5, [r6, #0]
  if (raw_input(p, inp) == 0)
 80025bc:	f000 ff96 	bl	80034ec <raw_input>
 80025c0:	bb10      	cbnz	r0, 8002608 <ip_input+0x12c>
    switch (IPH_PROTO(iphdr)) {
 80025c2:	7a6b      	ldrb	r3, [r5, #9]
 80025c4:	2b06      	cmp	r3, #6
 80025c6:	d028      	beq.n	800261a <ip_input+0x13e>
 80025c8:	2b11      	cmp	r3, #17
 80025ca:	d019      	beq.n	8002600 <ip_input+0x124>
 80025cc:	2b01      	cmp	r3, #1
 80025ce:	d129      	bne.n	8002624 <ip_input+0x148>
      icmp_input(p, inp);
 80025d0:	4639      	mov	r1, r7
 80025d2:	4620      	mov	r0, r4
 80025d4:	f7ff fe2a 	bl	800222c <icmp_input>
      break;
 80025d8:	e016      	b.n	8002608 <ip_input+0x12c>
        netif = netif_list;
 80025da:	681e      	ldr	r6, [r3, #0]
      if (netif == inp) {
 80025dc:	42be      	cmp	r6, r7
        netif = netif->next;
 80025de:	bf08      	it	eq
 80025e0:	6836      	ldreq	r6, [r6, #0]
 80025e2:	f04f 0b00 	mov.w	fp, #0
    } while(netif != NULL);
 80025e6:	2e00      	cmp	r6, #0
 80025e8:	d1ae      	bne.n	8002548 <ip_input+0x6c>
    if (IPH_PROTO(iphdr) == IP_PROTO_UDP) {
 80025ea:	7a6b      	ldrb	r3, [r5, #9]
 80025ec:	2b11      	cmp	r3, #17
 80025ee:	d1c2      	bne.n	8002576 <ip_input+0x9a>
      if (IP_ACCEPT_LINK_LAYER_ADDRESSED_PORT(udphdr->dest)) {
 80025f0:	44a8      	add	r8, r5
 80025f2:	f8b8 3002 	ldrh.w	r3, [r8, #2]
 80025f6:	f5b3 4f88 	cmp.w	r3, #17408	; 0x4400
 80025fa:	d1bc      	bne.n	8002576 <ip_input+0x9a>
 80025fc:	463e      	mov	r6, r7
 80025fe:	e7c8      	b.n	8002592 <ip_input+0xb6>
      udp_input(p, inp);
 8002600:	4639      	mov	r1, r7
 8002602:	4620      	mov	r0, r4
 8002604:	f003 f99a 	bl	800593c <udp_input>
  current_netif = NULL;
 8002608:	2300      	movs	r3, #0
 800260a:	f8c8 3000 	str.w	r3, [r8]
  current_header = NULL;
 800260e:	6033      	str	r3, [r6, #0]
  ip_addr_set_any(&current_iphdr_src);
 8002610:	f8ca 3000 	str.w	r3, [sl]
  ip_addr_set_any(&current_iphdr_dest);
 8002614:	f8c9 3000 	str.w	r3, [r9]
  return ERR_OK;
 8002618:	e76e      	b.n	80024f8 <ip_input+0x1c>
      tcp_input(p, inp);
 800261a:	4639      	mov	r1, r7
 800261c:	4620      	mov	r0, r4
 800261e:	f001 ff33 	bl	8004488 <tcp_input>
      break;
 8002622:	e7f1      	b.n	8002608 <ip_input+0x12c>
      if (!ip_addr_isbroadcast(&current_iphdr_dest, inp) &&
 8002624:	4639      	mov	r1, r7
 8002626:	f8d9 0000 	ldr.w	r0, [r9]
 800262a:	f000 f8ad 	bl	8002788 <ip4_addr_isbroadcast>
 800262e:	b950      	cbnz	r0, 8002646 <ip_input+0x16a>
          !ip_addr_ismulticast(&current_iphdr_dest)) {
 8002630:	f8d9 3000 	ldr.w	r3, [r9]
 8002634:	f003 03f0 	and.w	r3, r3, #240	; 0xf0
      if (!ip_addr_isbroadcast(&current_iphdr_dest, inp) &&
 8002638:	2be0      	cmp	r3, #224	; 0xe0
 800263a:	d004      	beq.n	8002646 <ip_input+0x16a>
        p->payload = iphdr;
 800263c:	6065      	str	r5, [r4, #4]
        icmp_dest_unreach(p, ICMP_DUR_PROTO);
 800263e:	2102      	movs	r1, #2
 8002640:	4620      	mov	r0, r4
 8002642:	f7ff fe87 	bl	8002354 <icmp_dest_unreach>
      pbuf_free(p);
 8002646:	4620      	mov	r0, r4
 8002648:	f000 fddf 	bl	800320a <pbuf_free>
 800264c:	e7dc      	b.n	8002608 <ip_input+0x12c>
 800264e:	bf00      	nop
 8002650:	20002634 	.word	0x20002634
 8002654:	2000262c 	.word	0x2000262c
 8002658:	20004e50 	.word	0x20004e50
 800265c:	20002638 	.word	0x20002638
 8002660:	20002630 	.word	0x20002630

08002664 <ip_output_if>:
 */
err_t
ip_output_if(struct pbuf *p, ip_addr_t *src, ip_addr_t *dest,
             u8_t ttl, u8_t tos,
             u8_t proto, struct netif *netif)
{
 8002664:	e92d 4ff0 	stmdb	sp!, {r4, r5, r6, r7, r8, r9, sl, fp, lr}
 8002668:	b085      	sub	sp, #20
 800266a:	461c      	mov	r4, r3
 800266c:	f89d 303c 	ldrb.w	r3, [sp, #60]	; 0x3c
 8002670:	f89d a038 	ldrb.w	sl, [sp, #56]	; 0x38
 8002674:	9301      	str	r3, [sp, #4]
 8002676:	4606      	mov	r6, r0
 8002678:	4689      	mov	r9, r1
 800267a:	9f10      	ldr	r7, [sp, #64]	; 0x40
  LWIP_ASSERT("p->ref == 1", p->ref == 1);

  snmp_inc_ipoutrequests();

  /* Should the IP header be generated or is it already included in p? */
  if (dest != IP_HDRINCL) {
 800267c:	4690      	mov	r8, r2
 800267e:	2a00      	cmp	r2, #0
 8002680:	d054      	beq.n	800272c <ip_output_if+0xc8>
      }
#endif /* CHECKSUM_GEN_IP_INLINE */
    }
#endif /* IP_OPTIONS_SEND */
    /* generate IP header */
    if (pbuf_header(p, IP_HLEN)) {
 8002682:	2114      	movs	r1, #20
 8002684:	f000 fd96 	bl	80031b4 <pbuf_header>
 8002688:	4683      	mov	fp, r0
 800268a:	2800      	cmp	r0, #0
 800268c:	d15b      	bne.n	8002746 <ip_output_if+0xe2>
      IP_STATS_INC(ip.err);
      snmp_inc_ipoutdiscards();
      return ERR_BUF;
    }

    iphdr = (struct ip_hdr *)p->payload;
 800268e:	6875      	ldr	r5, [r6, #4]
    LWIP_ASSERT("check that first pbuf can hold struct ip_hdr",
               (p->len >= sizeof(struct ip_hdr)));

    IPH_TTL_SET(iphdr, ttl);
    IPH_PROTO_SET(iphdr, proto);
 8002690:	9b01      	ldr	r3, [sp, #4]
 8002692:	726b      	strb	r3, [r5, #9]
    IPH_TTL_SET(iphdr, ttl);
 8002694:	722c      	strb	r4, [r5, #8]
#if CHECKSUM_GEN_IP_INLINE
    chk_sum += LWIP_MAKE_U16(proto, ttl);
#endif /* CHECKSUM_GEN_IP_INLINE */

    /* dest cannot be NULL here */
    ip_addr_copy(iphdr->dest, *dest);
 8002696:	f8d8 0000 	ldr.w	r0, [r8]
    chk_sum += ip4_addr_get_u32(&iphdr->dest) & 0xFFFF;
    chk_sum += ip4_addr_get_u32(&iphdr->dest) >> 16;
#endif /* CHECKSUM_GEN_IP_INLINE */

    IPH_VHL_SET(iphdr, 4, ip_hlen / 4);
    IPH_TOS_SET(iphdr, tos);
 800269a:	f885 a001 	strb.w	sl, [r5, #1]
    IPH_VHL_SET(iphdr, 4, ip_hlen / 4);
 800269e:	2245      	movs	r2, #69	; 0x45
    chk_sum += LWIP_MAKE_U16(proto, ttl);
 80026a0:	ea44 2403 	orr.w	r4, r4, r3, lsl #8
#if CHECKSUM_GEN_IP_INLINE
    chk_sum += LWIP_MAKE_U16(tos, iphdr->_v_hl);
 80026a4:	ea4f 2a0a 	mov.w	sl, sl, lsl #8
 80026a8:	ea4a 0a02 	orr.w	sl, sl, r2
    chk_sum += ip4_addr_get_u32(&iphdr->dest) & 0xFFFF;
 80026ac:	fa14 f480 	uxtah	r4, r4, r0
    IPH_VHL_SET(iphdr, 4, ip_hlen / 4);
 80026b0:	702a      	strb	r2, [r5, #0]
 80026b2:	4454      	add	r4, sl
    ip_addr_copy(iphdr->dest, *dest);
 80026b4:	6128      	str	r0, [r5, #16]
 80026b6:	eb04 4410 	add.w	r4, r4, r0, lsr #16
#endif /* CHECKSUM_GEN_IP_INLINE */
    IPH_LEN_SET(iphdr, htons(p->tot_len));
 80026ba:	8930      	ldrh	r0, [r6, #8]
#if CHECKSUM_GEN_IP_INLINE
    chk_sum += iphdr->_len;
#endif /* CHECKSUM_GEN_IP_INLINE */
    IPH_OFFSET_SET(iphdr, 0);
    IPH_ID_SET(iphdr, htons(ip_id));
 80026bc:	f8df a08c 	ldr.w	sl, [pc, #140]	; 800274c <ip_output_if+0xe8>
    IPH_LEN_SET(iphdr, htons(p->tot_len));
 80026c0:	f7ff f914 	bl	80018ec <lwip_htons>
    IPH_OFFSET_SET(iphdr, 0);
 80026c4:	f885 b006 	strb.w	fp, [r5, #6]
    IPH_LEN_SET(iphdr, htons(p->tot_len));
 80026c8:	8068      	strh	r0, [r5, #2]
 80026ca:	9001      	str	r0, [sp, #4]
    IPH_OFFSET_SET(iphdr, 0);
 80026cc:	f885 b007 	strb.w	fp, [r5, #7]
    IPH_ID_SET(iphdr, htons(ip_id));
 80026d0:	f8ba 0000 	ldrh.w	r0, [sl]
 80026d4:	f7ff f90a 	bl	80018ec <lwip_htons>
#if CHECKSUM_GEN_IP_INLINE
    chk_sum += iphdr->_id;
#endif /* CHECKSUM_GEN_IP_INLINE */
    ++ip_id;
 80026d8:	f8ba 2000 	ldrh.w	r2, [sl]
    IPH_ID_SET(iphdr, htons(ip_id));
 80026dc:	80a8      	strh	r0, [r5, #4]
    ++ip_id;
 80026de:	3201      	adds	r2, #1
 80026e0:	f8aa 2000 	strh.w	r2, [sl]

    if (ip_addr_isany(src)) {
 80026e4:	9b01      	ldr	r3, [sp, #4]
 80026e6:	f1b9 0f00 	cmp.w	r9, #0
 80026ea:	d002      	beq.n	80026f2 <ip_output_if+0x8e>
 80026ec:	f8d9 2000 	ldr.w	r2, [r9]
 80026f0:	b902      	cbnz	r2, 80026f4 <ip_output_if+0x90>
      ip_addr_copy(iphdr->src, netif->ip_addr);
 80026f2:	687a      	ldr	r2, [r7, #4]
    } else {
      /* src cannot be NULL here */
      ip_addr_copy(iphdr->src, *src);
 80026f4:	60ea      	str	r2, [r5, #12]
    }

#if CHECKSUM_GEN_IP_INLINE
    chk_sum += ip4_addr_get_u32(&iphdr->src) & 0xFFFF;
 80026f6:	68ea      	ldr	r2, [r5, #12]
    chk_sum += ip4_addr_get_u32(&iphdr->src) >> 16;
 80026f8:	fa14 f482 	uxtah	r4, r4, r2
 80026fc:	eb04 4412 	add.w	r4, r4, r2, lsr #16
 8002700:	441c      	add	r4, r3
 8002702:	4420      	add	r0, r4
    chk_sum = (chk_sum >> 16) + (chk_sum & 0xFFFF);
 8002704:	b283      	uxth	r3, r0
 8002706:	eb03 4010 	add.w	r0, r3, r0, lsr #16
    chk_sum = (chk_sum >> 16) + chk_sum;
 800270a:	eb00 4010 	add.w	r0, r0, r0, lsr #16
    chk_sum = ~chk_sum;
    iphdr->_chksum = chk_sum; /* network order */
 800270e:	43c0      	mvns	r0, r0
 8002710:	8168      	strh	r0, [r5, #10]
  }
#endif /* LWIP_IGMP */
#endif /* ENABLE_LOOPBACK */
#if IP_FRAG
  /* don't fragment if interface has mtu set to 0 [loopif] */
  if (netif->mtu && (p->tot_len > netif->mtu)) {
 8002712:	8d3b      	ldrh	r3, [r7, #40]	; 0x28
 8002714:	b18b      	cbz	r3, 800273a <ip_output_if+0xd6>
 8002716:	8932      	ldrh	r2, [r6, #8]
 8002718:	429a      	cmp	r2, r3
 800271a:	d90e      	bls.n	800273a <ip_output_if+0xd6>
    return ip_frag(p, netif, dest);
 800271c:	4642      	mov	r2, r8
 800271e:	4639      	mov	r1, r7
 8002720:	4630      	mov	r0, r6
 8002722:	f000 fa4f 	bl	8002bc4 <ip_frag>
  }
#endif /* IP_FRAG */

  LWIP_DEBUGF(IP_DEBUG, ("netif->output()"));
  return netif->output(netif, p, dest);
}
 8002726:	b005      	add	sp, #20
 8002728:	e8bd 8ff0 	ldmia.w	sp!, {r4, r5, r6, r7, r8, r9, sl, fp, pc}
    ip_addr_copy(dest_addr, iphdr->dest);
 800272c:	6843      	ldr	r3, [r0, #4]
 800272e:	f10d 0810 	add.w	r8, sp, #16
 8002732:	691b      	ldr	r3, [r3, #16]
 8002734:	f848 3d04 	str.w	r3, [r8, #-4]!
 8002738:	e7eb      	b.n	8002712 <ip_output_if+0xae>
  return netif->output(netif, p, dest);
 800273a:	697b      	ldr	r3, [r7, #20]
 800273c:	4642      	mov	r2, r8
 800273e:	4631      	mov	r1, r6
 8002740:	4638      	mov	r0, r7
 8002742:	4798      	blx	r3
 8002744:	e7ef      	b.n	8002726 <ip_output_if+0xc2>
      return ERR_BUF;
 8002746:	f06f 0001 	mvn.w	r0, #1
 800274a:	e7ec      	b.n	8002726 <ip_output_if+0xc2>
 800274c:	20000034 	.word	0x20000034

08002750 <ip_output>:
 *         see ip_output_if() for more return values
 */
err_t
ip_output(struct pbuf *p, ip_addr_t *src, ip_addr_t *dest,
          u8_t ttl, u8_t tos, u8_t proto)
{
 8002750:	b5f0      	push	{r4, r5, r6, r7, lr}
 8002752:	4605      	mov	r5, r0
 8002754:	b085      	sub	sp, #20

  /* pbufs passed to IP must have a ref-count of 1 as their payload pointer
     gets altered as the packet is passed down the stack */
  LWIP_ASSERT("p->ref == 1", p->ref == 1);

  if ((netif = ip_route(dest)) == NULL) {
 8002756:	4610      	mov	r0, r2
{
 8002758:	460e      	mov	r6, r1
 800275a:	4614      	mov	r4, r2
 800275c:	461f      	mov	r7, r3
  if ((netif = ip_route(dest)) == NULL) {
 800275e:	f7ff fe9f 	bl	80024a0 <ip_route>
 8002762:	b170      	cbz	r0, 8002782 <ip_output+0x32>
      ip4_addr1_16(dest), ip4_addr2_16(dest), ip4_addr3_16(dest), ip4_addr4_16(dest)));
    IP_STATS_INC(ip.rterr);
    return ERR_RTE;
  }

  return ip_output_if(p, src, dest, ttl, tos, proto, netif);
 8002764:	f89d 302c 	ldrb.w	r3, [sp, #44]	; 0x2c
 8002768:	9301      	str	r3, [sp, #4]
 800276a:	f89d 3028 	ldrb.w	r3, [sp, #40]	; 0x28
 800276e:	9002      	str	r0, [sp, #8]
 8002770:	9300      	str	r3, [sp, #0]
 8002772:	4622      	mov	r2, r4
 8002774:	463b      	mov	r3, r7
 8002776:	4631      	mov	r1, r6
 8002778:	4628      	mov	r0, r5
 800277a:	f7ff ff73 	bl	8002664 <ip_output_if>
}
 800277e:	b005      	add	sp, #20
 8002780:	bdf0      	pop	{r4, r5, r6, r7, pc}
    return ERR_RTE;
 8002782:	f06f 0003 	mvn.w	r0, #3
 8002786:	e7fa      	b.n	800277e <ip_output+0x2e>

08002788 <ip4_addr_isbroadcast>:
{
  ip_addr_t ipaddr;
  ip4_addr_set_u32(&ipaddr, addr);

  /* all ones (broadcast) or all zeroes (old skool broadcast) */
  if ((~addr == IPADDR_ANY) ||
 8002788:	1e43      	subs	r3, r0, #1
 800278a:	3303      	adds	r3, #3
 800278c:	d811      	bhi.n	80027b2 <ip4_addr_isbroadcast+0x2a>
      (addr == IPADDR_ANY)) {
    return 1;
  /* no broadcast support on this network interface? */
  } else if ((netif->flags & NETIF_FLAG_BROADCAST) == 0) {
 800278e:	f891 3031 	ldrb.w	r3, [r1, #49]	; 0x31
 8002792:	f013 0302 	ands.w	r3, r3, #2
 8002796:	d00e      	beq.n	80027b6 <ip4_addr_isbroadcast+0x2e>
    /* the given address cannot be a broadcast address
     * nor can we check against any broadcast addresses */
    return 0;
  /* address matches network interface address exactly? => no broadcast */
  } else if (addr == ip4_addr_get_u32(&netif->ip_addr)) {
 8002798:	684a      	ldr	r2, [r1, #4]
 800279a:	4290      	cmp	r0, r2
 800279c:	d00b      	beq.n	80027b6 <ip4_addr_isbroadcast+0x2e>
    return 0;
  /*  on the same (sub) network... */
  } else if (ip_addr_netcmp(&ipaddr, &(netif->ip_addr), &(netif->netmask))
 800279e:	688b      	ldr	r3, [r1, #8]
 80027a0:	4042      	eors	r2, r0
 80027a2:	421a      	tst	r2, r3
 80027a4:	d107      	bne.n	80027b6 <ip4_addr_isbroadcast+0x2e>
         /* ...and host identifier bits are all ones? =>... */
          && ((addr & ~ip4_addr_get_u32(&netif->netmask)) ==
 80027a6:	43db      	mvns	r3, r3
 80027a8:	4383      	bics	r3, r0
    return 1;
 80027aa:	bf0c      	ite	eq
 80027ac:	2001      	moveq	r0, #1
 80027ae:	2000      	movne	r0, #0
 80027b0:	4770      	bx	lr
 80027b2:	2001      	movs	r0, #1
 80027b4:	4770      	bx	lr
           (IPADDR_BROADCAST & ~ip4_addr_get_u32(&netif->netmask)))) {
    /* => network broadcast address */
    return 1;
  } else {
    return 0;
 80027b6:	2000      	movs	r0, #0
  }
}
 80027b8:	4770      	bx	lr

080027ba <ipfrag_free_pbuf_custom>:

/** Free-callback function to free a 'struct pbuf_custom_ref', called by
 * pbuf_free. */
static void
ipfrag_free_pbuf_custom(struct pbuf *p)
{
 80027ba:	b510      	push	{r4, lr}
 80027bc:	4604      	mov	r4, r0
  struct pbuf_custom_ref *pcr = (struct pbuf_custom_ref*)p;
  LWIP_ASSERT("pcr != NULL", pcr != NULL);
  LWIP_ASSERT("pcr == p", (void*)pcr == (void*)p);
  if (pcr->original != NULL) {
 80027be:	6940      	ldr	r0, [r0, #20]
 80027c0:	b108      	cbz	r0, 80027c6 <ipfrag_free_pbuf_custom+0xc>
    pbuf_free(pcr->original);
 80027c2:	f000 fd22 	bl	800320a <pbuf_free>
  memp_free(MEMP_FRAG_PBUF, p);
 80027c6:	4621      	mov	r1, r4
 80027c8:	2006      	movs	r0, #6
  }
  ip_frag_free_pbuf_custom_ref(pcr);
}
 80027ca:	e8bd 4010 	ldmia.w	sp!, {r4, lr}
  memp_free(MEMP_FRAG_PBUF, p);
 80027ce:	f000 bc03 	b.w	8002fd8 <memp_free>
	...

080027d4 <ip_reass_free_complete_datagram>:
{
 80027d4:	e92d 41f0 	stmdb	sp!, {r4, r5, r6, r7, r8, lr}
  iprh = (struct ip_reass_helper *)ipr->p->payload;
 80027d8:	6846      	ldr	r6, [r0, #4]
 80027da:	6873      	ldr	r3, [r6, #4]
  if (iprh->start == 0) {
 80027dc:	889a      	ldrh	r2, [r3, #4]
{
 80027de:	4604      	mov	r4, r0
 80027e0:	460f      	mov	r7, r1
  if (iprh->start == 0) {
 80027e2:	bb62      	cbnz	r2, 800283e <ip_reass_free_complete_datagram+0x6a>
    ipr->p = iprh->next_pbuf;
 80027e4:	681a      	ldr	r2, [r3, #0]
 80027e6:	6042      	str	r2, [r0, #4]
    SMEMCPY(p->payload, &ipr->iphdr, IP_HLEN);
 80027e8:	f100 011c 	add.w	r1, r0, #28
 80027ec:	f100 0208 	add.w	r2, r0, #8
 80027f0:	f852 0b04 	ldr.w	r0, [r2], #4
 80027f4:	f843 0b04 	str.w	r0, [r3], #4
 80027f8:	428a      	cmp	r2, r1
 80027fa:	d1f9      	bne.n	80027f0 <ip_reass_free_complete_datagram+0x1c>
    icmp_time_exceeded(p, ICMP_TE_FRAG);
 80027fc:	2101      	movs	r1, #1
 80027fe:	4630      	mov	r0, r6
 8002800:	f7ff fdad 	bl	800235e <icmp_time_exceeded>
    clen = pbuf_clen(p);
 8002804:	4630      	mov	r0, r6
 8002806:	f000 fdd0 	bl	80033aa <pbuf_clen>
    pbufs_freed += clen;
 800280a:	b285      	uxth	r5, r0
    pbuf_free(p);
 800280c:	4630      	mov	r0, r6
 800280e:	f000 fcfc 	bl	800320a <pbuf_free>
  p = ipr->p;
 8002812:	6866      	ldr	r6, [r4, #4]
  while (p != NULL) {
 8002814:	b9ae      	cbnz	r6, 8002842 <ip_reass_free_complete_datagram+0x6e>
  if (reassdatagrams == ipr) {
 8002816:	4a11      	ldr	r2, [pc, #68]	; (800285c <ip_reass_free_complete_datagram+0x88>)
 8002818:	6813      	ldr	r3, [r2, #0]
 800281a:	429c      	cmp	r4, r3
 800281c:	6823      	ldr	r3, [r4, #0]
    prev->next = ipr->next;
 800281e:	bf18      	it	ne
 8002820:	603b      	strne	r3, [r7, #0]
  memp_free(MEMP_REASSDATA, ipr);
 8002822:	4621      	mov	r1, r4
 8002824:	f04f 0005 	mov.w	r0, #5
    reassdatagrams = ipr->next;
 8002828:	bf08      	it	eq
 800282a:	6013      	streq	r3, [r2, #0]
  memp_free(MEMP_REASSDATA, ipr);
 800282c:	f000 fbd4 	bl	8002fd8 <memp_free>
  ip_reass_pbufcount -= pbufs_freed;
 8002830:	4a0b      	ldr	r2, [pc, #44]	; (8002860 <ip_reass_free_complete_datagram+0x8c>)
 8002832:	8813      	ldrh	r3, [r2, #0]
 8002834:	1b5b      	subs	r3, r3, r5
 8002836:	8013      	strh	r3, [r2, #0]
}
 8002838:	4628      	mov	r0, r5
 800283a:	e8bd 81f0 	ldmia.w	sp!, {r4, r5, r6, r7, r8, pc}
  u16_t pbufs_freed = 0;
 800283e:	2500      	movs	r5, #0
 8002840:	e7e7      	b.n	8002812 <ip_reass_free_complete_datagram+0x3e>
    iprh = (struct ip_reass_helper *)p->payload;
 8002842:	6873      	ldr	r3, [r6, #4]
    clen = pbuf_clen(pcur);
 8002844:	4630      	mov	r0, r6
    p = iprh->next_pbuf;
 8002846:	f8d3 8000 	ldr.w	r8, [r3]
    clen = pbuf_clen(pcur);
 800284a:	f000 fdae 	bl	80033aa <pbuf_clen>
    pbufs_freed += clen;
 800284e:	4405      	add	r5, r0
    pbuf_free(pcur);
 8002850:	4630      	mov	r0, r6
    pbufs_freed += clen;
 8002852:	b2ad      	uxth	r5, r5
    pbuf_free(pcur);
 8002854:	f000 fcd9 	bl	800320a <pbuf_free>
    p = iprh->next_pbuf;
 8002858:	4646      	mov	r6, r8
 800285a:	e7db      	b.n	8002814 <ip_reass_free_complete_datagram+0x40>
 800285c:	20000038 	.word	0x20000038
 8002860:	20000036 	.word	0x20000036

08002864 <ip_reass_remove_oldest_datagram>:
{
 8002864:	e92d 41f0 	stmdb	sp!, {r4, r5, r6, r7, r8, lr}
    r = reassdatagrams;
 8002868:	f8df 8068 	ldr.w	r8, [pc, #104]	; 80028d4 <ip_reass_remove_oldest_datagram+0x70>
{
 800286c:	4606      	mov	r6, r0
 800286e:	460f      	mov	r7, r1
  int pbufs_freed = 0, pbufs_freed_current;
 8002870:	2500      	movs	r5, #0
    other_datagrams = 0;
 8002872:	2400      	movs	r4, #0
    r = reassdatagrams;
 8002874:	f8d8 3000 	ldr.w	r3, [r8]
    prev = NULL;
 8002878:	4621      	mov	r1, r4
    oldest = NULL;
 800287a:	4620      	mov	r0, r4
    while (r != NULL) {
 800287c:	b953      	cbnz	r3, 8002894 <ip_reass_remove_oldest_datagram+0x30>
    if (oldest != NULL) {
 800287e:	b110      	cbz	r0, 8002886 <ip_reass_remove_oldest_datagram+0x22>
      pbufs_freed_current = ip_reass_free_complete_datagram(oldest, prev);
 8002880:	f7ff ffa8 	bl	80027d4 <ip_reass_free_complete_datagram>
      pbufs_freed += pbufs_freed_current;
 8002884:	4405      	add	r5, r0
  } while ((pbufs_freed < pbufs_needed) && (other_datagrams > 1));
 8002886:	42bd      	cmp	r5, r7
 8002888:	da01      	bge.n	800288e <ip_reass_remove_oldest_datagram+0x2a>
 800288a:	2c01      	cmp	r4, #1
 800288c:	dcf1      	bgt.n	8002872 <ip_reass_remove_oldest_datagram+0xe>
}
 800288e:	4628      	mov	r0, r5
 8002890:	e8bd 81f0 	ldmia.w	sp!, {r4, r5, r6, r7, r8, pc}
      if (!IP_ADDRESSES_AND_ID_MATCH(&r->iphdr, fraghdr)) {
 8002894:	f8d6 e00c 	ldr.w	lr, [r6, #12]
 8002898:	695a      	ldr	r2, [r3, #20]
 800289a:	4572      	cmp	r2, lr
 800289c:	d109      	bne.n	80028b2 <ip_reass_remove_oldest_datagram+0x4e>
 800289e:	f8d6 e010 	ldr.w	lr, [r6, #16]
 80028a2:	699a      	ldr	r2, [r3, #24]
 80028a4:	4572      	cmp	r2, lr
 80028a6:	d104      	bne.n	80028b2 <ip_reass_remove_oldest_datagram+0x4e>
 80028a8:	f8b3 e00c 	ldrh.w	lr, [r3, #12]
 80028ac:	88b2      	ldrh	r2, [r6, #4]
 80028ae:	4596      	cmp	lr, r2
 80028b0:	d007      	beq.n	80028c2 <ip_reass_remove_oldest_datagram+0x5e>
        other_datagrams++;
 80028b2:	3401      	adds	r4, #1
        if (oldest == NULL) {
 80028b4:	b158      	cbz	r0, 80028ce <ip_reass_remove_oldest_datagram+0x6a>
        } else if (r->timer <= oldest->timer) {
 80028b6:	f893 e01f 	ldrb.w	lr, [r3, #31]
 80028ba:	7fc2      	ldrb	r2, [r0, #31]
 80028bc:	4596      	cmp	lr, r2
 80028be:	bf98      	it	ls
 80028c0:	4618      	movls	r0, r3
      if (r->next != NULL) {
 80028c2:	681a      	ldr	r2, [r3, #0]
 80028c4:	2a00      	cmp	r2, #0
 80028c6:	bf18      	it	ne
 80028c8:	4619      	movne	r1, r3
 80028ca:	4613      	mov	r3, r2
 80028cc:	e7d6      	b.n	800287c <ip_reass_remove_oldest_datagram+0x18>
 80028ce:	4618      	mov	r0, r3
 80028d0:	e7f7      	b.n	80028c2 <ip_reass_remove_oldest_datagram+0x5e>
 80028d2:	bf00      	nop
 80028d4:	20000038 	.word	0x20000038

080028d8 <ip_reass_tmr>:
{
 80028d8:	b538      	push	{r3, r4, r5, lr}
  r = reassdatagrams;
 80028da:	4b08      	ldr	r3, [pc, #32]	; (80028fc <ip_reass_tmr+0x24>)
 80028dc:	6818      	ldr	r0, [r3, #0]
  struct ip_reassdata *r, *prev = NULL;
 80028de:	2400      	movs	r4, #0
  while (r != NULL) {
 80028e0:	b900      	cbnz	r0, 80028e4 <ip_reass_tmr+0xc>
}
 80028e2:	bd38      	pop	{r3, r4, r5, pc}
    if (r->timer > 0) {
 80028e4:	7fc3      	ldrb	r3, [r0, #31]
 80028e6:	6805      	ldr	r5, [r0, #0]
 80028e8:	b123      	cbz	r3, 80028f4 <ip_reass_tmr+0x1c>
      r->timer--;
 80028ea:	3b01      	subs	r3, #1
 80028ec:	77c3      	strb	r3, [r0, #31]
 80028ee:	4604      	mov	r4, r0
      r = r->next;
 80028f0:	4628      	mov	r0, r5
 80028f2:	e7f5      	b.n	80028e0 <ip_reass_tmr+0x8>
      ip_reass_free_complete_datagram(tmp, prev);
 80028f4:	4621      	mov	r1, r4
 80028f6:	f7ff ff6d 	bl	80027d4 <ip_reass_free_complete_datagram>
 80028fa:	e7f9      	b.n	80028f0 <ip_reass_tmr+0x18>
 80028fc:	20000038 	.word	0x20000038

08002900 <ip_reass>:
{
 8002900:	e92d 4ff7 	stmdb	sp!, {r0, r1, r2, r4, r5, r6, r7, r8, r9, sl, fp, lr}
  fraghdr = (struct ip_hdr*)p->payload;
 8002904:	6844      	ldr	r4, [r0, #4]
  if ((IPH_HL(fraghdr) * 4) != IP_HLEN) {
 8002906:	7823      	ldrb	r3, [r4, #0]
 8002908:	f003 030f 	and.w	r3, r3, #15
 800290c:	2b05      	cmp	r3, #5
{
 800290e:	4605      	mov	r5, r0
  if ((IPH_HL(fraghdr) * 4) != IP_HLEN) {
 8002910:	f040 808d 	bne.w	8002a2e <ip_reass+0x12e>
  offset = (ntohs(IPH_OFFSET(fraghdr)) & IP_OFFMASK) * 8;
 8002914:	88e0      	ldrh	r0, [r4, #6]
  if ((ip_reass_pbufcount + clen) > IP_REASS_MAX_PBUFS) {
 8002916:	4ea9      	ldr	r6, [pc, #676]	; (8002bbc <ip_reass+0x2bc>)
  offset = (ntohs(IPH_OFFSET(fraghdr)) & IP_OFFMASK) * 8;
 8002918:	f7fe ffeb 	bl	80018f2 <lwip_ntohs>
 800291c:	4682      	mov	sl, r0
  len = ntohs(IPH_LEN(fraghdr)) - IPH_HL(fraghdr) * 4;
 800291e:	8860      	ldrh	r0, [r4, #2]
 8002920:	f7fe ffe7 	bl	80018f2 <lwip_ntohs>
 8002924:	7823      	ldrb	r3, [r4, #0]
 8002926:	9301      	str	r3, [sp, #4]
 8002928:	4683      	mov	fp, r0
  clen = pbuf_clen(p);
 800292a:	4628      	mov	r0, r5
 800292c:	f000 fd3d 	bl	80033aa <pbuf_clen>
  if ((ip_reass_pbufcount + clen) > IP_REASS_MAX_PBUFS) {
 8002930:	8833      	ldrh	r3, [r6, #0]
 8002932:	4403      	add	r3, r0
 8002934:	2b0a      	cmp	r3, #10
  clen = pbuf_clen(p);
 8002936:	4680      	mov	r8, r0
  if ((ip_reass_pbufcount + clen) > IP_REASS_MAX_PBUFS) {
 8002938:	dc70      	bgt.n	8002a1c <ip_reass+0x11c>
  for (ipr = reassdatagrams; ipr != NULL; ipr = ipr->next) {
 800293a:	4fa1      	ldr	r7, [pc, #644]	; (8002bc0 <ip_reass+0x2c0>)
  struct ip_reassdata *ipr_prev = NULL;
 800293c:	2300      	movs	r3, #0
  for (ipr = reassdatagrams; ipr != NULL; ipr = ipr->next) {
 800293e:	f8d7 9000 	ldr.w	r9, [r7]
  struct ip_reassdata *ipr_prev = NULL;
 8002942:	9300      	str	r3, [sp, #0]
  for (ipr = reassdatagrams; ipr != NULL; ipr = ipr->next) {
 8002944:	f1b9 0f00 	cmp.w	r9, #0
 8002948:	d176      	bne.n	8002a38 <ip_reass+0x138>
  ipr = (struct ip_reassdata *)memp_malloc(MEMP_REASSDATA);
 800294a:	2005      	movs	r0, #5
 800294c:	f000 fb34 	bl	8002fb8 <memp_malloc>
  if (ipr == NULL) {
 8002950:	4681      	mov	r9, r0
 8002952:	b958      	cbnz	r0, 800296c <ip_reass+0x6c>
    if (ip_reass_remove_oldest_datagram(fraghdr, clen) >= clen) {
 8002954:	4641      	mov	r1, r8
 8002956:	4620      	mov	r0, r4
 8002958:	f7ff ff84 	bl	8002864 <ip_reass_remove_oldest_datagram>
 800295c:	4580      	cmp	r8, r0
 800295e:	dc66      	bgt.n	8002a2e <ip_reass+0x12e>
      ipr = (struct ip_reassdata *)memp_malloc(MEMP_REASSDATA);
 8002960:	2005      	movs	r0, #5
 8002962:	f000 fb29 	bl	8002fb8 <memp_malloc>
    if (ipr == NULL)
 8002966:	4681      	mov	r9, r0
 8002968:	2800      	cmp	r0, #0
 800296a:	d060      	beq.n	8002a2e <ip_reass+0x12e>
  memset(ipr, 0, sizeof(struct ip_reassdata));
 800296c:	2220      	movs	r2, #32
 800296e:	2100      	movs	r1, #0
 8002970:	4648      	mov	r0, r9
 8002972:	f004 fd6b 	bl	800744c <memset>
  ipr->timer = IP_REASS_MAXAGE;
 8002976:	2203      	movs	r2, #3
 8002978:	f889 201f 	strb.w	r2, [r9, #31]
  ipr->next = reassdatagrams;
 800297c:	683a      	ldr	r2, [r7, #0]
 800297e:	f8c9 2000 	str.w	r2, [r9]
  reassdatagrams = ipr;
 8002982:	f8c7 9000 	str.w	r9, [r7]
  SMEMCPY(&(ipr->iphdr), fraghdr, IP_HLEN);
 8002986:	4622      	mov	r2, r4
 8002988:	f109 0108 	add.w	r1, r9, #8
 800298c:	f104 0014 	add.w	r0, r4, #20
 8002990:	f852 eb04 	ldr.w	lr, [r2], #4
 8002994:	f841 eb04 	str.w	lr, [r1], #4
 8002998:	4282      	cmp	r2, r0
 800299a:	d1f9      	bne.n	8002990 <ip_reass+0x90>
  ip_reass_pbufcount += clen;
 800299c:	8832      	ldrh	r2, [r6, #0]
 800299e:	4490      	add	r8, r2
 80029a0:	f8a6 8000 	strh.w	r8, [r6]
  if ((IPH_OFFSET(fraghdr) & PP_NTOHS(IP_MF)) == 0) {
 80029a4:	88e2      	ldrh	r2, [r4, #6]
 80029a6:	0693      	lsls	r3, r2, #26
 80029a8:	d40e      	bmi.n	80029c8 <ip_reass+0xc8>
    ipr->flags |= IP_REASS_FLAG_LASTFRAG;
 80029aa:	f899 201e 	ldrb.w	r2, [r9, #30]
  len = ntohs(IPH_LEN(fraghdr)) - IPH_HL(fraghdr) * 4;
 80029ae:	9b01      	ldr	r3, [sp, #4]
    ipr->flags |= IP_REASS_FLAG_LASTFRAG;
 80029b0:	f042 0201 	orr.w	r2, r2, #1
 80029b4:	f889 201e 	strb.w	r2, [r9, #30]
  len = ntohs(IPH_LEN(fraghdr)) - IPH_HL(fraghdr) * 4;
 80029b8:	f003 020f 	and.w	r2, r3, #15
 80029bc:	ebab 0b82 	sub.w	fp, fp, r2, lsl #2
    ipr->datagram_len = offset + len;
 80029c0:	eb0b 0aca 	add.w	sl, fp, sl, lsl #3
 80029c4:	f8a9 a01c 	strh.w	sl, [r9, #28]
  fraghdr = (struct ip_hdr*)new_p->payload; 
 80029c8:	f8d5 8004 	ldr.w	r8, [r5, #4]
  len = ntohs(IPH_LEN(fraghdr)) - IPH_HL(fraghdr) * 4;
 80029cc:	f8b8 0002 	ldrh.w	r0, [r8, #2]
 80029d0:	f7fe ff8f 	bl	80018f2 <lwip_ntohs>
 80029d4:	f898 4000 	ldrb.w	r4, [r8]
 80029d8:	f004 040f 	and.w	r4, r4, #15
 80029dc:	eba0 0484 	sub.w	r4, r0, r4, lsl #2
  offset = (ntohs(IPH_OFFSET(fraghdr)) & IP_OFFMASK) * 8;
 80029e0:	f8b8 0006 	ldrh.w	r0, [r8, #6]
 80029e4:	f7fe ff85 	bl	80018f2 <lwip_ntohs>
 80029e8:	f3c0 000c 	ubfx	r0, r0, #0, #13
 80029ec:	00c0      	lsls	r0, r0, #3
  len = ntohs(IPH_LEN(fraghdr)) - IPH_HL(fraghdr) * 4;
 80029ee:	b2a4      	uxth	r4, r4
  iprh = (struct ip_reass_helper*)new_p->payload;
 80029f0:	6869      	ldr	r1, [r5, #4]
  for (q = ipr->p; q != NULL;) {
 80029f2:	f8d9 c004 	ldr.w	ip, [r9, #4]
  iprh->start = offset;
 80029f6:	8088      	strh	r0, [r1, #4]
  iprh->end = offset + len;
 80029f8:	4404      	add	r4, r0
  iprh->next_pbuf = NULL;
 80029fa:	2200      	movs	r2, #0
  iprh->end = offset + len;
 80029fc:	b2a4      	uxth	r4, r4
  iprh->next_pbuf = NULL;
 80029fe:	700a      	strb	r2, [r1, #0]
 8002a00:	704a      	strb	r2, [r1, #1]
 8002a02:	708a      	strb	r2, [r1, #2]
 8002a04:	70ca      	strb	r2, [r1, #3]
  iprh->end = offset + len;
 8002a06:	80cc      	strh	r4, [r1, #6]
  int valid = 1;
 8002a08:	2301      	movs	r3, #1
  for (q = ipr->p; q != NULL;) {
 8002a0a:	f1bc 0f00 	cmp.w	ip, #0
 8002a0e:	d128      	bne.n	8002a62 <ip_reass+0x162>
    if (iprh_prev != NULL) {
 8002a10:	2a00      	cmp	r2, #0
 8002a12:	f040 8092 	bne.w	8002b3a <ip_reass+0x23a>
      ipr->p = new_p;
 8002a16:	f8c9 5004 	str.w	r5, [r9, #4]
 8002a1a:	e033      	b.n	8002a84 <ip_reass+0x184>
    if (!ip_reass_remove_oldest_datagram(fraghdr, clen) ||
 8002a1c:	4601      	mov	r1, r0
 8002a1e:	4620      	mov	r0, r4
 8002a20:	f7ff ff20 	bl	8002864 <ip_reass_remove_oldest_datagram>
 8002a24:	b118      	cbz	r0, 8002a2e <ip_reass+0x12e>
        ((ip_reass_pbufcount + clen) > IP_REASS_MAX_PBUFS))
 8002a26:	8833      	ldrh	r3, [r6, #0]
 8002a28:	4443      	add	r3, r8
    if (!ip_reass_remove_oldest_datagram(fraghdr, clen) ||
 8002a2a:	2b0a      	cmp	r3, #10
 8002a2c:	dd85      	ble.n	800293a <ip_reass+0x3a>
  pbuf_free(p);
 8002a2e:	4628      	mov	r0, r5
 8002a30:	f000 fbeb 	bl	800320a <pbuf_free>
  return NULL;
 8002a34:	2400      	movs	r4, #0
 8002a36:	e06e      	b.n	8002b16 <ip_reass+0x216>
    if (IP_ADDRESSES_AND_ID_MATCH(&ipr->iphdr, fraghdr)) {
 8002a38:	68e2      	ldr	r2, [r4, #12]
 8002a3a:	f8d9 1014 	ldr.w	r1, [r9, #20]
 8002a3e:	4291      	cmp	r1, r2
 8002a40:	d10a      	bne.n	8002a58 <ip_reass+0x158>
 8002a42:	6922      	ldr	r2, [r4, #16]
 8002a44:	f8d9 1018 	ldr.w	r1, [r9, #24]
 8002a48:	4291      	cmp	r1, r2
 8002a4a:	d105      	bne.n	8002a58 <ip_reass+0x158>
 8002a4c:	f8b9 100c 	ldrh.w	r1, [r9, #12]
 8002a50:	88a2      	ldrh	r2, [r4, #4]
 8002a52:	4291      	cmp	r1, r2
 8002a54:	f000 8095 	beq.w	8002b82 <ip_reass+0x282>
  for (ipr = reassdatagrams; ipr != NULL; ipr = ipr->next) {
 8002a58:	f8cd 9000 	str.w	r9, [sp]
 8002a5c:	f8d9 9000 	ldr.w	r9, [r9]
 8002a60:	e770      	b.n	8002944 <ip_reass+0x44>
    iprh_tmp = (struct ip_reass_helper*)q->payload;
 8002a62:	f8dc 8004 	ldr.w	r8, [ip, #4]
    if (iprh->start < iprh_tmp->start) {
 8002a66:	f8b8 a004 	ldrh.w	sl, [r8, #4]
 8002a6a:	4550      	cmp	r0, sl
 8002a6c:	d257      	bcs.n	8002b1e <ip_reass+0x21e>
      iprh->next_pbuf = q;
 8002a6e:	f8c1 c000 	str.w	ip, [r1]
      if (iprh_prev != NULL) {
 8002a72:	2a00      	cmp	r2, #0
 8002a74:	d0cf      	beq.n	8002a16 <ip_reass+0x116>
        if ((iprh->start < iprh_prev->end) || (iprh->end > iprh_tmp->start)) {
 8002a76:	f8b2 c006 	ldrh.w	ip, [r2, #6]
 8002a7a:	4584      	cmp	ip, r0
 8002a7c:	d86c      	bhi.n	8002b58 <ip_reass+0x258>
 8002a7e:	4554      	cmp	r4, sl
 8002a80:	d86a      	bhi.n	8002b58 <ip_reass+0x258>
        iprh_prev->next_pbuf = new_p;
 8002a82:	6015      	str	r5, [r2, #0]
  if ((ipr->flags & IP_REASS_FLAG_LASTFRAG) != 0) {
 8002a84:	f899 201e 	ldrb.w	r2, [r9, #30]
 8002a88:	f012 0401 	ands.w	r4, r2, #1
 8002a8c:	d043      	beq.n	8002b16 <ip_reass+0x216>
    if (valid) {
 8002a8e:	2b00      	cmp	r3, #0
 8002a90:	d0d0      	beq.n	8002a34 <ip_reass+0x134>
      if (((struct ip_reass_helper*)ipr->p->payload)->start != 0) {
 8002a92:	f8d9 2004 	ldr.w	r2, [r9, #4]
 8002a96:	6854      	ldr	r4, [r2, #4]
 8002a98:	88a2      	ldrh	r2, [r4, #4]
 8002a9a:	2a00      	cmp	r2, #0
 8002a9c:	d1ca      	bne.n	8002a34 <ip_reass+0x134>
        q = iprh->next_pbuf;
 8002a9e:	680a      	ldr	r2, [r1, #0]
        while (q != NULL) {
 8002aa0:	2a00      	cmp	r2, #0
 8002aa2:	d150      	bne.n	8002b46 <ip_reass+0x246>
    ipr->datagram_len += IP_HLEN;
 8002aa4:	f8b9 201c 	ldrh.w	r2, [r9, #28]
    r = ((struct ip_reass_helper*)ipr->p->payload)->next_pbuf;
 8002aa8:	6825      	ldr	r5, [r4, #0]
    ipr->datagram_len += IP_HLEN;
 8002aaa:	3214      	adds	r2, #20
 8002aac:	f8a9 201c 	strh.w	r2, [r9, #28]
    SMEMCPY(fraghdr, &ipr->iphdr, IP_HLEN);
 8002ab0:	4621      	mov	r1, r4
 8002ab2:	f109 0208 	add.w	r2, r9, #8
 8002ab6:	f109 001c 	add.w	r0, r9, #28
 8002aba:	f852 eb04 	ldr.w	lr, [r2], #4
 8002abe:	f841 eb04 	str.w	lr, [r1], #4
 8002ac2:	4282      	cmp	r2, r0
 8002ac4:	d1f9      	bne.n	8002aba <ip_reass+0x1ba>
    IPH_LEN_SET(fraghdr, htons(ipr->datagram_len));
 8002ac6:	f8b9 001c 	ldrh.w	r0, [r9, #28]
 8002aca:	f7fe ff0f 	bl	80018ec <lwip_htons>
    IPH_OFFSET_SET(fraghdr, 0);
 8002ace:	2200      	movs	r2, #0
    IPH_LEN_SET(fraghdr, htons(ipr->datagram_len));
 8002ad0:	8060      	strh	r0, [r4, #2]
    IPH_OFFSET_SET(fraghdr, 0);
 8002ad2:	71a2      	strb	r2, [r4, #6]
 8002ad4:	71e2      	strb	r2, [r4, #7]
    IPH_CHKSUM_SET(fraghdr, 0);
 8002ad6:	72a2      	strb	r2, [r4, #10]
 8002ad8:	72e2      	strb	r2, [r4, #11]
    IPH_CHKSUM_SET(fraghdr, inet_chksum(fraghdr, IP_HLEN));
 8002ada:	4620      	mov	r0, r4
 8002adc:	2114      	movs	r1, #20
 8002ade:	f7ff fcb6 	bl	800244e <inet_chksum>
 8002ae2:	8160      	strh	r0, [r4, #10]
    p = ipr->p;
 8002ae4:	f8d9 4004 	ldr.w	r4, [r9, #4]
    while(r != NULL) {
 8002ae8:	2d00      	cmp	r5, #0
 8002aea:	d13c      	bne.n	8002b66 <ip_reass+0x266>
  if (reassdatagrams == ipr) {
 8002aec:	683a      	ldr	r2, [r7, #0]
 8002aee:	4591      	cmp	r9, r2
    prev->next = ipr->next;
 8002af0:	bf18      	it	ne
 8002af2:	9b00      	ldrne	r3, [sp, #0]
 8002af4:	f8d9 2000 	ldr.w	r2, [r9]
 8002af8:	bf18      	it	ne
 8002afa:	601a      	strne	r2, [r3, #0]
  memp_free(MEMP_REASSDATA, ipr);
 8002afc:	4649      	mov	r1, r9
 8002afe:	f04f 0005 	mov.w	r0, #5
    reassdatagrams = ipr->next;
 8002b02:	bf08      	it	eq
 8002b04:	603a      	streq	r2, [r7, #0]
  memp_free(MEMP_REASSDATA, ipr);
 8002b06:	f000 fa67 	bl	8002fd8 <memp_free>
    ip_reass_pbufcount -= pbuf_clen(p);
 8002b0a:	4620      	mov	r0, r4
 8002b0c:	f000 fc4d 	bl	80033aa <pbuf_clen>
 8002b10:	8833      	ldrh	r3, [r6, #0]
 8002b12:	1a18      	subs	r0, r3, r0
 8002b14:	8030      	strh	r0, [r6, #0]
}
 8002b16:	4620      	mov	r0, r4
 8002b18:	b003      	add	sp, #12
 8002b1a:	e8bd 8ff0 	ldmia.w	sp!, {r4, r5, r6, r7, r8, r9, sl, fp, pc}
    } else if(iprh->start == iprh_tmp->start) {
 8002b1e:	d01b      	beq.n	8002b58 <ip_reass+0x258>
    } else if(iprh->start < iprh_tmp->end) {
 8002b20:	f8b8 c006 	ldrh.w	ip, [r8, #6]
 8002b24:	4584      	cmp	ip, r0
 8002b26:	d817      	bhi.n	8002b58 <ip_reass+0x258>
      if (iprh_prev != NULL) {
 8002b28:	b11a      	cbz	r2, 8002b32 <ip_reass+0x232>
        if (iprh_prev->end != iprh_tmp->start) {
 8002b2a:	88d2      	ldrh	r2, [r2, #6]
          valid = 0;
 8002b2c:	4552      	cmp	r2, sl
 8002b2e:	bf18      	it	ne
 8002b30:	2300      	movne	r3, #0
    q = iprh_tmp->next_pbuf;
 8002b32:	f8d8 c000 	ldr.w	ip, [r8]
 8002b36:	4642      	mov	r2, r8
 8002b38:	e767      	b.n	8002a0a <ip_reass+0x10a>
      LWIP_ASSERT("check fragments don't overlap", iprh_prev->end <= iprh->start);
 8002b3a:	88d4      	ldrh	r4, [r2, #6]
      iprh_prev->next_pbuf = new_p;
 8002b3c:	6015      	str	r5, [r2, #0]
        valid = 0;
 8002b3e:	42a0      	cmp	r0, r4
 8002b40:	bf18      	it	ne
 8002b42:	2300      	movne	r3, #0
 8002b44:	e79e      	b.n	8002a84 <ip_reass+0x184>
          iprh = (struct ip_reass_helper*)q->payload;
 8002b46:	6850      	ldr	r0, [r2, #4]
          if (iprh_prev->end != iprh->start) {
 8002b48:	88c9      	ldrh	r1, [r1, #6]
 8002b4a:	8882      	ldrh	r2, [r0, #4]
 8002b4c:	4291      	cmp	r1, r2
 8002b4e:	f47f af71 	bne.w	8002a34 <ip_reass+0x134>
          q = iprh->next_pbuf;
 8002b52:	6802      	ldr	r2, [r0, #0]
 8002b54:	4601      	mov	r1, r0
 8002b56:	e7a3      	b.n	8002aa0 <ip_reass+0x1a0>
  ip_reass_pbufcount -= pbuf_clen(new_p);
 8002b58:	4628      	mov	r0, r5
 8002b5a:	f000 fc26 	bl	80033aa <pbuf_clen>
 8002b5e:	8833      	ldrh	r3, [r6, #0]
 8002b60:	1a18      	subs	r0, r3, r0
 8002b62:	8030      	strh	r0, [r6, #0]
 8002b64:	e763      	b.n	8002a2e <ip_reass+0x12e>
      iprh = (struct ip_reass_helper*)r->payload;
 8002b66:	f8d5 8004 	ldr.w	r8, [r5, #4]
      pbuf_header(r, -IP_HLEN);
 8002b6a:	f06f 0113 	mvn.w	r1, #19
 8002b6e:	4628      	mov	r0, r5
 8002b70:	f000 fb20 	bl	80031b4 <pbuf_header>
      pbuf_cat(p, r);
 8002b74:	4629      	mov	r1, r5
 8002b76:	4620      	mov	r0, r4
 8002b78:	f000 fc24 	bl	80033c4 <pbuf_cat>
      r = iprh->next_pbuf;
 8002b7c:	f8d8 5000 	ldr.w	r5, [r8]
 8002b80:	e7b2      	b.n	8002ae8 <ip_reass+0x1e8>
    if (((ntohs(IPH_OFFSET(fraghdr)) & IP_OFFMASK) == 0) && 
 8002b82:	88e0      	ldrh	r0, [r4, #6]
 8002b84:	f7fe feb5 	bl	80018f2 <lwip_ntohs>
 8002b88:	f3c0 000c 	ubfx	r0, r0, #0, #13
 8002b8c:	2800      	cmp	r0, #0
 8002b8e:	f47f af05 	bne.w	800299c <ip_reass+0x9c>
      ((ntohs(IPH_OFFSET(&ipr->iphdr)) & IP_OFFMASK) != 0)) {
 8002b92:	f8b9 000e 	ldrh.w	r0, [r9, #14]
 8002b96:	f7fe feac 	bl	80018f2 <lwip_ntohs>
    if (((ntohs(IPH_OFFSET(fraghdr)) & IP_OFFMASK) == 0) && 
 8002b9a:	f3c0 000c 	ubfx	r0, r0, #0, #13
 8002b9e:	2800      	cmp	r0, #0
 8002ba0:	f43f aefc 	beq.w	800299c <ip_reass+0x9c>
      SMEMCPY(&ipr->iphdr, fraghdr, IP_HLEN);
 8002ba4:	4622      	mov	r2, r4
 8002ba6:	f109 0108 	add.w	r1, r9, #8
 8002baa:	f104 0014 	add.w	r0, r4, #20
 8002bae:	f852 eb04 	ldr.w	lr, [r2], #4
 8002bb2:	f841 eb04 	str.w	lr, [r1], #4
 8002bb6:	4282      	cmp	r2, r0
 8002bb8:	d1f9      	bne.n	8002bae <ip_reass+0x2ae>
 8002bba:	e6ef      	b.n	800299c <ip_reass+0x9c>
 8002bbc:	20000036 	.word	0x20000036
 8002bc0:	20000038 	.word	0x20000038

08002bc4 <ip_frag>:
 *
 * @return ERR_OK if sent successfully, err_t otherwise
 */
err_t 
ip_frag(struct pbuf *p, struct netif *netif, ip_addr_t *dest)
{
 8002bc4:	e92d 4ff0 	stmdb	sp!, {r4, r5, r6, r7, r8, r9, sl, fp, lr}
 8002bc8:	b08d      	sub	sp, #52	; 0x34

  /* Copy the IP header in it */
  iphdr = (struct ip_hdr *)rambuf->payload;
  SMEMCPY(iphdr, p->payload, IP_HLEN);
#else /* IP_FRAG_USES_STATIC_BUF */
  original_iphdr = (struct ip_hdr *)p->payload;
 8002bca:	6843      	ldr	r3, [r0, #4]
{
 8002bcc:	9209      	str	r2, [sp, #36]	; 0x24
  original_iphdr = (struct ip_hdr *)p->payload;
 8002bce:	9303      	str	r3, [sp, #12]
{
 8002bd0:	9105      	str	r1, [sp, #20]
 8002bd2:	4605      	mov	r5, r0
  iphdr = original_iphdr;
#endif /* IP_FRAG_USES_STATIC_BUF */

  /* Save original offset */
  tmp = ntohs(IPH_OFFSET(iphdr));
 8002bd4:	88d8      	ldrh	r0, [r3, #6]
  u16_t mtu = netif->mtu;
 8002bd6:	f8b1 8028 	ldrh.w	r8, [r1, #40]	; 0x28
  tmp = ntohs(IPH_OFFSET(iphdr));
 8002bda:	f7fe fe8a 	bl	80018f2 <lwip_ntohs>
  ofo = tmp & IP_OFFMASK;
 8002bde:	f3c0 030c 	ubfx	r3, r0, #0, #13
 8002be2:	9302      	str	r3, [sp, #8]
  omf = tmp & IP_MF;
 8002be4:	f400 5300 	and.w	r3, r0, #8192	; 0x2000
 8002be8:	9307      	str	r3, [sp, #28]

  left = p->tot_len - IP_HLEN;

  nfb = (mtu - IP_HLEN) / 8;
 8002bea:	2208      	movs	r2, #8
 8002bec:	f1a8 0314 	sub.w	r3, r8, #20
 8002bf0:	fb93 f3f2 	sdiv	r3, r3, r2
 8002bf4:	b29b      	uxth	r3, r3
  left = p->tot_len - IP_HLEN;
 8002bf6:	892c      	ldrh	r4, [r5, #8]
  nfb = (mtu - IP_HLEN) / 8;
 8002bf8:	9306      	str	r3, [sp, #24]
    if (!last) {
      tmp = tmp | IP_MF;
    }

    /* Fill this fragment */
    cop = last ? left : nfb * 8;
 8002bfa:	00db      	lsls	r3, r3, #3
 8002bfc:	b29b      	uxth	r3, r3
  left = p->tot_len - IP_HLEN;
 8002bfe:	3c14      	subs	r4, #20
    cop = last ? left : nfb * 8;
 8002c00:	9308      	str	r3, [sp, #32]
    last = (left <= mtu - IP_HLEN);
 8002c02:	f1a8 0313 	sub.w	r3, r8, #19
  left = p->tot_len - IP_HLEN;
 8002c06:	b2a4      	uxth	r4, r4
  u16_t newpbuflen = 0;
 8002c08:	2600      	movs	r6, #0
  u16_t poff = IP_HLEN;
 8002c0a:	2714      	movs	r7, #20
    last = (left <= mtu - IP_HLEN);
 8002c0c:	930a      	str	r3, [sp, #40]	; 0x28
  while (left) {
 8002c0e:	b91c      	cbnz	r4, 8002c18 <ip_frag+0x54>
  }
#if IP_FRAG_USES_STATIC_BUF
  pbuf_free(rambuf);
#endif /* IP_FRAG_USES_STATIC_BUF */
  snmp_inc_ipfragoks();
  return ERR_OK;
 8002c10:	4620      	mov	r0, r4
}
 8002c12:	b00d      	add	sp, #52	; 0x34
 8002c14:	e8bd 8ff0 	ldmia.w	sp!, {r4, r5, r6, r7, r8, r9, sl, fp, pc}
    tmp = omf | (IP_OFFMASK & (ofo));
 8002c18:	9b02      	ldr	r3, [sp, #8]
 8002c1a:	f3c3 0a0c 	ubfx	sl, r3, #0, #13
 8002c1e:	9b07      	ldr	r3, [sp, #28]
 8002c20:	ea43 030a 	orr.w	r3, r3, sl
 8002c24:	9304      	str	r3, [sp, #16]
    if (!last) {
 8002c26:	9b0a      	ldr	r3, [sp, #40]	; 0x28
 8002c28:	42a3      	cmp	r3, r4
      tmp = tmp | IP_MF;
 8002c2a:	bfde      	ittt	le
 8002c2c:	9b04      	ldrle	r3, [sp, #16]
    cop = last ? left : nfb * 8;
 8002c2e:	f8dd a020 	ldrle.w	sl, [sp, #32]
      tmp = tmp | IP_MF;
 8002c32:	f443 5300 	orrle.w	r3, r3, #8192	; 0x2000
    rambuf = pbuf_alloc(PBUF_LINK, IP_HLEN, PBUF_RAM);
 8002c36:	f04f 0200 	mov.w	r2, #0
 8002c3a:	f04f 0114 	mov.w	r1, #20
 8002c3e:	f04f 0002 	mov.w	r0, #2
      tmp = tmp | IP_MF;
 8002c42:	bfd4      	ite	le
 8002c44:	9304      	strle	r3, [sp, #16]
 8002c46:	46a2      	movgt	sl, r4
    rambuf = pbuf_alloc(PBUF_LINK, IP_HLEN, PBUF_RAM);
 8002c48:	f000 fb06 	bl	8003258 <pbuf_alloc>
    if (rambuf == NULL) {
 8002c4c:	4680      	mov	r8, r0
 8002c4e:	b318      	cbz	r0, 8002c98 <ip_frag+0xd4>
    SMEMCPY(rambuf->payload, original_iphdr, IP_HLEN);
 8002c50:	9b03      	ldr	r3, [sp, #12]
 8002c52:	6842      	ldr	r2, [r0, #4]
 8002c54:	4619      	mov	r1, r3
 8002c56:	3114      	adds	r1, #20
 8002c58:	f853 0b04 	ldr.w	r0, [r3], #4
 8002c5c:	f842 0b04 	str.w	r0, [r2], #4
 8002c60:	428b      	cmp	r3, r1
 8002c62:	d1f9      	bne.n	8002c58 <ip_frag+0x94>
    p->payload = (u8_t *)p->payload + poff;
 8002c64:	686b      	ldr	r3, [r5, #4]
    iphdr = (struct ip_hdr *)rambuf->payload;
 8002c66:	f8d8 9004 	ldr.w	r9, [r8, #4]
    p->payload = (u8_t *)p->payload + poff;
 8002c6a:	443b      	add	r3, r7
 8002c6c:	606b      	str	r3, [r5, #4]
    p->len -= poff;
 8002c6e:	896b      	ldrh	r3, [r5, #10]
 8002c70:	1bdf      	subs	r7, r3, r7
 8002c72:	816f      	strh	r7, [r5, #10]
    left_to_copy = cop;
 8002c74:	4657      	mov	r7, sl
    while (left_to_copy) {
 8002c76:	b397      	cbz	r7, 8002cde <ip_frag+0x11a>
      newpbuflen = (left_to_copy < p->len) ? left_to_copy : p->len;
 8002c78:	896e      	ldrh	r6, [r5, #10]
 8002c7a:	42be      	cmp	r6, r7
 8002c7c:	bf28      	it	cs
 8002c7e:	463e      	movcs	r6, r7
 8002c80:	b2b6      	uxth	r6, r6
      if (!newpbuflen) {
 8002c82:	b90e      	cbnz	r6, 8002c88 <ip_frag+0xc4>
        p = p->next;
 8002c84:	682d      	ldr	r5, [r5, #0]
 8002c86:	e7f6      	b.n	8002c76 <ip_frag+0xb2>
  return (struct pbuf_custom_ref*)memp_malloc(MEMP_FRAG_PBUF);
 8002c88:	2006      	movs	r0, #6
 8002c8a:	f000 f995 	bl	8002fb8 <memp_malloc>
      if (pcr == NULL) {
 8002c8e:	4683      	mov	fp, r0
 8002c90:	b928      	cbnz	r0, 8002c9e <ip_frag+0xda>
        pbuf_free(rambuf);
 8002c92:	4640      	mov	r0, r8
 8002c94:	f000 fab9 	bl	800320a <pbuf_free>
      return ERR_MEM;
 8002c98:	f04f 30ff 	mov.w	r0, #4294967295
 8002c9c:	e7b9      	b.n	8002c12 <ip_frag+0x4e>
      newpbuf = pbuf_alloced_custom(PBUF_RAW, newpbuflen, PBUF_REF, &pcr->pc, p->payload, newpbuflen);
 8002c9e:	9601      	str	r6, [sp, #4]
 8002ca0:	686b      	ldr	r3, [r5, #4]
 8002ca2:	9300      	str	r3, [sp, #0]
 8002ca4:	2202      	movs	r2, #2
 8002ca6:	4603      	mov	r3, r0
 8002ca8:	4631      	mov	r1, r6
 8002caa:	2003      	movs	r0, #3
 8002cac:	f000 fa58 	bl	8003160 <pbuf_alloced_custom>
      if (newpbuf == NULL) {
 8002cb0:	b920      	cbnz	r0, 8002cbc <ip_frag+0xf8>
  memp_free(MEMP_FRAG_PBUF, p);
 8002cb2:	4659      	mov	r1, fp
 8002cb4:	2006      	movs	r0, #6
 8002cb6:	f000 f98f 	bl	8002fd8 <memp_free>
 8002cba:	e7ea      	b.n	8002c92 <ip_frag+0xce>
 8002cbc:	900b      	str	r0, [sp, #44]	; 0x2c
      pbuf_ref(p);
 8002cbe:	4628      	mov	r0, r5
 8002cc0:	f000 fb7b 	bl	80033ba <pbuf_ref>
      left_to_copy -= newpbuflen;
 8002cc4:	1bbf      	subs	r7, r7, r6
      pcr->pc.custom_free_function = ipfrag_free_pbuf_custom;
 8002cc6:	4b1a      	ldr	r3, [pc, #104]	; (8002d30 <ip_frag+0x16c>)
      pcr->original = p;
 8002cc8:	f8cb 5014 	str.w	r5, [fp, #20]
      pcr->pc.custom_free_function = ipfrag_free_pbuf_custom;
 8002ccc:	f8cb 3010 	str.w	r3, [fp, #16]
      pbuf_cat(rambuf, newpbuf);
 8002cd0:	990b      	ldr	r1, [sp, #44]	; 0x2c
 8002cd2:	4640      	mov	r0, r8
      left_to_copy -= newpbuflen;
 8002cd4:	b2bf      	uxth	r7, r7
      pbuf_cat(rambuf, newpbuf);
 8002cd6:	f000 fb75 	bl	80033c4 <pbuf_cat>
      if (left_to_copy) {
 8002cda:	2f00      	cmp	r7, #0
 8002cdc:	d1d2      	bne.n	8002c84 <ip_frag+0xc0>
    IPH_OFFSET_SET(iphdr, htons(tmp));
 8002cde:	9804      	ldr	r0, [sp, #16]
 8002ce0:	f7fe fe04 	bl	80018ec <lwip_htons>
 8002ce4:	f8a9 0006 	strh.w	r0, [r9, #6]
    IPH_LEN_SET(iphdr, htons(cop + IP_HLEN));
 8002ce8:	f10a 0014 	add.w	r0, sl, #20
 8002cec:	b280      	uxth	r0, r0
 8002cee:	f7fe fdfd 	bl	80018ec <lwip_htons>
    IPH_CHKSUM_SET(iphdr, 0);
 8002cf2:	f889 700a 	strb.w	r7, [r9, #10]
    IPH_LEN_SET(iphdr, htons(cop + IP_HLEN));
 8002cf6:	f8a9 0002 	strh.w	r0, [r9, #2]
    IPH_CHKSUM_SET(iphdr, 0);
 8002cfa:	f889 700b 	strb.w	r7, [r9, #11]
    IPH_CHKSUM_SET(iphdr, inet_chksum(iphdr, IP_HLEN));
 8002cfe:	2114      	movs	r1, #20
 8002d00:	4648      	mov	r0, r9
 8002d02:	f7ff fba4 	bl	800244e <inet_chksum>
    netif->output(netif, rambuf, dest);
 8002d06:	9b05      	ldr	r3, [sp, #20]
 8002d08:	9a09      	ldr	r2, [sp, #36]	; 0x24
 8002d0a:	695b      	ldr	r3, [r3, #20]
    IPH_CHKSUM_SET(iphdr, inet_chksum(iphdr, IP_HLEN));
 8002d0c:	f8a9 000a 	strh.w	r0, [r9, #10]
    netif->output(netif, rambuf, dest);
 8002d10:	4641      	mov	r1, r8
 8002d12:	9805      	ldr	r0, [sp, #20]
 8002d14:	4798      	blx	r3
    pbuf_free(rambuf);
 8002d16:	4640      	mov	r0, r8
 8002d18:	f000 fa77 	bl	800320a <pbuf_free>
    ofo += nfb;
 8002d1c:	9b02      	ldr	r3, [sp, #8]
 8002d1e:	9a06      	ldr	r2, [sp, #24]
 8002d20:	4413      	add	r3, r2
    left -= cop;
 8002d22:	eba4 040a 	sub.w	r4, r4, sl
    ofo += nfb;
 8002d26:	b29b      	uxth	r3, r3
    left -= cop;
 8002d28:	b2a4      	uxth	r4, r4
    ofo += nfb;
 8002d2a:	9302      	str	r3, [sp, #8]
 8002d2c:	4637      	mov	r7, r6
 8002d2e:	e76e      	b.n	8002c0e <ip_frag+0x4a>
 8002d30:	080027bb 	.word	0x080027bb

08002d34 <mem_init>:

  LWIP_ASSERT("Sanity check alignment",
    (SIZEOF_STRUCT_MEM & (MEM_ALIGNMENT-1)) == 0);

  /* align the heap */
  ram = (u8_t *)LWIP_MEM_ALIGN(LWIP_RAM_HEAP_POINTER);
 8002d34:	4b0a      	ldr	r3, [pc, #40]	; (8002d60 <mem_init+0x2c>)
 8002d36:	4a0b      	ldr	r2, [pc, #44]	; (8002d64 <mem_init+0x30>)
  mem = (struct mem *)(void *)ram;
  mem->next = MEM_SIZE_ALIGNED;
  mem->prev = 0;
  mem->used = 0;
  /* initialize the end of the heap */
  ram_end = (struct mem *)(void *)&ram[MEM_SIZE_ALIGNED];
 8002d38:	480b      	ldr	r0, [pc, #44]	; (8002d68 <mem_init+0x34>)
  ram = (u8_t *)LWIP_MEM_ALIGN(LWIP_RAM_HEAP_POINTER);
 8002d3a:	f023 0303 	bic.w	r3, r3, #3
 8002d3e:	6013      	str	r3, [r2, #0]
  mem->next = MEM_SIZE_ALIGNED;
 8002d40:	f44f 5120 	mov.w	r1, #10240	; 0x2800
  mem->prev = 0;
 8002d44:	2200      	movs	r2, #0
 8002d46:	805a      	strh	r2, [r3, #2]
  mem->used = 0;
 8002d48:	711a      	strb	r2, [r3, #4]
  ram_end = (struct mem *)(void *)&ram[MEM_SIZE_ALIGNED];
 8002d4a:	185a      	adds	r2, r3, r1
 8002d4c:	6002      	str	r2, [r0, #0]
  ram_end->used = 1;
 8002d4e:	2001      	movs	r0, #1
  mem->next = MEM_SIZE_ALIGNED;
 8002d50:	8019      	strh	r1, [r3, #0]
  ram_end->next = MEM_SIZE_ALIGNED;
 8002d52:	8011      	strh	r1, [r2, #0]
  ram_end->prev = MEM_SIZE_ALIGNED;
 8002d54:	8051      	strh	r1, [r2, #2]
  ram_end->used = 1;
 8002d56:	7110      	strb	r0, [r2, #4]

  /* initialize the lowest-free pointer to the start of the heap */
  lfree = (struct mem *)(void *)ram;
 8002d58:	4a04      	ldr	r2, [pc, #16]	; (8002d6c <mem_init+0x38>)
 8002d5a:	6013      	str	r3, [r2, #0]
 8002d5c:	4770      	bx	lr
 8002d5e:	bf00      	nop
 8002d60:	2000263f 	.word	0x2000263f
 8002d64:	20000040 	.word	0x20000040
 8002d68:	20000044 	.word	0x20000044
 8002d6c:	2000003c 	.word	0x2000003c

08002d70 <mem_free>:
 * @param rmem is the data portion of a struct mem as returned by a previous
 *             call to mem_malloc()
 */
void
mem_free(void *rmem)
{
 8002d70:	b5f0      	push	{r4, r5, r6, r7, lr}
  struct mem *mem;
  LWIP_MEM_FREE_DECL_PROTECT();

  if (rmem == NULL) {
 8002d72:	2800      	cmp	r0, #0
 8002d74:	d038      	beq.n	8002de8 <mem_free+0x78>
    LWIP_DEBUGF(MEM_DEBUG | LWIP_DBG_TRACE | LWIP_DBG_LEVEL_SERIOUS, ("mem_free(p == NULL) was called.\n"));
    return;
  }
  LWIP_ASSERT("mem_free: sanity check alignment", (((mem_ptr_t)rmem) & (MEM_ALIGNMENT-1)) == 0);

  LWIP_ASSERT("mem_free: legal memory", (u8_t *)rmem >= (u8_t *)ram &&
 8002d76:	4b1d      	ldr	r3, [pc, #116]	; (8002dec <mem_free+0x7c>)
 8002d78:	681b      	ldr	r3, [r3, #0]
    (u8_t *)rmem < (u8_t *)ram_end);

  if ((u8_t *)rmem < (u8_t *)ram || (u8_t *)rmem >= (u8_t *)ram_end) {
 8002d7a:	4298      	cmp	r0, r3
 8002d7c:	d334      	bcc.n	8002de8 <mem_free+0x78>
 8002d7e:	4a1c      	ldr	r2, [pc, #112]	; (8002df0 <mem_free+0x80>)
 8002d80:	6815      	ldr	r5, [r2, #0]
 8002d82:	42a8      	cmp	r0, r5
 8002d84:	d230      	bcs.n	8002de8 <mem_free+0x78>
  /* Get the corresponding struct mem ... */
  mem = (struct mem *)(void *)((u8_t *)rmem - SIZEOF_STRUCT_MEM);
  /* ... which has to be in a used state ... */
  LWIP_ASSERT("mem_free: mem->used", mem->used);
  /* ... and is now unused. */
  mem->used = 0;
 8002d86:	2200      	movs	r2, #0
 8002d88:	f800 2c04 	strb.w	r2, [r0, #-4]

  if (mem < lfree) {
 8002d8c:	4a19      	ldr	r2, [pc, #100]	; (8002df4 <mem_free+0x84>)
  nmem = (struct mem *)(void *)&ram[mem->next];
 8002d8e:	f830 4c08 	ldrh.w	r4, [r0, #-8]
  if (mem < lfree) {
 8002d92:	6811      	ldr	r1, [r2, #0]
  mem = (struct mem *)(void *)((u8_t *)rmem - SIZEOF_STRUCT_MEM);
 8002d94:	f1a0 0608 	sub.w	r6, r0, #8
  if (mem < lfree) {
 8002d98:	428e      	cmp	r6, r1
  nmem = (struct mem *)(void *)&ram[mem->next];
 8002d9a:	eb03 0104 	add.w	r1, r3, r4
    /* the newly freed struct is now the lowest */
    lfree = mem;
 8002d9e:	bf38      	it	cc
 8002da0:	6016      	strcc	r6, [r2, #0]
  if (mem != nmem && nmem->used == 0 && (u8_t *)nmem != (u8_t *)ram_end) {
 8002da2:	428e      	cmp	r6, r1
 8002da4:	d00e      	beq.n	8002dc4 <mem_free+0x54>
 8002da6:	790f      	ldrb	r7, [r1, #4]
 8002da8:	b967      	cbnz	r7, 8002dc4 <mem_free+0x54>
 8002daa:	428d      	cmp	r5, r1
 8002dac:	d00a      	beq.n	8002dc4 <mem_free+0x54>
    if (lfree == nmem) {
 8002dae:	6815      	ldr	r5, [r2, #0]
 8002db0:	42a9      	cmp	r1, r5
    mem->next = nmem->next;
 8002db2:	5b19      	ldrh	r1, [r3, r4]
 8002db4:	f820 1c08 	strh.w	r1, [r0, #-8]
    ((struct mem *)(void *)&ram[nmem->next])->prev = (mem_size_t)((u8_t *)mem - ram);
 8002db8:	5b19      	ldrh	r1, [r3, r4]
      lfree = mem;
 8002dba:	bf08      	it	eq
 8002dbc:	6016      	streq	r6, [r2, #0]
    ((struct mem *)(void *)&ram[nmem->next])->prev = (mem_size_t)((u8_t *)mem - ram);
 8002dbe:	4419      	add	r1, r3
 8002dc0:	1af4      	subs	r4, r6, r3
 8002dc2:	804c      	strh	r4, [r1, #2]
  pmem = (struct mem *)(void *)&ram[mem->prev];
 8002dc4:	f830 1c06 	ldrh.w	r1, [r0, #-6]
 8002dc8:	185c      	adds	r4, r3, r1
  if (pmem != mem && pmem->used == 0) {
 8002dca:	42a6      	cmp	r6, r4
 8002dcc:	d00c      	beq.n	8002de8 <mem_free+0x78>
 8002dce:	7925      	ldrb	r5, [r4, #4]
 8002dd0:	b955      	cbnz	r5, 8002de8 <mem_free+0x78>
    if (lfree == mem) {
 8002dd2:	6815      	ldr	r5, [r2, #0]
 8002dd4:	42ae      	cmp	r6, r5
      lfree = pmem;
 8002dd6:	bf08      	it	eq
 8002dd8:	6014      	streq	r4, [r2, #0]
    pmem->next = mem->next;
 8002dda:	f830 2c08 	ldrh.w	r2, [r0, #-8]
 8002dde:	525a      	strh	r2, [r3, r1]
    ((struct mem *)(void *)&ram[mem->next])->prev = (mem_size_t)((u8_t *)pmem - ram);
 8002de0:	f830 2c08 	ldrh.w	r2, [r0, #-8]
 8002de4:	4413      	add	r3, r2
 8002de6:	8059      	strh	r1, [r3, #2]
 8002de8:	bdf0      	pop	{r4, r5, r6, r7, pc}
 8002dea:	bf00      	nop
 8002dec:	20000040 	.word	0x20000040
 8002df0:	20000044 	.word	0x20000044
 8002df4:	2000003c 	.word	0x2000003c

08002df8 <mem_trim>:
  /* use the FREE_PROTECT here: it protects with sem OR SYS_ARCH_PROTECT */
  LWIP_MEM_FREE_DECL_PROTECT();

  /* Expand the size of the allocated memory region so that we can
     adjust for alignment. */
  newsize = LWIP_MEM_ALIGN_SIZE(newsize);
 8002df8:	3103      	adds	r1, #3
 8002dfa:	f64f 73fc 	movw	r3, #65532	; 0xfffc
 8002dfe:	400b      	ands	r3, r1

  if(newsize < MIN_SIZE_ALIGNED) {
 8002e00:	2b0b      	cmp	r3, #11
{
 8002e02:	b5f0      	push	{r4, r5, r6, r7, lr}
  if(newsize < MIN_SIZE_ALIGNED) {
 8002e04:	d904      	bls.n	8002e10 <mem_trim+0x18>
    /* every data block must be at least MIN_SIZE_ALIGNED long */
    newsize = MIN_SIZE_ALIGNED;
  }

  if (newsize > MEM_SIZE_ALIGNED) {
 8002e06:	f5b3 5f20 	cmp.w	r3, #10240	; 0x2800
 8002e0a:	d902      	bls.n	8002e12 <mem_trim+0x1a>
    return NULL;
 8002e0c:	2000      	movs	r0, #0
#if LWIP_ALLOW_MEM_FREE_FROM_OTHER_CONTEXT
  mem_free_count = 1;
#endif /* LWIP_ALLOW_MEM_FREE_FROM_OTHER_CONTEXT */
  LWIP_MEM_FREE_UNPROTECT();
  return rmem;
}
 8002e0e:	bdf0      	pop	{r4, r5, r6, r7, pc}
    newsize = MIN_SIZE_ALIGNED;
 8002e10:	230c      	movs	r3, #12
  LWIP_ASSERT("mem_trim: legal memory", (u8_t *)rmem >= (u8_t *)ram &&
 8002e12:	4a21      	ldr	r2, [pc, #132]	; (8002e98 <mem_trim+0xa0>)
 8002e14:	6812      	ldr	r2, [r2, #0]
  if ((u8_t *)rmem < (u8_t *)ram || (u8_t *)rmem >= (u8_t *)ram_end) {
 8002e16:	4282      	cmp	r2, r0
 8002e18:	d8f9      	bhi.n	8002e0e <mem_trim+0x16>
 8002e1a:	4920      	ldr	r1, [pc, #128]	; (8002e9c <mem_trim+0xa4>)
 8002e1c:	6809      	ldr	r1, [r1, #0]
 8002e1e:	4288      	cmp	r0, r1
 8002e20:	d2f5      	bcs.n	8002e0e <mem_trim+0x16>
  mem = (struct mem *)(void *)((u8_t *)rmem - SIZEOF_STRUCT_MEM);
 8002e22:	f1a0 0108 	sub.w	r1, r0, #8
  size = mem->next - ptr - SIZEOF_STRUCT_MEM;
 8002e26:	f830 5c08 	ldrh.w	r5, [r0, #-8]
  ptr = (mem_size_t)((u8_t *)mem - ram);
 8002e2a:	1a89      	subs	r1, r1, r2
 8002e2c:	b289      	uxth	r1, r1
  size = mem->next - ptr - SIZEOF_STRUCT_MEM;
 8002e2e:	f1a5 0408 	sub.w	r4, r5, #8
 8002e32:	1a64      	subs	r4, r4, r1
 8002e34:	b2a4      	uxth	r4, r4
  if (newsize > size) {
 8002e36:	429c      	cmp	r4, r3
 8002e38:	d3e8      	bcc.n	8002e0c <mem_trim+0x14>
  if (newsize == size) {
 8002e3a:	d0e8      	beq.n	8002e0e <mem_trim+0x16>
  mem2 = (struct mem *)(void *)&ram[mem->next];
 8002e3c:	1956      	adds	r6, r2, r5
  if(mem2->used == 0) {
 8002e3e:	7937      	ldrb	r7, [r6, #4]
 8002e40:	b9c7      	cbnz	r7, 8002e74 <mem_trim+0x7c>
    next = mem2->next;
 8002e42:	5b57      	ldrh	r7, [r2, r5]
    if (lfree == mem2) {
 8002e44:	4d16      	ldr	r5, [pc, #88]	; (8002ea0 <mem_trim+0xa8>)
    ptr2 = ptr + SIZEOF_STRUCT_MEM + newsize;
 8002e46:	f101 0408 	add.w	r4, r1, #8
 8002e4a:	4423      	add	r3, r4
    if (lfree == mem2) {
 8002e4c:	682c      	ldr	r4, [r5, #0]
    ptr2 = ptr + SIZEOF_STRUCT_MEM + newsize;
 8002e4e:	b29b      	uxth	r3, r3
    if (lfree == mem2) {
 8002e50:	42a6      	cmp	r6, r4
 8002e52:	eb02 0403 	add.w	r4, r2, r3
      lfree = (struct mem *)(void *)&ram[ptr2];
 8002e56:	bf08      	it	eq
 8002e58:	602c      	streq	r4, [r5, #0]
    mem2->used = 0;
 8002e5a:	2500      	movs	r5, #0
 8002e5c:	7125      	strb	r5, [r4, #4]
    mem2->next = next;
 8002e5e:	52d7      	strh	r7, [r2, r3]
    mem2->prev = ptr;
 8002e60:	8061      	strh	r1, [r4, #2]
    mem->next = ptr2;
 8002e62:	f820 3c08 	strh.w	r3, [r0, #-8]
    if (mem2->next != MEM_SIZE_ALIGNED) {
 8002e66:	5ad1      	ldrh	r1, [r2, r3]
 8002e68:	f5b1 5f20 	cmp.w	r1, #10240	; 0x2800
 8002e6c:	d0cf      	beq.n	8002e0e <mem_trim+0x16>
      ((struct mem *)(void *)&ram[mem2->next])->prev = ptr2;
 8002e6e:	440a      	add	r2, r1
 8002e70:	8053      	strh	r3, [r2, #2]
 8002e72:	bdf0      	pop	{r4, r5, r6, r7, pc}
  } else if (newsize + SIZEOF_STRUCT_MEM + MIN_SIZE_ALIGNED <= size) {
 8002e74:	f103 0614 	add.w	r6, r3, #20
 8002e78:	42a6      	cmp	r6, r4
 8002e7a:	d8c8      	bhi.n	8002e0e <mem_trim+0x16>
    if (mem2 < lfree) {
 8002e7c:	4e08      	ldr	r6, [pc, #32]	; (8002ea0 <mem_trim+0xa8>)
    ptr2 = ptr + SIZEOF_STRUCT_MEM + newsize;
 8002e7e:	f101 0408 	add.w	r4, r1, #8
 8002e82:	4423      	add	r3, r4
    if (mem2 < lfree) {
 8002e84:	6837      	ldr	r7, [r6, #0]
    ptr2 = ptr + SIZEOF_STRUCT_MEM + newsize;
 8002e86:	b29b      	uxth	r3, r3
    mem2 = (struct mem *)(void *)&ram[ptr2];
 8002e88:	18d4      	adds	r4, r2, r3
    if (mem2 < lfree) {
 8002e8a:	42bc      	cmp	r4, r7
      lfree = mem2;
 8002e8c:	bf38      	it	cc
 8002e8e:	6034      	strcc	r4, [r6, #0]
    mem2->used = 0;
 8002e90:	2600      	movs	r6, #0
 8002e92:	7126      	strb	r6, [r4, #4]
    mem2->next = mem->next;
 8002e94:	52d5      	strh	r5, [r2, r3]
 8002e96:	e7e3      	b.n	8002e60 <mem_trim+0x68>
 8002e98:	20000040 	.word	0x20000040
 8002e9c:	20000044 	.word	0x20000044
 8002ea0:	2000003c 	.word	0x2000003c

08002ea4 <mem_malloc>:
 *
 * Note that the returned value will always be aligned (as defined by MEM_ALIGNMENT).
 */
void *
mem_malloc(mem_size_t size)
{
 8002ea4:	e92d 43f0 	stmdb	sp!, {r4, r5, r6, r7, r8, r9, lr}
#if LWIP_ALLOW_MEM_FREE_FROM_OTHER_CONTEXT
  u8_t local_mem_free_count = 0;
#endif /* LWIP_ALLOW_MEM_FREE_FROM_OTHER_CONTEXT */
  LWIP_MEM_ALLOC_DECL_PROTECT();

  if (size == 0) {
 8002ea8:	b148      	cbz	r0, 8002ebe <mem_malloc+0x1a>
    return NULL;
  }

  /* Expand the size of the allocated memory region so that we can
     adjust for alignment. */
  size = LWIP_MEM_ALIGN_SIZE(size);
 8002eaa:	3003      	adds	r0, #3
 8002eac:	f64f 73fc 	movw	r3, #65532	; 0xfffc
 8002eb0:	4003      	ands	r3, r0

  if(size < MIN_SIZE_ALIGNED) {
 8002eb2:	2b0b      	cmp	r3, #11
 8002eb4:	d905      	bls.n	8002ec2 <mem_malloc+0x1e>
    /* every data block must be at least MIN_SIZE_ALIGNED long */
    size = MIN_SIZE_ALIGNED;
  }

  if (size > MEM_SIZE_ALIGNED) {
 8002eb6:	f5b3 5f20 	cmp.w	r3, #10240	; 0x2800
 8002eba:	d903      	bls.n	8002ec4 <mem_malloc+0x20>
    return NULL;
 8002ebc:	2000      	movs	r0, #0
  LWIP_DEBUGF(MEM_DEBUG | LWIP_DBG_LEVEL_SERIOUS, ("mem_malloc: could not allocate %"S16_F" bytes\n", (s16_t)size));
  MEM_STATS_INC(err);
  LWIP_MEM_ALLOC_UNPROTECT();
  sys_mutex_unlock(&mem_mutex);
  return NULL;
}
 8002ebe:	e8bd 83f0 	ldmia.w	sp!, {r4, r5, r6, r7, r8, r9, pc}
    size = MIN_SIZE_ALIGNED;
 8002ec2:	230c      	movs	r3, #12
    for (ptr = (mem_size_t)((u8_t *)lfree - ram); ptr < MEM_SIZE_ALIGNED - size;
 8002ec4:	4c22      	ldr	r4, [pc, #136]	; (8002f50 <mem_malloc+0xac>)
 8002ec6:	4d23      	ldr	r5, [pc, #140]	; (8002f54 <mem_malloc+0xb0>)
 8002ec8:	6827      	ldr	r7, [r4, #0]
 8002eca:	6829      	ldr	r1, [r5, #0]
 8002ecc:	1a7a      	subs	r2, r7, r1
 8002ece:	b292      	uxth	r2, r2
 8002ed0:	f5c3 5820 	rsb	r8, r3, #10240	; 0x2800
          (mem->next - (ptr + SIZEOF_STRUCT_MEM)) >= size) {
 8002ed4:	f06f 0907 	mvn.w	r9, #7
    for (ptr = (mem_size_t)((u8_t *)lfree - ram); ptr < MEM_SIZE_ALIGNED - size;
 8002ed8:	4542      	cmp	r2, r8
 8002eda:	daef      	bge.n	8002ebc <mem_malloc+0x18>
      mem = (struct mem *)(void *)&ram[ptr];
 8002edc:	1888      	adds	r0, r1, r2
 8002ede:	f831 e002 	ldrh.w	lr, [r1, r2]
      if ((!mem->used) &&
 8002ee2:	f890 c004 	ldrb.w	ip, [r0, #4]
 8002ee6:	f1bc 0f00 	cmp.w	ip, #0
 8002eea:	d12e      	bne.n	8002f4a <mem_malloc+0xa6>
          (mem->next - (ptr + SIZEOF_STRUCT_MEM)) >= size) {
 8002eec:	eba9 0602 	sub.w	r6, r9, r2
 8002ef0:	4476      	add	r6, lr
      if ((!mem->used) &&
 8002ef2:	429e      	cmp	r6, r3
 8002ef4:	d329      	bcc.n	8002f4a <mem_malloc+0xa6>
        if (mem->next - (ptr + SIZEOF_STRUCT_MEM) >= (size + SIZEOF_STRUCT_MEM + MIN_SIZE_ALIGNED)) {
 8002ef6:	f103 0814 	add.w	r8, r3, #20
 8002efa:	4546      	cmp	r6, r8
 8002efc:	d31f      	bcc.n	8002f3e <mem_malloc+0x9a>
          ptr2 = ptr + SIZEOF_STRUCT_MEM + size;
 8002efe:	3308      	adds	r3, #8
 8002f00:	4413      	add	r3, r2
 8002f02:	b29b      	uxth	r3, r3
          mem2 = (struct mem *)(void *)&ram[ptr2];
 8002f04:	18ce      	adds	r6, r1, r3
          mem2->used = 0;
 8002f06:	f886 c004 	strb.w	ip, [r6, #4]
          mem2->next = mem->next;
 8002f0a:	f821 e003 	strh.w	lr, [r1, r3]
          mem2->prev = ptr;
 8002f0e:	8072      	strh	r2, [r6, #2]
          mem->used = 1;
 8002f10:	2201      	movs	r2, #1
          mem->next = ptr2;
 8002f12:	8003      	strh	r3, [r0, #0]
          mem->used = 1;
 8002f14:	7102      	strb	r2, [r0, #4]
          if (mem2->next != MEM_SIZE_ALIGNED) {
 8002f16:	5aca      	ldrh	r2, [r1, r3]
 8002f18:	f5b2 5f20 	cmp.w	r2, #10240	; 0x2800
 8002f1c:	d001      	beq.n	8002f22 <mem_malloc+0x7e>
            ((struct mem *)(void *)&ram[mem2->next])->prev = ptr2;
 8002f1e:	4411      	add	r1, r2
 8002f20:	804b      	strh	r3, [r1, #2]
        if (mem == lfree) {
 8002f22:	4287      	cmp	r7, r0
 8002f24:	d108      	bne.n	8002f38 <mem_malloc+0x94>
          while (cur->used && cur != ram_end) {
 8002f26:	4b0c      	ldr	r3, [pc, #48]	; (8002f58 <mem_malloc+0xb4>)
            cur = (struct mem *)(void *)&ram[cur->next];
 8002f28:	6829      	ldr	r1, [r5, #0]
          while (cur->used && cur != ram_end) {
 8002f2a:	681a      	ldr	r2, [r3, #0]
            cur = (struct mem *)(void *)&ram[cur->next];
 8002f2c:	4603      	mov	r3, r0
          while (cur->used && cur != ram_end) {
 8002f2e:	791d      	ldrb	r5, [r3, #4]
 8002f30:	b10d      	cbz	r5, 8002f36 <mem_malloc+0x92>
 8002f32:	4293      	cmp	r3, r2
 8002f34:	d106      	bne.n	8002f44 <mem_malloc+0xa0>
          lfree = cur;
 8002f36:	6023      	str	r3, [r4, #0]
        return (u8_t *)mem + SIZEOF_STRUCT_MEM;
 8002f38:	3008      	adds	r0, #8
 8002f3a:	e8bd 83f0 	ldmia.w	sp!, {r4, r5, r6, r7, r8, r9, pc}
          mem->used = 1;
 8002f3e:	2301      	movs	r3, #1
 8002f40:	7103      	strb	r3, [r0, #4]
 8002f42:	e7ee      	b.n	8002f22 <mem_malloc+0x7e>
            cur = (struct mem *)(void *)&ram[cur->next];
 8002f44:	881b      	ldrh	r3, [r3, #0]
 8002f46:	440b      	add	r3, r1
 8002f48:	e7f1      	b.n	8002f2e <mem_malloc+0x8a>
         ptr = ((struct mem *)(void *)&ram[ptr])->next) {
 8002f4a:	4672      	mov	r2, lr
 8002f4c:	e7c4      	b.n	8002ed8 <mem_malloc+0x34>
 8002f4e:	bf00      	nop
 8002f50:	2000003c 	.word	0x2000003c
 8002f54:	20000040 	.word	0x20000040
 8002f58:	20000044 	.word	0x20000044

08002f5c <memp_init>:
    MEMP_STATS_AVAIL(err, i, 0);
    MEMP_STATS_AVAIL(avail, i, memp_num[i]);
  }

#if !MEMP_SEPARATE_POOLS
  memp = (struct memp *)LWIP_MEM_ALIGN(memp_memory);
 8002f5c:	4a12      	ldr	r2, [pc, #72]	; (8002fa8 <memp_init+0x4c>)
#endif /* !MEMP_SEPARATE_POOLS */
  /* for every pool: */
  for (i = 0; i < MEMP_MAX; ++i) {
    memp_tab[i] = NULL;
 8002f5e:	4813      	ldr	r0, [pc, #76]	; (8002fac <memp_init+0x50>)
#endif /* MEMP_SEPARATE_POOLS */
    /* create a linked list of memp elements */
    for (j = 0; j < memp_num[i]; ++j) {
      memp->next = memp_tab[i];
      memp_tab[i] = memp;
      memp = (struct memp *)(void *)((u8_t *)memp + MEMP_SIZE + memp_sizes[i]
 8002f60:	f8df c04c 	ldr.w	ip, [pc, #76]	; 8002fb0 <memp_init+0x54>
{
 8002f64:	e92d 43f0 	stmdb	sp!, {r4, r5, r6, r7, r8, r9, lr}
  memp = (struct memp *)LWIP_MEM_ALIGN(memp_memory);
 8002f68:	2300      	movs	r3, #0
    for (j = 0; j < memp_num[i]; ++j) {
 8002f6a:	f8df e048 	ldr.w	lr, [pc, #72]	; 8002fb4 <memp_init+0x58>
  memp = (struct memp *)LWIP_MEM_ALIGN(memp_memory);
 8002f6e:	f022 0203 	bic.w	r2, r2, #3
    memp_tab[i] = NULL;
 8002f72:	461e      	mov	r6, r3
 8002f74:	4604      	mov	r4, r0
 8002f76:	f840 6023 	str.w	r6, [r0, r3, lsl #2]
    for (j = 0; j < memp_num[i]; ++j) {
 8002f7a:	f83e 8013 	ldrh.w	r8, [lr, r3, lsl #1]
 8002f7e:	009d      	lsls	r5, r3, #2
 8002f80:	ea4f 0943 	mov.w	r9, r3, lsl #1
 8002f84:	2100      	movs	r1, #0
 8002f86:	b28f      	uxth	r7, r1
 8002f88:	45b8      	cmp	r8, r7
 8002f8a:	d804      	bhi.n	8002f96 <memp_init+0x3a>
 8002f8c:	3301      	adds	r3, #1
  for (i = 0; i < MEMP_MAX; ++i) {
 8002f8e:	2b0a      	cmp	r3, #10
 8002f90:	d1f1      	bne.n	8002f76 <memp_init+0x1a>
#if MEMP_OVERFLOW_CHECK
  memp_overflow_init();
  /* check everything a first time to see if it worked */
  memp_overflow_check_all();
#endif /* MEMP_OVERFLOW_CHECK */
}
 8002f92:	e8bd 83f0 	ldmia.w	sp!, {r4, r5, r6, r7, r8, r9, pc}
      memp->next = memp_tab[i];
 8002f96:	5967      	ldr	r7, [r4, r5]
 8002f98:	6017      	str	r7, [r2, #0]
      memp = (struct memp *)(void *)((u8_t *)memp + MEMP_SIZE + memp_sizes[i]
 8002f9a:	f839 700c 	ldrh.w	r7, [r9, ip]
      memp_tab[i] = memp;
 8002f9e:	5162      	str	r2, [r4, r5]
 8002fa0:	3101      	adds	r1, #1
      memp = (struct memp *)(void *)((u8_t *)memp + MEMP_SIZE + memp_sizes[i]
 8002fa2:	443a      	add	r2, r7
 8002fa4:	e7ef      	b.n	8002f86 <memp_init+0x2a>
 8002fa6:	bf00      	nop
 8002fa8:	2000004b 	.word	0x2000004b
 8002fac:	200024e4 	.word	0x200024e4
 8002fb0:	08007490 	.word	0x08007490
 8002fb4:	0800747c 	.word	0x0800747c

08002fb8 <memp_malloc>:
#endif
{
  struct memp *memp;
  SYS_ARCH_DECL_PROTECT(old_level);
 
  LWIP_ERROR("memp_malloc: type < MEMP_MAX", (type < MEMP_MAX), return NULL;);
 8002fb8:	2809      	cmp	r0, #9
 8002fba:	d808      	bhi.n	8002fce <memp_malloc+0x16>
  SYS_ARCH_PROTECT(old_level);
#if MEMP_OVERFLOW_CHECK >= 2
  memp_overflow_check_all();
#endif /* MEMP_OVERFLOW_CHECK >= 2 */

  memp = memp_tab[type];
 8002fbc:	4a05      	ldr	r2, [pc, #20]	; (8002fd4 <memp_malloc+0x1c>)
 8002fbe:	f852 3020 	ldr.w	r3, [r2, r0, lsl #2]
  
  if (memp != NULL) {
 8002fc2:	b113      	cbz	r3, 8002fca <memp_malloc+0x12>
    memp_tab[type] = memp->next;
 8002fc4:	6819      	ldr	r1, [r3, #0]
 8002fc6:	f842 1020 	str.w	r1, [r2, r0, lsl #2]
 8002fca:	4618      	mov	r0, r3
  }

  SYS_ARCH_UNPROTECT(old_level);

  return memp;
}
 8002fcc:	4770      	bx	lr
  LWIP_ERROR("memp_malloc: type < MEMP_MAX", (type < MEMP_MAX), return NULL;);
 8002fce:	2000      	movs	r0, #0
 8002fd0:	4770      	bx	lr
 8002fd2:	bf00      	nop
 8002fd4:	200024e4 	.word	0x200024e4

08002fd8 <memp_free>:
memp_free(memp_t type, void *mem)
{
  struct memp *memp;
  SYS_ARCH_DECL_PROTECT(old_level);

  if (mem == NULL) {
 8002fd8:	b129      	cbz	r1, 8002fe6 <memp_free+0xe>
#endif /* MEMP_OVERFLOW_CHECK >= 2 */
#endif /* MEMP_OVERFLOW_CHECK */

  MEMP_STATS_DEC(used, type); 
  
  memp->next = memp_tab[type]; 
 8002fda:	4b03      	ldr	r3, [pc, #12]	; (8002fe8 <memp_free+0x10>)
 8002fdc:	f853 2020 	ldr.w	r2, [r3, r0, lsl #2]
 8002fe0:	600a      	str	r2, [r1, #0]
  memp_tab[type] = memp;
 8002fe2:	f843 1020 	str.w	r1, [r3, r0, lsl #2]
 8002fe6:	4770      	bx	lr
 8002fe8:	200024e4 	.word	0x200024e4

08002fec <netif_init>:
}
#endif /* LWIP_HAVE_LOOPIF */

void
netif_init(void)
{
 8002fec:	4770      	bx	lr
	...

08002ff0 <netif_set_ipaddr>:
 * @note call netif_set_addr() if you also want to change netmask and
 * default gateway
 */
void
netif_set_ipaddr(struct netif *netif, ip_addr_t *ipaddr)
{
 8002ff0:	b570      	push	{r4, r5, r6, lr}
 8002ff2:	4605      	mov	r5, r0
#if LWIP_TCP
  struct tcp_pcb *pcb;
  struct tcp_pcb_listen *lpcb;

  /* address is actually being changed? */
  if (ipaddr && (ip_addr_cmp(ipaddr, &(netif->ip_addr))) == 0) {
 8002ff4:	460c      	mov	r4, r1
 8002ff6:	b151      	cbz	r1, 800300e <netif_set_ipaddr+0x1e>
 8002ff8:	680a      	ldr	r2, [r1, #0]
 8002ffa:	6843      	ldr	r3, [r0, #4]
 8002ffc:	429a      	cmp	r2, r3
 8002ffe:	d005      	beq.n	800300c <netif_set_ipaddr+0x1c>
    /* extern struct tcp_pcb *tcp_active_pcbs; defined by tcp.h */
    LWIP_DEBUGF(NETIF_DEBUG | LWIP_DBG_STATE, ("netif_set_ipaddr: netif address being changed\n"));
    pcb = tcp_active_pcbs;
 8003000:	4b0d      	ldr	r3, [pc, #52]	; (8003038 <netif_set_ipaddr+0x48>)
 8003002:	6818      	ldr	r0, [r3, #0]
    while (pcb != NULL) {
 8003004:	b928      	cbnz	r0, 8003012 <netif_set_ipaddr+0x22>
        pcb = next;
      } else {
        pcb = pcb->next;
      }
    }
    for (lpcb = tcp_listen_pcbs.listen_pcbs; lpcb != NULL; lpcb = lpcb->next) {
 8003006:	4b0d      	ldr	r3, [pc, #52]	; (800303c <netif_set_ipaddr+0x4c>)
 8003008:	681b      	ldr	r3, [r3, #0]
 800300a:	b95b      	cbnz	r3, 8003024 <netif_set_ipaddr+0x34>
  }
#endif
  snmp_delete_ipaddridx_tree(netif);
  snmp_delete_iprteidx_tree(0,netif);
  /* set new IP address to netif */
  ip_addr_set(&(netif->ip_addr), ipaddr);
 800300c:	6824      	ldr	r4, [r4, #0]
 800300e:	606c      	str	r4, [r5, #4]
    netif->name[0], netif->name[1],
    ip4_addr1_16(&netif->ip_addr),
    ip4_addr2_16(&netif->ip_addr),
    ip4_addr3_16(&netif->ip_addr),
    ip4_addr4_16(&netif->ip_addr)));
}
 8003010:	bd70      	pop	{r4, r5, r6, pc}
      if (ip_addr_cmp(&(pcb->local_ip), &(netif->ip_addr))
 8003012:	6802      	ldr	r2, [r0, #0]
 8003014:	686b      	ldr	r3, [r5, #4]
 8003016:	68c6      	ldr	r6, [r0, #12]
 8003018:	429a      	cmp	r2, r3
 800301a:	d101      	bne.n	8003020 <netif_set_ipaddr+0x30>
        tcp_abort(pcb);
 800301c:	f000 feee 	bl	8003dfc <tcp_abort>
        pcb = pcb->next;
 8003020:	4630      	mov	r0, r6
 8003022:	e7ef      	b.n	8003004 <netif_set_ipaddr+0x14>
      if ((!(ip_addr_isany(&(lpcb->local_ip)))) &&
 8003024:	681a      	ldr	r2, [r3, #0]
 8003026:	b122      	cbz	r2, 8003032 <netif_set_ipaddr+0x42>
 8003028:	6869      	ldr	r1, [r5, #4]
 800302a:	428a      	cmp	r2, r1
        ip_addr_set(&(lpcb->local_ip), ipaddr);
 800302c:	bf04      	itt	eq
 800302e:	6822      	ldreq	r2, [r4, #0]
 8003030:	601a      	streq	r2, [r3, #0]
    for (lpcb = tcp_listen_pcbs.listen_pcbs; lpcb != NULL; lpcb = lpcb->next) {
 8003032:	68db      	ldr	r3, [r3, #12]
 8003034:	e7e9      	b.n	800300a <netif_set_ipaddr+0x1a>
 8003036:	bf00      	nop
 8003038:	20004e5c 	.word	0x20004e5c
 800303c:	20004e64 	.word	0x20004e64

08003040 <netif_set_addr>:
{
 8003040:	b570      	push	{r4, r5, r6, lr}
 8003042:	4615      	mov	r5, r2
 8003044:	4606      	mov	r6, r0
 8003046:	461c      	mov	r4, r3
  netif_set_ipaddr(netif, ipaddr);
 8003048:	f7ff ffd2 	bl	8002ff0 <netif_set_ipaddr>
void
netif_set_netmask(struct netif *netif, ip_addr_t *netmask)
{
  snmp_delete_iprteidx_tree(0, netif);
  /* set new netmask to netif */
  ip_addr_set(&(netif->netmask), netmask);
 800304c:	b105      	cbz	r5, 8003050 <netif_set_addr+0x10>
 800304e:	682d      	ldr	r5, [r5, #0]
 8003050:	60b5      	str	r5, [r6, #8]
  ip_addr_set(&(netif->gw), gw);
 8003052:	b104      	cbz	r4, 8003056 <netif_set_addr+0x16>
 8003054:	6824      	ldr	r4, [r4, #0]
 8003056:	60f4      	str	r4, [r6, #12]
 8003058:	bd70      	pop	{r4, r5, r6, pc}
	...

0800305c <netif_add>:
{
 800305c:	b5f8      	push	{r3, r4, r5, r6, r7, lr}
  netif->num = netif_num++;
 800305e:	4f11      	ldr	r7, [pc, #68]	; (80030a4 <netif_add+0x48>)
  netif->state = state;
 8003060:	9e06      	ldr	r6, [sp, #24]
 8003062:	6206      	str	r6, [r0, #32]
  netif->num = netif_num++;
 8003064:	783e      	ldrb	r6, [r7, #0]
 8003066:	f880 6034 	strb.w	r6, [r0, #52]	; 0x34
  ip_addr_set_zero(&netif->ip_addr);
 800306a:	2500      	movs	r5, #0
  netif->num = netif_num++;
 800306c:	f106 0e01 	add.w	lr, r6, #1
  netif->input = input;
 8003070:	9e08      	ldr	r6, [sp, #32]
  ip_addr_set_zero(&netif->ip_addr);
 8003072:	6045      	str	r5, [r0, #4]
{
 8003074:	4604      	mov	r4, r0
  ip_addr_set_zero(&netif->netmask);
 8003076:	6085      	str	r5, [r0, #8]
  ip_addr_set_zero(&netif->gw);
 8003078:	60c5      	str	r5, [r0, #12]
  netif->flags = 0;
 800307a:	f880 5031 	strb.w	r5, [r0, #49]	; 0x31
  netif->dhcp = NULL;
 800307e:	6245      	str	r5, [r0, #36]	; 0x24
  netif->link_callback = NULL;
 8003080:	61c5      	str	r5, [r0, #28]
  netif->input = input;
 8003082:	6106      	str	r6, [r0, #16]
  netif->num = netif_num++;
 8003084:	f887 e000 	strb.w	lr, [r7]
  netif_set_addr(netif, ipaddr, netmask, gw);
 8003088:	f7ff ffda 	bl	8003040 <netif_set_addr>
  if (init(netif) != ERR_OK) {
 800308c:	4620      	mov	r0, r4
 800308e:	9b07      	ldr	r3, [sp, #28]
 8003090:	4798      	blx	r3
 8003092:	b928      	cbnz	r0, 80030a0 <netif_add+0x44>
  netif->next = netif_list;
 8003094:	4b04      	ldr	r3, [pc, #16]	; (80030a8 <netif_add+0x4c>)
 8003096:	681a      	ldr	r2, [r3, #0]
 8003098:	6022      	str	r2, [r4, #0]
  netif_list = netif;
 800309a:	601c      	str	r4, [r3, #0]
}
 800309c:	4620      	mov	r0, r4
 800309e:	bdf8      	pop	{r3, r4, r5, r6, r7, pc}
    return NULL;
 80030a0:	462c      	mov	r4, r5
 80030a2:	e7fb      	b.n	800309c <netif_add+0x40>
 80030a4:	2000250c 	.word	0x2000250c
 80030a8:	20004e50 	.word	0x20004e50

080030ac <netif_set_gw>:
  ip_addr_set(&(netif->gw), gw);
 80030ac:	b101      	cbz	r1, 80030b0 <netif_set_gw+0x4>
 80030ae:	6809      	ldr	r1, [r1, #0]
 80030b0:	60c1      	str	r1, [r0, #12]
 80030b2:	4770      	bx	lr

080030b4 <netif_set_netmask>:
  ip_addr_set(&(netif->netmask), netmask);
 80030b4:	b101      	cbz	r1, 80030b8 <netif_set_netmask+0x4>
 80030b6:	6809      	ldr	r1, [r1, #0]
 80030b8:	6081      	str	r1, [r0, #8]
 80030ba:	4770      	bx	lr

080030bc <netif_set_default>:
    snmp_delete_iprteidx_tree(1, netif);
  } else {
    /* install default route */
    snmp_insert_iprteidx_tree(1, netif);
  }
  netif_default = netif;
 80030bc:	4b01      	ldr	r3, [pc, #4]	; (80030c4 <netif_set_default+0x8>)
 80030be:	6018      	str	r0, [r3, #0]
 80030c0:	4770      	bx	lr
 80030c2:	bf00      	nop
 80030c4:	20004e54 	.word	0x20004e54

080030c8 <netif_set_up>:
 * 
 * @see dhcp_start()
 */ 
void netif_set_up(struct netif *netif)
{
  if (!(netif->flags & NETIF_FLAG_UP)) {
 80030c8:	f890 3031 	ldrb.w	r3, [r0, #49]	; 0x31
 80030cc:	07da      	lsls	r2, r3, #31
{
 80030ce:	4601      	mov	r1, r0
  if (!(netif->flags & NETIF_FLAG_UP)) {
 80030d0:	d40a      	bmi.n	80030e8 <netif_set_up+0x20>
    netif->flags |= NETIF_FLAG_UP;
 80030d2:	f043 0201 	orr.w	r2, r3, #1
    NETIF_STATUS_CALLBACK(netif);

    if (netif->flags & NETIF_FLAG_LINK_UP) {
#if LWIP_ARP
      /* For Ethernet network interfaces, we would like to send a "gratuitous ARP" */ 
      if (netif->flags & (NETIF_FLAG_ETHARP)) {
 80030d6:	f003 0330 	and.w	r3, r3, #48	; 0x30
 80030da:	2b30      	cmp	r3, #48	; 0x30
    netif->flags |= NETIF_FLAG_UP;
 80030dc:	f880 2031 	strb.w	r2, [r0, #49]	; 0x31
      if (netif->flags & (NETIF_FLAG_ETHARP)) {
 80030e0:	d102      	bne.n	80030e8 <netif_set_up+0x20>
        etharp_gratuitous(netif);
 80030e2:	3104      	adds	r1, #4
 80030e4:	f002 be72 	b.w	8005dcc <etharp_request>
 80030e8:	4770      	bx	lr

080030ea <netif_set_down>:
 * 
 * @see dhcp_start()
 */ 
void netif_set_down(struct netif *netif)
{
  if (netif->flags & NETIF_FLAG_UP) {
 80030ea:	f890 3031 	ldrb.w	r3, [r0, #49]	; 0x31
 80030ee:	07d9      	lsls	r1, r3, #31
 80030f0:	d507      	bpl.n	8003102 <netif_set_down+0x18>
    netif->flags &= ~NETIF_FLAG_UP;
 80030f2:	f023 0101 	bic.w	r1, r3, #1
#if LWIP_SNMP
    snmp_get_sysuptime(&netif->ts);
#endif

#if LWIP_ARP
    if (netif->flags & NETIF_FLAG_ETHARP) {
 80030f6:	069b      	lsls	r3, r3, #26
    netif->flags &= ~NETIF_FLAG_UP;
 80030f8:	f880 1031 	strb.w	r1, [r0, #49]	; 0x31
    if (netif->flags & NETIF_FLAG_ETHARP) {
 80030fc:	d501      	bpl.n	8003102 <netif_set_down+0x18>
      etharp_cleanup_netif(netif);
 80030fe:	f002 be51 	b.w	8005da4 <etharp_cleanup_netif>
 8003102:	4770      	bx	lr

08003104 <netif_set_link_up>:

/**
 * Called by a driver when its link goes up
 */
void netif_set_link_up(struct netif *netif )
{
 8003104:	b510      	push	{r4, lr}
  if (!(netif->flags & NETIF_FLAG_LINK_UP)) {
 8003106:	f890 3031 	ldrb.w	r3, [r0, #49]	; 0x31
 800310a:	06da      	lsls	r2, r3, #27
{
 800310c:	4604      	mov	r4, r0
  if (!(netif->flags & NETIF_FLAG_LINK_UP)) {
 800310e:	d417      	bmi.n	8003140 <netif_set_link_up+0x3c>
    netif->flags |= NETIF_FLAG_LINK_UP;
 8003110:	f043 0310 	orr.w	r3, r3, #16
 8003114:	f880 3031 	strb.w	r3, [r0, #49]	; 0x31

#if LWIP_DHCP
    if (netif->dhcp) {
 8003118:	6a43      	ldr	r3, [r0, #36]	; 0x24
 800311a:	b10b      	cbz	r3, 8003120 <netif_set_link_up+0x1c>
      dhcp_network_changed(netif);
 800311c:	f7fe fece 	bl	8001ebc <dhcp_network_changed>
#endif /* LWIP_AUTOIP */

    if (netif->flags & NETIF_FLAG_UP) {
#if LWIP_ARP
      /* For Ethernet network interfaces, we would like to send a "gratuitous ARP" */ 
      if (netif->flags & NETIF_FLAG_ETHARP) {
 8003120:	f894 3031 	ldrb.w	r3, [r4, #49]	; 0x31
 8003124:	f003 0321 	and.w	r3, r3, #33	; 0x21
 8003128:	2b21      	cmp	r3, #33	; 0x21
 800312a:	d103      	bne.n	8003134 <netif_set_link_up+0x30>
        etharp_gratuitous(netif);
 800312c:	1d21      	adds	r1, r4, #4
 800312e:	4620      	mov	r0, r4
 8003130:	f002 fe4c 	bl	8005dcc <etharp_request>
      if (netif->flags & NETIF_FLAG_IGMP) {
        igmp_report_groups( netif);
      }
#endif /* LWIP_IGMP */
    }
    NETIF_LINK_CALLBACK(netif);
 8003134:	69e3      	ldr	r3, [r4, #28]
 8003136:	b11b      	cbz	r3, 8003140 <netif_set_link_up+0x3c>
 8003138:	4620      	mov	r0, r4
  }
}
 800313a:	e8bd 4010 	ldmia.w	sp!, {r4, lr}
    NETIF_LINK_CALLBACK(netif);
 800313e:	4718      	bx	r3
 8003140:	bd10      	pop	{r4, pc}

08003142 <netif_set_link_down>:
/**
 * Called by a driver when its link goes down
 */
void netif_set_link_down(struct netif *netif )
{
  if (netif->flags & NETIF_FLAG_LINK_UP) {
 8003142:	f890 3031 	ldrb.w	r3, [r0, #49]	; 0x31
 8003146:	06d9      	lsls	r1, r3, #27
 8003148:	d506      	bpl.n	8003158 <netif_set_link_down+0x16>
    netif->flags &= ~NETIF_FLAG_LINK_UP;
 800314a:	f023 0310 	bic.w	r3, r3, #16
 800314e:	f880 3031 	strb.w	r3, [r0, #49]	; 0x31
    NETIF_LINK_CALLBACK(netif);
 8003152:	69c3      	ldr	r3, [r0, #28]
 8003154:	b103      	cbz	r3, 8003158 <netif_set_link_down+0x16>
 8003156:	4718      	bx	r3
 8003158:	4770      	bx	lr

0800315a <netif_set_link_callback>:
/**
 * Set callback to be called when link is brought up/down
 */
void netif_set_link_callback(struct netif *netif, netif_status_callback_fn link_callback)
{
  if (netif) {
 800315a:	b100      	cbz	r0, 800315e <netif_set_link_callback+0x4>
    netif->link_callback = link_callback;
 800315c:	61c1      	str	r1, [r0, #28]
 800315e:	4770      	bx	lr

08003160 <pbuf_alloced_custom>:
 *        big enough to hold 'length' plus the header size
 */
struct pbuf*
pbuf_alloced_custom(pbuf_layer l, u16_t length, pbuf_type type, struct pbuf_custom *p,
                    void *payload_mem, u16_t payload_mem_len)
{
 8003160:	b570      	push	{r4, r5, r6, lr}
 8003162:	9d04      	ldr	r5, [sp, #16]
  u16_t offset;
  LWIP_DEBUGF(PBUF_DEBUG | LWIP_DBG_TRACE, ("pbuf_alloced_custom(length=%"U16_F")\n", length));

  /* determine header offset */
  switch (l) {
 8003164:	2803      	cmp	r0, #3
 8003166:	d823      	bhi.n	80031b0 <pbuf_alloced_custom+0x50>
 8003168:	e8df f000 	tbb	[pc, r0]
 800316c:	1c1a021e 	.word	0x1c1a021e
    /* add room for transport (often TCP) layer header */
    offset = PBUF_LINK_HLEN + PBUF_IP_HLEN + PBUF_TRANSPORT_HLEN;
    break;
  case PBUF_IP:
    /* add room for IP layer header */
    offset = PBUF_LINK_HLEN + PBUF_IP_HLEN;
 8003170:	2022      	movs	r0, #34	; 0x22
  default:
    LWIP_ASSERT("pbuf_alloced_custom: bad pbuf layer", 0);
    return NULL;
  }

  if (LWIP_MEM_ALIGN_SIZE(offset) + length > payload_mem_len) {
 8003172:	3003      	adds	r0, #3
 8003174:	f020 0403 	bic.w	r4, r0, #3
 8003178:	f8bd 0014 	ldrh.w	r0, [sp, #20]
 800317c:	1866      	adds	r6, r4, r1
 800317e:	4286      	cmp	r6, r0
 8003180:	f04f 0000 	mov.w	r0, #0
 8003184:	dc15      	bgt.n	80031b2 <pbuf_alloced_custom+0x52>
    LWIP_DEBUGF(PBUF_DEBUG | LWIP_DBG_LEVEL_WARNING, ("pbuf_alloced_custom(length=%"U16_F") buffer too short\n", length));
    return NULL;
  }

  p->pbuf.next = NULL;
 8003186:	6018      	str	r0, [r3, #0]
  if (payload_mem != NULL) {
 8003188:	b185      	cbz	r5, 80031ac <pbuf_alloced_custom+0x4c>
    p->pbuf.payload = (u8_t *)payload_mem + LWIP_MEM_ALIGN_SIZE(offset);
 800318a:	442c      	add	r4, r5
 800318c:	605c      	str	r4, [r3, #4]
  } else {
    p->pbuf.payload = NULL;
  }
  p->pbuf.flags = PBUF_FLAG_IS_CUSTOM;
 800318e:	2002      	movs	r0, #2
  p->pbuf.len = p->pbuf.tot_len = length;
  p->pbuf.type = type;
 8003190:	731a      	strb	r2, [r3, #12]
  p->pbuf.ref = 1;
 8003192:	2201      	movs	r2, #1
  p->pbuf.flags = PBUF_FLAG_IS_CUSTOM;
 8003194:	7358      	strb	r0, [r3, #13]
  p->pbuf.len = p->pbuf.tot_len = length;
 8003196:	8119      	strh	r1, [r3, #8]
 8003198:	8159      	strh	r1, [r3, #10]
  p->pbuf.ref = 1;
 800319a:	81da      	strh	r2, [r3, #14]
  return &p->pbuf;
 800319c:	4618      	mov	r0, r3
 800319e:	bd70      	pop	{r4, r5, r6, pc}
    offset = PBUF_LINK_HLEN;
 80031a0:	200e      	movs	r0, #14
    break;
 80031a2:	e7e6      	b.n	8003172 <pbuf_alloced_custom+0x12>
    offset = 0;
 80031a4:	2000      	movs	r0, #0
    break;
 80031a6:	e7e4      	b.n	8003172 <pbuf_alloced_custom+0x12>
    offset = PBUF_LINK_HLEN + PBUF_IP_HLEN + PBUF_TRANSPORT_HLEN;
 80031a8:	2036      	movs	r0, #54	; 0x36
 80031aa:	e7e2      	b.n	8003172 <pbuf_alloced_custom+0x12>
    p->pbuf.payload = NULL;
 80031ac:	605d      	str	r5, [r3, #4]
 80031ae:	e7ee      	b.n	800318e <pbuf_alloced_custom+0x2e>
    return NULL;
 80031b0:	2000      	movs	r0, #0
}
 80031b2:	bd70      	pop	{r4, r5, r6, pc}

080031b4 <pbuf_header>:
 * @return non-zero on failure, zero on success.
 *
 */
u8_t
pbuf_header(struct pbuf *p, s16_t header_size_increment)
{
 80031b4:	b510      	push	{r4, lr}
  u16_t type;
  void *payload;
  u16_t increment_magnitude;

  LWIP_ASSERT("p != NULL", p != NULL);
  if ((header_size_increment == 0) || (p == NULL)) {
 80031b6:	b1e1      	cbz	r1, 80031f2 <pbuf_header+0x3e>
 80031b8:	b138      	cbz	r0, 80031ca <pbuf_header+0x16>
    return 0;
  }
 
  if (header_size_increment < 0){
 80031ba:	2900      	cmp	r1, #0
 80031bc:	da06      	bge.n	80031cc <pbuf_header+0x18>
    increment_magnitude = -header_size_increment;
 80031be:	424a      	negs	r2, r1
    /* Check that we aren't going to move off the end of the pbuf */
    LWIP_ERROR("increment_magnitude <= p->len", (increment_magnitude <= p->len), return 1;);
 80031c0:	8943      	ldrh	r3, [r0, #10]
    increment_magnitude = -header_size_increment;
 80031c2:	b292      	uxth	r2, r2
    LWIP_ERROR("increment_magnitude <= p->len", (increment_magnitude <= p->len), return 1;);
 80031c4:	4293      	cmp	r3, r2
 80031c6:	d202      	bcs.n	80031ce <pbuf_header+0x1a>
 80031c8:	2001      	movs	r0, #1

  LWIP_DEBUGF(PBUF_DEBUG | LWIP_DBG_TRACE, ("pbuf_header: old %p new %p (%"S16_F")\n",
    (void *)payload, (void *)p->payload, header_size_increment));

  return 0;
}
 80031ca:	bd10      	pop	{r4, pc}
    increment_magnitude = header_size_increment;
 80031cc:	b28a      	uxth	r2, r1
  type = p->type;
 80031ce:	7b04      	ldrb	r4, [r0, #12]
  payload = p->payload;
 80031d0:	6843      	ldr	r3, [r0, #4]
  if (type == PBUF_RAM || type == PBUF_POOL) {
 80031d2:	b10c      	cbz	r4, 80031d8 <pbuf_header+0x24>
 80031d4:	2c03      	cmp	r4, #3
 80031d6:	d10e      	bne.n	80031f6 <pbuf_header+0x42>
    p->payload = (u8_t *)p->payload - header_size_increment;
 80031d8:	1a5b      	subs	r3, r3, r1
    if ((u8_t *)p->payload < (u8_t *)p + SIZEOF_STRUCT_PBUF) {
 80031da:	f100 0210 	add.w	r2, r0, #16
 80031de:	4293      	cmp	r3, r2
 80031e0:	d3f2      	bcc.n	80031c8 <pbuf_header+0x14>
      p->payload = (u8_t *)p->payload - header_size_increment;
 80031e2:	6043      	str	r3, [r0, #4]
  p->len += header_size_increment;
 80031e4:	8943      	ldrh	r3, [r0, #10]
 80031e6:	b289      	uxth	r1, r1
 80031e8:	440b      	add	r3, r1
 80031ea:	8143      	strh	r3, [r0, #10]
  p->tot_len += header_size_increment;
 80031ec:	8903      	ldrh	r3, [r0, #8]
 80031ee:	4419      	add	r1, r3
 80031f0:	8101      	strh	r1, [r0, #8]
  return 0;
 80031f2:	2000      	movs	r0, #0
 80031f4:	bd10      	pop	{r4, pc}
  } else if (type == PBUF_REF || type == PBUF_ROM) {
 80031f6:	3c01      	subs	r4, #1
 80031f8:	2c01      	cmp	r4, #1
 80031fa:	d8e5      	bhi.n	80031c8 <pbuf_header+0x14>
    if ((header_size_increment < 0) && (increment_magnitude <= p->len)) {
 80031fc:	2900      	cmp	r1, #0
 80031fe:	dae3      	bge.n	80031c8 <pbuf_header+0x14>
 8003200:	8944      	ldrh	r4, [r0, #10]
 8003202:	4294      	cmp	r4, r2
 8003204:	d3e0      	bcc.n	80031c8 <pbuf_header+0x14>
      p->payload = (u8_t *)p->payload - header_size_increment;
 8003206:	1a5b      	subs	r3, r3, r1
 8003208:	e7eb      	b.n	80031e2 <pbuf_header+0x2e>

0800320a <pbuf_free>:
 * 1->1->1 becomes .......
 *
 */
u8_t
pbuf_free(struct pbuf *p)
{
 800320a:	b538      	push	{r3, r4, r5, lr}
  u16_t type;
  struct pbuf *q;
  u8_t count;

  if (p == NULL) {
 800320c:	4601      	mov	r1, r0
 800320e:	b310      	cbz	r0, 8003256 <pbuf_free+0x4c>
 8003210:	2400      	movs	r4, #0
 8003212:	b2e0      	uxtb	r0, r4
    p->type == PBUF_REF || p->type == PBUF_POOL);

  count = 0;
  /* de-allocate all consecutive pbufs from the head of the chain that
   * obtain a zero reference count after decrementing*/
  while (p != NULL) {
 8003214:	b901      	cbnz	r1, 8003218 <pbuf_free+0xe>
 8003216:	bd38      	pop	{r3, r4, r5, pc}
     * further protection. */
    SYS_ARCH_PROTECT(old_level);
    /* all pbufs in a chain are referenced at least once */
    LWIP_ASSERT("pbuf_free: p->ref > 0", p->ref > 0);
    /* decrease reference count (number of pointers to pbuf) */
    ref = --(p->ref);
 8003218:	89cb      	ldrh	r3, [r1, #14]
 800321a:	3b01      	subs	r3, #1
 800321c:	b29b      	uxth	r3, r3
 800321e:	81cb      	strh	r3, [r1, #14]
    SYS_ARCH_UNPROTECT(old_level);
    /* this pbuf is no longer referenced to? */
    if (ref == 0) {
 8003220:	b9cb      	cbnz	r3, 8003256 <pbuf_free+0x4c>
      q = p->next;
      LWIP_DEBUGF( PBUF_DEBUG | LWIP_DBG_TRACE, ("pbuf_free: deallocating %p\n", (void *)p));
      type = p->type;
#if LWIP_SUPPORT_CUSTOM_PBUF
      /* is this a custom pbuf? */
      if ((p->flags & PBUF_FLAG_IS_CUSTOM) != 0) {
 8003222:	7b4b      	ldrb	r3, [r1, #13]
      q = p->next;
 8003224:	680d      	ldr	r5, [r1, #0]
      if ((p->flags & PBUF_FLAG_IS_CUSTOM) != 0) {
 8003226:	079b      	lsls	r3, r3, #30
 8003228:	d505      	bpl.n	8003236 <pbuf_free+0x2c>
        struct pbuf_custom *pc = (struct pbuf_custom*)p;
        LWIP_ASSERT("pc->custom_free_function != NULL", pc->custom_free_function != NULL);
        pc->custom_free_function(p);
 800322a:	690b      	ldr	r3, [r1, #16]
 800322c:	4608      	mov	r0, r1
 800322e:	4798      	blx	r3
 8003230:	3401      	adds	r4, #1
          mem_free(p);
        }
      }
      count++;
      /* proceed to next pbuf */
      p = q;
 8003232:	4629      	mov	r1, r5
 8003234:	e7ed      	b.n	8003212 <pbuf_free+0x8>
      type = p->type;
 8003236:	7b0b      	ldrb	r3, [r1, #12]
        if (type == PBUF_POOL) {
 8003238:	2b03      	cmp	r3, #3
 800323a:	d103      	bne.n	8003244 <pbuf_free+0x3a>
          memp_free(MEMP_PBUF_POOL, p);
 800323c:	2009      	movs	r0, #9
          memp_free(MEMP_PBUF, p);
 800323e:	f7ff fecb 	bl	8002fd8 <memp_free>
 8003242:	e7f5      	b.n	8003230 <pbuf_free+0x26>
        } else if (type == PBUF_ROM || type == PBUF_REF) {
 8003244:	3b01      	subs	r3, #1
 8003246:	2b01      	cmp	r3, #1
 8003248:	d801      	bhi.n	800324e <pbuf_free+0x44>
          memp_free(MEMP_PBUF, p);
 800324a:	2008      	movs	r0, #8
 800324c:	e7f7      	b.n	800323e <pbuf_free+0x34>
          mem_free(p);
 800324e:	4608      	mov	r0, r1
 8003250:	f7ff fd8e 	bl	8002d70 <mem_free>
 8003254:	e7ec      	b.n	8003230 <pbuf_free+0x26>
    }
  }
  PERF_STOP("pbuf_free");
  /* return number of de-allocated pbufs */
  return count;
}
 8003256:	bd38      	pop	{r3, r4, r5, pc}

08003258 <pbuf_alloc>:
{
 8003258:	e92d 43f8 	stmdb	sp!, {r3, r4, r5, r6, r7, r8, r9, lr}
 800325c:	460e      	mov	r6, r1
 800325e:	4617      	mov	r7, r2
  switch (layer) {
 8003260:	2803      	cmp	r0, #3
 8003262:	d815      	bhi.n	8003290 <pbuf_alloc+0x38>
 8003264:	e8df f000 	tbb	[pc, r0]
 8003268:	0b09020d 	.word	0x0b09020d
    offset = PBUF_LINK_HLEN + PBUF_IP_HLEN;
 800326c:	2522      	movs	r5, #34	; 0x22
  switch (type) {
 800326e:	2f03      	cmp	r7, #3
 8003270:	d80e      	bhi.n	8003290 <pbuf_alloc+0x38>
 8003272:	e8df f007 	tbb	[pc, r7]
 8003276:	674e      	.short	0x674e
 8003278:	0867      	.short	0x0867
    offset = PBUF_LINK_HLEN;
 800327a:	250e      	movs	r5, #14
    break;
 800327c:	e7f7      	b.n	800326e <pbuf_alloc+0x16>
    offset = 0;
 800327e:	2500      	movs	r5, #0
    break;
 8003280:	e7f5      	b.n	800326e <pbuf_alloc+0x16>
    offset = PBUF_LINK_HLEN + PBUF_IP_HLEN + PBUF_TRANSPORT_HLEN;
 8003282:	2536      	movs	r5, #54	; 0x36
 8003284:	e7f3      	b.n	800326e <pbuf_alloc+0x16>
    p = (struct pbuf *)memp_malloc(MEMP_PBUF_POOL);
 8003286:	2009      	movs	r0, #9
 8003288:	f7ff fe96 	bl	8002fb8 <memp_malloc>
    if (p == NULL) {
 800328c:	4604      	mov	r4, r0
 800328e:	b908      	cbnz	r0, 8003294 <pbuf_alloc+0x3c>
    return NULL;
 8003290:	2400      	movs	r4, #0
 8003292:	e01d      	b.n	80032d0 <pbuf_alloc+0x78>
    p->type = type;
 8003294:	2203      	movs	r2, #3
    p->payload = LWIP_MEM_ALIGN((void *)((u8_t *)p + (SIZEOF_STRUCT_PBUF + offset)));
 8003296:	1943      	adds	r3, r0, r5
    p->len = LWIP_MIN(length, PBUF_POOL_BUFSIZE_ALIGNED - LWIP_MEM_ALIGN_SIZE(offset));
 8003298:	4415      	add	r5, r2
 800329a:	f025 0503 	bic.w	r5, r5, #3
 800329e:	f5c5 7500 	rsb	r5, r5, #512	; 0x200
    p->payload = LWIP_MEM_ALIGN((void *)((u8_t *)p + (SIZEOF_STRUCT_PBUF + offset)));
 80032a2:	3313      	adds	r3, #19
 80032a4:	f023 0303 	bic.w	r3, r3, #3
    p->len = LWIP_MIN(length, PBUF_POOL_BUFSIZE_ALIGNED - LWIP_MEM_ALIGN_SIZE(offset));
 80032a8:	42b5      	cmp	r5, r6
 80032aa:	bfa8      	it	ge
 80032ac:	4635      	movge	r5, r6
    p->next = NULL;
 80032ae:	2700      	movs	r7, #0
    p->payload = LWIP_MEM_ALIGN((void *)((u8_t *)p + (SIZEOF_STRUCT_PBUF + offset)));
 80032b0:	6043      	str	r3, [r0, #4]
    p->ref = 1;
 80032b2:	2301      	movs	r3, #1
    p->len = LWIP_MIN(length, PBUF_POOL_BUFSIZE_ALIGNED - LWIP_MEM_ALIGN_SIZE(offset));
 80032b4:	8145      	strh	r5, [r0, #10]
    p->type = type;
 80032b6:	7302      	strb	r2, [r0, #12]
    p->next = NULL;
 80032b8:	6007      	str	r7, [r0, #0]
    p->tot_len = length;
 80032ba:	8106      	strh	r6, [r0, #8]
    p->ref = 1;
 80032bc:	81c3      	strh	r3, [r0, #14]
    rem_len = length - p->len;
 80032be:	1b75      	subs	r5, r6, r5
    while (rem_len > 0) {
 80032c0:	4681      	mov	r9, r0
      q->type = type;
 80032c2:	4690      	mov	r8, r2
    while (rem_len > 0) {
 80032c4:	2d00      	cmp	r5, #0
 80032c6:	dc06      	bgt.n	80032d6 <pbuf_alloc+0x7e>
  p->ref = 1;
 80032c8:	2301      	movs	r3, #1
 80032ca:	81e3      	strh	r3, [r4, #14]
  p->flags = 0;
 80032cc:	2300      	movs	r3, #0
 80032ce:	7363      	strb	r3, [r4, #13]
}
 80032d0:	4620      	mov	r0, r4
 80032d2:	e8bd 83f8 	ldmia.w	sp!, {r3, r4, r5, r6, r7, r8, r9, pc}
      q = (struct pbuf *)memp_malloc(MEMP_PBUF_POOL);
 80032d6:	2009      	movs	r0, #9
 80032d8:	f7ff fe6e 	bl	8002fb8 <memp_malloc>
      if (q == NULL) {
 80032dc:	b918      	cbnz	r0, 80032e6 <pbuf_alloc+0x8e>
        pbuf_free(p);
 80032de:	4620      	mov	r0, r4
 80032e0:	f7ff ff93 	bl	800320a <pbuf_free>
 80032e4:	e7d4      	b.n	8003290 <pbuf_alloc+0x38>
      q->tot_len = (u16_t)rem_len;
 80032e6:	b2ab      	uxth	r3, r5
      q->payload = (void *)((u8_t *)q + SIZEOF_STRUCT_PBUF);
 80032e8:	f100 0210 	add.w	r2, r0, #16
      q->len = LWIP_MIN((u16_t)rem_len, PBUF_POOL_BUFSIZE_ALIGNED);
 80032ec:	f5b3 7f00 	cmp.w	r3, #512	; 0x200
      q->type = type;
 80032f0:	f880 800c 	strb.w	r8, [r0, #12]
      q->flags = 0;
 80032f4:	7347      	strb	r7, [r0, #13]
      q->next = NULL;
 80032f6:	6007      	str	r7, [r0, #0]
      r->next = q;
 80032f8:	f8c9 0000 	str.w	r0, [r9]
      q->tot_len = (u16_t)rem_len;
 80032fc:	8103      	strh	r3, [r0, #8]
      q->payload = (void *)((u8_t *)q + SIZEOF_STRUCT_PBUF);
 80032fe:	6042      	str	r2, [r0, #4]
      q->len = LWIP_MIN((u16_t)rem_len, PBUF_POOL_BUFSIZE_ALIGNED);
 8003300:	bf28      	it	cs
 8003302:	f44f 7300 	movcs.w	r3, #512	; 0x200
      q->ref = 1;
 8003306:	2201      	movs	r2, #1
      q->len = LWIP_MIN((u16_t)rem_len, PBUF_POOL_BUFSIZE_ALIGNED);
 8003308:	8143      	strh	r3, [r0, #10]
      q->ref = 1;
 800330a:	81c2      	strh	r2, [r0, #14]
      rem_len -= q->len;
 800330c:	1aed      	subs	r5, r5, r3
 800330e:	4681      	mov	r9, r0
 8003310:	e7d8      	b.n	80032c4 <pbuf_alloc+0x6c>
    p = (struct pbuf*)mem_malloc(LWIP_MEM_ALIGN_SIZE(SIZEOF_STRUCT_PBUF + offset) + LWIP_MEM_ALIGN_SIZE(length));
 8003312:	f105 0013 	add.w	r0, r5, #19
 8003316:	1cf3      	adds	r3, r6, #3
 8003318:	f023 0303 	bic.w	r3, r3, #3
 800331c:	f020 0003 	bic.w	r0, r0, #3
 8003320:	4418      	add	r0, r3
 8003322:	b280      	uxth	r0, r0
 8003324:	f7ff fdbe 	bl	8002ea4 <mem_malloc>
    if (p == NULL) {
 8003328:	4604      	mov	r4, r0
 800332a:	2800      	cmp	r0, #0
 800332c:	d0b0      	beq.n	8003290 <pbuf_alloc+0x38>
    p->payload = LWIP_MEM_ALIGN((void *)((u8_t *)p + SIZEOF_STRUCT_PBUF + offset));
 800332e:	4405      	add	r5, r0
 8003330:	3513      	adds	r5, #19
    p->next = NULL;
 8003332:	2300      	movs	r3, #0
    p->payload = LWIP_MEM_ALIGN((void *)((u8_t *)p + SIZEOF_STRUCT_PBUF + offset));
 8003334:	f025 0503 	bic.w	r5, r5, #3
 8003338:	6045      	str	r5, [r0, #4]
    p->len = p->tot_len = length;
 800333a:	8106      	strh	r6, [r0, #8]
 800333c:	8146      	strh	r6, [r0, #10]
    p->next = NULL;
 800333e:	6003      	str	r3, [r0, #0]
    p->type = type;
 8003340:	7303      	strb	r3, [r0, #12]
    break;
 8003342:	e7c1      	b.n	80032c8 <pbuf_alloc+0x70>
    p = (struct pbuf *)memp_malloc(MEMP_PBUF);
 8003344:	2008      	movs	r0, #8
 8003346:	f7ff fe37 	bl	8002fb8 <memp_malloc>
    if (p == NULL) {
 800334a:	4604      	mov	r4, r0
 800334c:	2800      	cmp	r0, #0
 800334e:	d09f      	beq.n	8003290 <pbuf_alloc+0x38>
    p->payload = NULL;
 8003350:	2300      	movs	r3, #0
 8003352:	6043      	str	r3, [r0, #4]
    p->len = p->tot_len = length;
 8003354:	8106      	strh	r6, [r0, #8]
 8003356:	8146      	strh	r6, [r0, #10]
    p->next = NULL;
 8003358:	6003      	str	r3, [r0, #0]
    p->type = type;
 800335a:	7307      	strb	r7, [r0, #12]
    break;
 800335c:	e7b4      	b.n	80032c8 <pbuf_alloc+0x70>

0800335e <pbuf_realloc>:
{
 800335e:	b538      	push	{r3, r4, r5, lr}
  if (new_len >= p->tot_len) {
 8003360:	8903      	ldrh	r3, [r0, #8]
 8003362:	428b      	cmp	r3, r1
{
 8003364:	4604      	mov	r4, r0
  if (new_len >= p->tot_len) {
 8003366:	d918      	bls.n	800339a <pbuf_realloc+0x3c>
 8003368:	460d      	mov	r5, r1
    q->tot_len += (u16_t)grow;
 800336a:	1acb      	subs	r3, r1, r3
  while (rem_len > q->len) {
 800336c:	8961      	ldrh	r1, [r4, #10]
 800336e:	428d      	cmp	r5, r1
 8003370:	d814      	bhi.n	800339c <pbuf_realloc+0x3e>
  if ((q->type == PBUF_RAM) && (rem_len != q->len)) {
 8003372:	7b23      	ldrb	r3, [r4, #12]
 8003374:	b94b      	cbnz	r3, 800338a <pbuf_realloc+0x2c>
 8003376:	428d      	cmp	r5, r1
 8003378:	d007      	beq.n	800338a <pbuf_realloc+0x2c>
    q = (struct pbuf *)mem_trim(q, (u16_t)((u8_t *)q->payload - (u8_t *)q) + rem_len);
 800337a:	6861      	ldr	r1, [r4, #4]
 800337c:	1b09      	subs	r1, r1, r4
 800337e:	4429      	add	r1, r5
 8003380:	4620      	mov	r0, r4
 8003382:	b289      	uxth	r1, r1
 8003384:	f7ff fd38 	bl	8002df8 <mem_trim>
 8003388:	4604      	mov	r4, r0
  if (q->next != NULL) {
 800338a:	6820      	ldr	r0, [r4, #0]
  q->len = rem_len;
 800338c:	8165      	strh	r5, [r4, #10]
  q->tot_len = q->len;
 800338e:	8125      	strh	r5, [r4, #8]
  if (q->next != NULL) {
 8003390:	b108      	cbz	r0, 8003396 <pbuf_realloc+0x38>
    pbuf_free(q->next);
 8003392:	f7ff ff3a 	bl	800320a <pbuf_free>
  q->next = NULL;
 8003396:	2300      	movs	r3, #0
 8003398:	6023      	str	r3, [r4, #0]
 800339a:	bd38      	pop	{r3, r4, r5, pc}
    q->tot_len += (u16_t)grow;
 800339c:	8922      	ldrh	r2, [r4, #8]
    rem_len -= q->len;
 800339e:	1a6d      	subs	r5, r5, r1
    q->tot_len += (u16_t)grow;
 80033a0:	441a      	add	r2, r3
 80033a2:	8122      	strh	r2, [r4, #8]
    rem_len -= q->len;
 80033a4:	b2ad      	uxth	r5, r5
    q = q->next;
 80033a6:	6824      	ldr	r4, [r4, #0]
 80033a8:	e7e0      	b.n	800336c <pbuf_realloc+0xe>

080033aa <pbuf_clen>:
 * @return the number of pbufs in a chain
 */

u8_t
pbuf_clen(struct pbuf *p)
{
 80033aa:	4603      	mov	r3, r0
  u8_t len;

  len = 0;
  while (p != NULL) {
 80033ac:	2200      	movs	r2, #0
 80033ae:	b2d0      	uxtb	r0, r2
 80033b0:	3201      	adds	r2, #1
 80033b2:	b903      	cbnz	r3, 80033b6 <pbuf_clen+0xc>
    ++len;
    p = p->next;
  }
  return len;
}
 80033b4:	4770      	bx	lr
    p = p->next;
 80033b6:	681b      	ldr	r3, [r3, #0]
 80033b8:	e7f9      	b.n	80033ae <pbuf_clen+0x4>

080033ba <pbuf_ref>:
void
pbuf_ref(struct pbuf *p)
{
  SYS_ARCH_DECL_PROTECT(old_level);
  /* pbuf given? */
  if (p != NULL) {
 80033ba:	b110      	cbz	r0, 80033c2 <pbuf_ref+0x8>
    SYS_ARCH_PROTECT(old_level);
    ++(p->ref);
 80033bc:	89c3      	ldrh	r3, [r0, #14]
 80033be:	3301      	adds	r3, #1
 80033c0:	81c3      	strh	r3, [r0, #14]
 80033c2:	4770      	bx	lr

080033c4 <pbuf_cat>:
 * @see pbuf_chain()
 */

void
pbuf_cat(struct pbuf *h, struct pbuf *t)
{
 80033c4:	b510      	push	{r4, lr}
  struct pbuf *p;

  LWIP_ERROR("(h != NULL) && (t != NULL) (programmer violates API)",
 80033c6:	b150      	cbz	r0, 80033de <pbuf_cat+0x1a>
 80033c8:	b909      	cbnz	r1, 80033ce <pbuf_cat+0xa>
 80033ca:	bd10      	pop	{r4, pc}
             ((h != NULL) && (t != NULL)), return;);

  /* proceed to last pbuf of chain */
  for (p = h; p->next != NULL; p = p->next) {
    /* add total length of second chain to all totals of first chain */
    p->tot_len += t->tot_len;
 80033cc:	4620      	mov	r0, r4
 80033ce:	8903      	ldrh	r3, [r0, #8]
 80033d0:	890a      	ldrh	r2, [r1, #8]
  for (p = h; p->next != NULL; p = p->next) {
 80033d2:	6804      	ldr	r4, [r0, #0]
    p->tot_len += t->tot_len;
 80033d4:	4413      	add	r3, r2
 80033d6:	8103      	strh	r3, [r0, #8]
  for (p = h; p->next != NULL; p = p->next) {
 80033d8:	2c00      	cmp	r4, #0
 80033da:	d1f7      	bne.n	80033cc <pbuf_cat+0x8>
  LWIP_ASSERT("p->tot_len == p->len (of last pbuf in chain)", p->tot_len == p->len);
  LWIP_ASSERT("p->next == NULL", p->next == NULL);
  /* add total length of second chain to last pbuf total of first chain */
  p->tot_len += t->tot_len;
  /* chain last pbuf of head (p) with first of tail (t) */
  p->next = t;
 80033dc:	6001      	str	r1, [r0, #0]
 80033de:	bd10      	pop	{r4, pc}

080033e0 <pbuf_chain>:
 * The ->ref field of the first pbuf of the tail chain is adjusted.
 *
 */
void
pbuf_chain(struct pbuf *h, struct pbuf *t)
{
 80033e0:	b510      	push	{r4, lr}
  pbuf_cat(h, t);
 80033e2:	f7ff ffef 	bl	80033c4 <pbuf_cat>
  /* t is now referenced by h */
  pbuf_ref(t);
  LWIP_DEBUGF(PBUF_DEBUG | LWIP_DBG_TRACE, ("pbuf_chain: %p references %p\n", (void *)h, (void *)t));
}
 80033e6:	e8bd 4010 	ldmia.w	sp!, {r4, lr}
  pbuf_ref(t);
 80033ea:	4608      	mov	r0, r1
 80033ec:	f7ff bfe5 	b.w	80033ba <pbuf_ref>

080033f0 <pbuf_copy>:
 *         ERR_ARG if one of the pbufs is NULL or p_to is not big
 *                 enough to hold p_from
 */
err_t
pbuf_copy(struct pbuf *p_to, struct pbuf *p_from)
{
 80033f0:	e92d 41f0 	stmdb	sp!, {r4, r5, r6, r7, r8, lr}
 80033f4:	460c      	mov	r4, r1

  LWIP_DEBUGF(PBUF_DEBUG | LWIP_DBG_TRACE, ("pbuf_copy(%p, %p)\n",
    (void*)p_to, (void*)p_from));

  /* is the target big enough to hold the source? */
  LWIP_ERROR("pbuf_copy: target not big enough to hold source", ((p_to != NULL) &&
 80033f6:	4605      	mov	r5, r0
 80033f8:	b918      	cbnz	r0, 8003402 <pbuf_copy+0x12>
 80033fa:	f06f 000d 	mvn.w	r0, #13
 80033fe:	e8bd 81f0 	ldmia.w	sp!, {r4, r5, r6, r7, r8, pc}
 8003402:	2900      	cmp	r1, #0
 8003404:	d0f9      	beq.n	80033fa <pbuf_copy+0xa>
 8003406:	8902      	ldrh	r2, [r0, #8]
 8003408:	890b      	ldrh	r3, [r1, #8]
 800340a:	429a      	cmp	r2, r3
 800340c:	d3f5      	bcc.n	80033fa <pbuf_copy+0xa>
 800340e:	f04f 0800 	mov.w	r8, #0
 8003412:	4647      	mov	r7, r8

  /* iterate through pbuf chain */
  do
  {
    /* copy one part of the original chain */
    if ((p_to->len - offset_to) >= (p_from->len - offset_from)) {
 8003414:	8963      	ldrh	r3, [r4, #10]
 8003416:	896e      	ldrh	r6, [r5, #10]
      len = p_from->len - offset_from;
    } else {
      /* current p_from does not fit into current p_to */
      len = p_to->len - offset_to;
    }
    MEMCPY((u8_t*)p_to->payload + offset_to, (u8_t*)p_from->payload + offset_from, len);
 8003418:	6861      	ldr	r1, [r4, #4]
 800341a:	6868      	ldr	r0, [r5, #4]
    if ((p_to->len - offset_to) >= (p_from->len - offset_from)) {
 800341c:	1bf6      	subs	r6, r6, r7
 800341e:	eba3 0308 	sub.w	r3, r3, r8
 8003422:	429e      	cmp	r6, r3
      len = p_from->len - offset_from;
 8003424:	bfac      	ite	ge
 8003426:	b29e      	uxthge	r6, r3
      len = p_to->len - offset_to;
 8003428:	b2b6      	uxthlt	r6, r6
    MEMCPY((u8_t*)p_to->payload + offset_to, (u8_t*)p_from->payload + offset_from, len);
 800342a:	4632      	mov	r2, r6
 800342c:	4441      	add	r1, r8
 800342e:	4438      	add	r0, r7
 8003430:	f004 f801 	bl	8007436 <memcpy>
    offset_to += len;
 8003434:	4437      	add	r7, r6
    offset_from += len;
    LWIP_ASSERT("offset_to <= p_to->len", offset_to <= p_to->len);
    LWIP_ASSERT("offset_from <= p_from->len", offset_from <= p_from->len);
    if (offset_from >= p_from->len) {
 8003436:	8962      	ldrh	r2, [r4, #10]
    LWIP_ASSERT("offset_to <= p_to->len", offset_to <= p_to->len);
 8003438:	896b      	ldrh	r3, [r5, #10]
    offset_from += len;
 800343a:	4446      	add	r6, r8
 800343c:	fa1f f886 	uxth.w	r8, r6
    if (offset_from >= p_from->len) {
 8003440:	4542      	cmp	r2, r8
    offset_to += len;
 8003442:	b2bf      	uxth	r7, r7
      /* on to next p_from (if any) */
      offset_from = 0;
      p_from = p_from->next;
 8003444:	bf9c      	itt	ls
 8003446:	6824      	ldrls	r4, [r4, #0]
      offset_from = 0;
 8003448:	f04f 0800 	movls.w	r8, #0
    }
    if (offset_to == p_to->len) {
 800344c:	429f      	cmp	r7, r3
 800344e:	d10b      	bne.n	8003468 <pbuf_copy+0x78>
      /* on to next p_to (if any) */
      offset_to = 0;
      p_to = p_to->next;
 8003450:	682d      	ldr	r5, [r5, #0]
      LWIP_ERROR("p_to != NULL", (p_to != NULL) || (p_from == NULL) , return ERR_ARG;);
 8003452:	b945      	cbnz	r5, 8003466 <pbuf_copy+0x76>
 8003454:	2c00      	cmp	r4, #0
 8003456:	d1d0      	bne.n	80033fa <pbuf_copy+0xa>
      LWIP_ERROR("pbuf_copy() does not allow packet queues!\n",
                  (p_to->next == NULL), return ERR_VAL;);
    }
  } while (p_from);
  LWIP_DEBUGF(PBUF_DEBUG | LWIP_DBG_TRACE, ("pbuf_copy: end of chain reached.\n"));
  return ERR_OK;
 8003458:	4620      	mov	r0, r4
 800345a:	e8bd 81f0 	ldmia.w	sp!, {r4, r5, r6, r7, r8, pc}
      LWIP_ERROR("pbuf_copy() does not allow packet queues!\n",
 800345e:	f06f 0005 	mvn.w	r0, #5
 8003462:	e8bd 81f0 	ldmia.w	sp!, {r4, r5, r6, r7, r8, pc}
      offset_to = 0;
 8003466:	2700      	movs	r7, #0
    if((p_from != NULL) && (p_from->len == p_from->tot_len)) {
 8003468:	b134      	cbz	r4, 8003478 <pbuf_copy+0x88>
 800346a:	8962      	ldrh	r2, [r4, #10]
 800346c:	8923      	ldrh	r3, [r4, #8]
 800346e:	429a      	cmp	r2, r3
 8003470:	d102      	bne.n	8003478 <pbuf_copy+0x88>
      LWIP_ERROR("pbuf_copy() does not allow packet queues!\n",
 8003472:	6823      	ldr	r3, [r4, #0]
 8003474:	2b00      	cmp	r3, #0
 8003476:	d1f2      	bne.n	800345e <pbuf_copy+0x6e>
    if((p_to != NULL) && (p_to->len == p_to->tot_len)) {
 8003478:	896a      	ldrh	r2, [r5, #10]
 800347a:	892b      	ldrh	r3, [r5, #8]
 800347c:	429a      	cmp	r2, r3
 800347e:	d102      	bne.n	8003486 <pbuf_copy+0x96>
      LWIP_ERROR("pbuf_copy() does not allow packet queues!\n",
 8003480:	682b      	ldr	r3, [r5, #0]
 8003482:	2b00      	cmp	r3, #0
 8003484:	d1eb      	bne.n	800345e <pbuf_copy+0x6e>
  } while (p_from);
 8003486:	2c00      	cmp	r4, #0
 8003488:	d1c4      	bne.n	8003414 <pbuf_copy+0x24>
 800348a:	e7e5      	b.n	8003458 <pbuf_copy+0x68>

0800348c <pbuf_copy_partial>:
 * @param offset offset into the packet buffer from where to begin copying len bytes
 * @return the number of bytes copied, or 0 on failure
 */
u16_t
pbuf_copy_partial(struct pbuf *buf, void *dataptr, u16_t len, u16_t offset)
{
 800348c:	e92d 41f0 	stmdb	sp!, {r4, r5, r6, r7, r8, lr}
 8003490:	460f      	mov	r7, r1
 8003492:	4690      	mov	r8, r2
  struct pbuf *p;
  u16_t left;
  u16_t buf_copy_len;
  u16_t copied_total = 0;

  LWIP_ERROR("pbuf_copy_partial: invalid buf", (buf != NULL), return 0;);
 8003494:	4606      	mov	r6, r0
 8003496:	b320      	cbz	r0, 80034e2 <pbuf_copy_partial+0x56>
  LWIP_ERROR("pbuf_copy_partial: invalid dataptr", (dataptr != NULL), return 0;);
 8003498:	b329      	cbz	r1, 80034e6 <pbuf_copy_partial+0x5a>
 800349a:	2500      	movs	r5, #0
  if((buf == NULL) || (dataptr == NULL)) {
    return 0;
  }

  /* Note some systems use byte copy if dataptr or one of the pbuf payload pointers are unaligned. */
  for(p = buf; len != 0 && p != NULL; p = p->next) {
 800349c:	f1b8 0f00 	cmp.w	r8, #0
 80034a0:	d000      	beq.n	80034a4 <pbuf_copy_partial+0x18>
 80034a2:	b916      	cbnz	r6, 80034aa <pbuf_copy_partial+0x1e>
      len -= buf_copy_len;
      offset = 0;
    }
  }
  return copied_total;
}
 80034a4:	4628      	mov	r0, r5
 80034a6:	e8bd 81f0 	ldmia.w	sp!, {r4, r5, r6, r7, r8, pc}
    if ((offset != 0) && (offset >= p->len)) {
 80034aa:	b133      	cbz	r3, 80034ba <pbuf_copy_partial+0x2e>
 80034ac:	8971      	ldrh	r1, [r6, #10]
 80034ae:	428b      	cmp	r3, r1
 80034b0:	d303      	bcc.n	80034ba <pbuf_copy_partial+0x2e>
      offset -= p->len;
 80034b2:	1a5b      	subs	r3, r3, r1
 80034b4:	b29b      	uxth	r3, r3
  for(p = buf; len != 0 && p != NULL; p = p->next) {
 80034b6:	6836      	ldr	r6, [r6, #0]
 80034b8:	e7f0      	b.n	800349c <pbuf_copy_partial+0x10>
      buf_copy_len = p->len - offset;
 80034ba:	8974      	ldrh	r4, [r6, #10]
      MEMCPY(&((char*)dataptr)[left], &((char*)p->payload)[offset], buf_copy_len);
 80034bc:	6871      	ldr	r1, [r6, #4]
      buf_copy_len = p->len - offset;
 80034be:	1ae4      	subs	r4, r4, r3
 80034c0:	b2a4      	uxth	r4, r4
 80034c2:	4544      	cmp	r4, r8
 80034c4:	bf28      	it	cs
 80034c6:	4644      	movcs	r4, r8
      MEMCPY(&((char*)dataptr)[left], &((char*)p->payload)[offset], buf_copy_len);
 80034c8:	4622      	mov	r2, r4
 80034ca:	4419      	add	r1, r3
 80034cc:	1978      	adds	r0, r7, r5
      copied_total += buf_copy_len;
 80034ce:	4425      	add	r5, r4
      len -= buf_copy_len;
 80034d0:	eba8 0404 	sub.w	r4, r8, r4
      MEMCPY(&((char*)dataptr)[left], &((char*)p->payload)[offset], buf_copy_len);
 80034d4:	f003 ffaf 	bl	8007436 <memcpy>
      copied_total += buf_copy_len;
 80034d8:	b2ad      	uxth	r5, r5
      len -= buf_copy_len;
 80034da:	fa1f f884 	uxth.w	r8, r4
      offset = 0;
 80034de:	2300      	movs	r3, #0
 80034e0:	e7e9      	b.n	80034b6 <pbuf_copy_partial+0x2a>
  LWIP_ERROR("pbuf_copy_partial: invalid buf", (buf != NULL), return 0;);
 80034e2:	4605      	mov	r5, r0
 80034e4:	e7de      	b.n	80034a4 <pbuf_copy_partial+0x18>
 80034e6:	460d      	mov	r5, r1
 80034e8:	e7dc      	b.n	80034a4 <pbuf_copy_partial+0x18>
	...

080034ec <raw_input>:
 *           caller).
 *
 */
u8_t
raw_input(struct pbuf *p, struct netif *inp)
{
 80034ec:	e92d 4ff8 	stmdb	sp!, {r3, r4, r5, r6, r7, r8, r9, sl, fp, lr}
  u8_t eaten = 0;

  LWIP_UNUSED_ARG(inp);

  iphdr = (struct ip_hdr *)p->payload;
  proto = IPH_PROTO(iphdr);
 80034f0:	6843      	ldr	r3, [r0, #4]

  prev = NULL;
  pcb = raw_pcbs;
 80034f2:	4d1a      	ldr	r5, [pc, #104]	; (800355c <raw_input+0x70>)
  proto = IPH_PROTO(iphdr);
 80034f4:	f893 8009 	ldrb.w	r8, [r3, #9]
  pcb = raw_pcbs;
 80034f8:	682c      	ldr	r4, [r5, #0]
#endif /* IP_SOF_BROADCAST_RECV */
      {
        /* receive callback function available? */
        if (pcb->recv != NULL) {
          /* the receive callback function did not eat the packet? */
          if (pcb->recv(pcb->recv_arg, pcb, p, ip_current_src_addr()) != 0) {
 80034fa:	f8df 9064 	ldr.w	r9, [pc, #100]	; 8003560 <raw_input+0x74>
         ip_addr_cmp(&(pcb->local_ip), &current_iphdr_dest))) {
 80034fe:	f8df a064 	ldr.w	sl, [pc, #100]	; 8003564 <raw_input+0x78>
{
 8003502:	4607      	mov	r7, r0
  prev = NULL;
 8003504:	2600      	movs	r6, #0
  while ((eaten == 0) && (pcb != NULL)) {
 8003506:	b914      	cbnz	r4, 800350e <raw_input+0x22>
 8003508:	4620      	mov	r0, r4
    }
    prev = pcb;
    pcb = pcb->next;
  }
  return eaten;
}
 800350a:	e8bd 8ff8 	ldmia.w	sp!, {r3, r4, r5, r6, r7, r8, r9, sl, fp, pc}
    if ((pcb->protocol == proto) &&
 800350e:	7c23      	ldrb	r3, [r4, #16]
 8003510:	4543      	cmp	r3, r8
 8003512:	d11e      	bne.n	8003552 <raw_input+0x66>
        (ip_addr_isany(&pcb->local_ip) ||
 8003514:	6823      	ldr	r3, [r4, #0]
 8003516:	b11b      	cbz	r3, 8003520 <raw_input+0x34>
 8003518:	f8da 2000 	ldr.w	r2, [sl]
 800351c:	4293      	cmp	r3, r2
 800351e:	d118      	bne.n	8003552 <raw_input+0x66>
        if (pcb->recv != NULL) {
 8003520:	f8d4 b014 	ldr.w	fp, [r4, #20]
 8003524:	f1bb 0f00 	cmp.w	fp, #0
 8003528:	d013      	beq.n	8003552 <raw_input+0x66>
          if (pcb->recv(pcb->recv_arg, pcb, p, ip_current_src_addr()) != 0) {
 800352a:	464b      	mov	r3, r9
 800352c:	463a      	mov	r2, r7
 800352e:	4621      	mov	r1, r4
 8003530:	69a0      	ldr	r0, [r4, #24]
 8003532:	47d8      	blx	fp
 8003534:	b138      	cbz	r0, 8003546 <raw_input+0x5a>
            if (prev != NULL) {
 8003536:	b176      	cbz	r6, 8003556 <raw_input+0x6a>
              prev->next = pcb->next;
 8003538:	68e3      	ldr	r3, [r4, #12]
 800353a:	60f3      	str	r3, [r6, #12]
              pcb->next = raw_pcbs;
 800353c:	682b      	ldr	r3, [r5, #0]
 800353e:	60e3      	str	r3, [r4, #12]
              raw_pcbs = pcb;
 8003540:	602c      	str	r4, [r5, #0]
            eaten = 1;
 8003542:	2001      	movs	r0, #1
            p = NULL;
 8003544:	2700      	movs	r7, #0
    pcb = pcb->next;
 8003546:	68e3      	ldr	r3, [r4, #12]
 8003548:	4626      	mov	r6, r4
  while ((eaten == 0) && (pcb != NULL)) {
 800354a:	2800      	cmp	r0, #0
 800354c:	d1dd      	bne.n	800350a <raw_input+0x1e>
    pcb = pcb->next;
 800354e:	461c      	mov	r4, r3
 8003550:	e7d9      	b.n	8003506 <raw_input+0x1a>
 8003552:	2000      	movs	r0, #0
 8003554:	e7f7      	b.n	8003546 <raw_input+0x5a>
            eaten = 1;
 8003556:	2001      	movs	r0, #1
            p = NULL;
 8003558:	4637      	mov	r7, r6
 800355a:	e7f4      	b.n	8003546 <raw_input+0x5a>
 800355c:	20002510 	.word	0x20002510
 8003560:	2000262c 	.word	0x2000262c
 8003564:	20002634 	.word	0x20002634

08003568 <tcp_accept_null>:
  LWIP_UNUSED_ARG(arg);
  LWIP_UNUSED_ARG(pcb);
  LWIP_UNUSED_ARG(err);

  return ERR_ABRT;
}
 8003568:	f06f 0009 	mvn.w	r0, #9
 800356c:	4770      	bx	lr
	...

08003570 <tcp_new_port>:
 *
 * @return a new (free) local TCP port number
 */
static u16_t
tcp_new_port(void)
{
 8003570:	4a11      	ldr	r2, [pc, #68]	; (80035b8 <tcp_new_port+0x48>)
 8003572:	b5f0      	push	{r4, r5, r6, r7, lr}
 8003574:	8810      	ldrh	r0, [r2, #0]
  if (tcp_port++ == TCP_LOCAL_PORT_RANGE_END) {
    tcp_port = TCP_LOCAL_PORT_RANGE_START;
  }
  /* Check all PCB lists. */
  for (i = 0; i < NUM_TCP_PCB_LISTS; i++) {
    for(pcb = *tcp_pcb_lists[i]; pcb != NULL; pcb = pcb->next) {
 8003576:	4e11      	ldr	r6, [pc, #68]	; (80035bc <tcp_new_port+0x4c>)
{
 8003578:	f44f 4380 	mov.w	r3, #16384	; 0x4000
  if (tcp_port++ == TCP_LOCAL_PORT_RANGE_END) {
 800357c:	f64f 75ff 	movw	r5, #65535	; 0xffff
 8003580:	42a8      	cmp	r0, r5
 8003582:	bf1a      	itte	ne
 8003584:	3001      	addne	r0, #1
 8003586:	b280      	uxthne	r0, r0
    tcp_port = TCP_LOCAL_PORT_RANGE_START;
 8003588:	f44f 4040 	moveq.w	r0, #49152	; 0xc000
 800358c:	2100      	movs	r1, #0
    for(pcb = *tcp_pcb_lists[i]; pcb != NULL; pcb = pcb->next) {
 800358e:	f856 4021 	ldr.w	r4, [r6, r1, lsl #2]
 8003592:	6824      	ldr	r4, [r4, #0]
 8003594:	b924      	cbnz	r4, 80035a0 <tcp_new_port+0x30>
 8003596:	3101      	adds	r1, #1
  for (i = 0; i < NUM_TCP_PCB_LISTS; i++) {
 8003598:	2904      	cmp	r1, #4
 800359a:	d1f8      	bne.n	800358e <tcp_new_port+0x1e>
 800359c:	8010      	strh	r0, [r2, #0]
        goto again;
      }
    }
  }
  return tcp_port;
}
 800359e:	bdf0      	pop	{r4, r5, r6, r7, pc}
      if (pcb->local_port == tcp_port) {
 80035a0:	8b67      	ldrh	r7, [r4, #26]
 80035a2:	4287      	cmp	r7, r0
 80035a4:	d106      	bne.n	80035b4 <tcp_new_port+0x44>
 80035a6:	3b01      	subs	r3, #1
 80035a8:	b29b      	uxth	r3, r3
        if (++n > (TCP_LOCAL_PORT_RANGE_END - TCP_LOCAL_PORT_RANGE_START)) {
 80035aa:	2b00      	cmp	r3, #0
 80035ac:	d1e8      	bne.n	8003580 <tcp_new_port+0x10>
 80035ae:	8010      	strh	r0, [r2, #0]
          return 0;
 80035b0:	4618      	mov	r0, r3
 80035b2:	bdf0      	pop	{r4, r5, r6, r7, pc}
    for(pcb = *tcp_pcb_lists[i]; pcb != NULL; pcb = pcb->next) {
 80035b4:	68e4      	ldr	r4, [r4, #12]
 80035b6:	e7ed      	b.n	8003594 <tcp_new_port+0x24>
 80035b8:	20000010 	.word	0x20000010
 80035bc:	080074b4 	.word	0x080074b4

080035c0 <tcp_init>:
{
 80035c0:	4770      	bx	lr
	...

080035c4 <tcp_bind>:
{
 80035c4:	b5f8      	push	{r3, r4, r5, r6, r7, lr}
  LWIP_ERROR("tcp_bind: can only bind in state CLOSED", pcb->state == CLOSED, return ERR_VAL);
 80035c6:	7e03      	ldrb	r3, [r0, #24]
{
 80035c8:	4604      	mov	r4, r0
 80035ca:	460d      	mov	r5, r1
  LWIP_ERROR("tcp_bind: can only bind in state CLOSED", pcb->state == CLOSED, return ERR_VAL);
 80035cc:	bb33      	cbnz	r3, 800361c <tcp_bind+0x58>
  if (port == 0) {
 80035ce:	b91a      	cbnz	r2, 80035d8 <tcp_bind+0x14>
    port = tcp_new_port();
 80035d0:	f7ff ffce 	bl	8003570 <tcp_new_port>
    if (port == 0) {
 80035d4:	4602      	mov	r2, r0
 80035d6:	b320      	cbz	r0, 8003622 <tcp_bind+0x5e>
    for(cpcb = *tcp_pcb_lists[i]; cpcb != NULL; cpcb = cpcb->next) {
 80035d8:	4f15      	ldr	r7, [pc, #84]	; (8003630 <tcp_bind+0x6c>)
  for (i = 0; i < max_pcb_list; i++) {
 80035da:	2100      	movs	r1, #0
    for(cpcb = *tcp_pcb_lists[i]; cpcb != NULL; cpcb = cpcb->next) {
 80035dc:	f857 3021 	ldr.w	r3, [r7, r1, lsl #2]
 80035e0:	681b      	ldr	r3, [r3, #0]
 80035e2:	b97b      	cbnz	r3, 8003604 <tcp_bind+0x40>
  for (i = 0; i < max_pcb_list; i++) {
 80035e4:	3101      	adds	r1, #1
 80035e6:	2904      	cmp	r1, #4
 80035e8:	d1f8      	bne.n	80035dc <tcp_bind+0x18>
  if (!ip_addr_isany(ipaddr)) {
 80035ea:	b115      	cbz	r5, 80035f2 <tcp_bind+0x2e>
 80035ec:	682b      	ldr	r3, [r5, #0]
 80035ee:	b103      	cbz	r3, 80035f2 <tcp_bind+0x2e>
    pcb->local_ip = *ipaddr;
 80035f0:	6023      	str	r3, [r4, #0]
  TCP_REG(&tcp_bound_pcbs, pcb);
 80035f2:	4b10      	ldr	r3, [pc, #64]	; (8003634 <tcp_bind+0x70>)
  pcb->local_port = port;
 80035f4:	8362      	strh	r2, [r4, #26]
  TCP_REG(&tcp_bound_pcbs, pcb);
 80035f6:	681a      	ldr	r2, [r3, #0]
 80035f8:	60e2      	str	r2, [r4, #12]
 80035fa:	601c      	str	r4, [r3, #0]
 80035fc:	f002 f8de 	bl	80057bc <tcp_timer_needed>
  return ERR_OK;
 8003600:	2000      	movs	r0, #0
 8003602:	bdf8      	pop	{r3, r4, r5, r6, r7, pc}
      if (cpcb->local_port == port) {
 8003604:	8b58      	ldrh	r0, [r3, #26]
 8003606:	4290      	cmp	r0, r2
 8003608:	d106      	bne.n	8003618 <tcp_bind+0x54>
          if (ip_addr_isany(&(cpcb->local_ip)) ||
 800360a:	681e      	ldr	r6, [r3, #0]
 800360c:	b166      	cbz	r6, 8003628 <tcp_bind+0x64>
 800360e:	b15d      	cbz	r5, 8003628 <tcp_bind+0x64>
              ip_addr_isany(ipaddr) ||
 8003610:	6828      	ldr	r0, [r5, #0]
 8003612:	b148      	cbz	r0, 8003628 <tcp_bind+0x64>
 8003614:	4286      	cmp	r6, r0
 8003616:	d007      	beq.n	8003628 <tcp_bind+0x64>
    for(cpcb = *tcp_pcb_lists[i]; cpcb != NULL; cpcb = cpcb->next) {
 8003618:	68db      	ldr	r3, [r3, #12]
 800361a:	e7e2      	b.n	80035e2 <tcp_bind+0x1e>
  LWIP_ERROR("tcp_bind: can only bind in state CLOSED", pcb->state == CLOSED, return ERR_VAL);
 800361c:	f06f 0005 	mvn.w	r0, #5
 8003620:	bdf8      	pop	{r3, r4, r5, r6, r7, pc}
      return ERR_BUF;
 8003622:	f06f 0001 	mvn.w	r0, #1
 8003626:	bdf8      	pop	{r3, r4, r5, r6, r7, pc}
            return ERR_USE;
 8003628:	f06f 0007 	mvn.w	r0, #7
}
 800362c:	bdf8      	pop	{r3, r4, r5, r6, r7, pc}
 800362e:	bf00      	nop
 8003630:	080074b4 	.word	0x080074b4
 8003634:	20004e6c 	.word	0x20004e6c

08003638 <tcp_listen_with_backlog>:
{
 8003638:	b570      	push	{r4, r5, r6, lr}
  LWIP_ERROR("tcp_listen: pcb already connected", pcb->state == CLOSED, return NULL);
 800363a:	7e06      	ldrb	r6, [r0, #24]
{
 800363c:	4605      	mov	r5, r0
  LWIP_ERROR("tcp_listen: pcb already connected", pcb->state == CLOSED, return NULL);
 800363e:	b10e      	cbz	r6, 8003644 <tcp_listen_with_backlog+0xc>
 8003640:	2000      	movs	r0, #0
 8003642:	bd70      	pop	{r4, r5, r6, pc}
  lpcb = (struct tcp_pcb_listen *)memp_malloc(MEMP_TCP_PCB_LISTEN);
 8003644:	2003      	movs	r0, #3
 8003646:	f7ff fcb7 	bl	8002fb8 <memp_malloc>
  if (lpcb == NULL) {
 800364a:	4604      	mov	r4, r0
 800364c:	2800      	cmp	r0, #0
 800364e:	d0f7      	beq.n	8003640 <tcp_listen_with_backlog+0x8>
  lpcb->callback_arg = pcb->callback_arg;
 8003650:	692b      	ldr	r3, [r5, #16]
  lpcb->local_port = pcb->local_port;
 8003652:	8b6a      	ldrh	r2, [r5, #26]
  lpcb->callback_arg = pcb->callback_arg;
 8003654:	6103      	str	r3, [r0, #16]
  lpcb->state = LISTEN;
 8003656:	2301      	movs	r3, #1
  lpcb->local_port = pcb->local_port;
 8003658:	8342      	strh	r2, [r0, #26]
  lpcb->state = LISTEN;
 800365a:	7603      	strb	r3, [r0, #24]
  lpcb->prio = pcb->prio;
 800365c:	7e6b      	ldrb	r3, [r5, #25]
 800365e:	7643      	strb	r3, [r0, #25]
  ip_set_option(lpcb, SOF_ACCEPTCONN);
 8003660:	7a2b      	ldrb	r3, [r5, #8]
 8003662:	f043 0302 	orr.w	r3, r3, #2
 8003666:	7203      	strb	r3, [r0, #8]
  lpcb->ttl = pcb->ttl;
 8003668:	7aab      	ldrb	r3, [r5, #10]
 800366a:	7283      	strb	r3, [r0, #10]
  lpcb->tos = pcb->tos;
 800366c:	7a6b      	ldrb	r3, [r5, #9]
 800366e:	7243      	strb	r3, [r0, #9]
  ip_addr_copy(lpcb->local_ip, pcb->local_ip);
 8003670:	682b      	ldr	r3, [r5, #0]
 8003672:	6003      	str	r3, [r0, #0]
  if (pcb->local_port != 0) {
 8003674:	b13a      	cbz	r2, 8003686 <tcp_listen_with_backlog+0x4e>
    TCP_RMV(&tcp_bound_pcbs, pcb);
 8003676:	4a14      	ldr	r2, [pc, #80]	; (80036c8 <tcp_listen_with_backlog+0x90>)
 8003678:	6813      	ldr	r3, [r2, #0]
 800367a:	429d      	cmp	r5, r3
 800367c:	d111      	bne.n	80036a2 <tcp_listen_with_backlog+0x6a>
 800367e:	68eb      	ldr	r3, [r5, #12]
 8003680:	6013      	str	r3, [r2, #0]
 8003682:	2300      	movs	r3, #0
 8003684:	60eb      	str	r3, [r5, #12]
  memp_free(MEMP_TCP_PCB, pcb);
 8003686:	4629      	mov	r1, r5
 8003688:	2002      	movs	r0, #2
 800368a:	f7ff fca5 	bl	8002fd8 <memp_free>
  lpcb->accept = tcp_accept_null;
 800368e:	4b0f      	ldr	r3, [pc, #60]	; (80036cc <tcp_listen_with_backlog+0x94>)
 8003690:	6163      	str	r3, [r4, #20]
  TCP_REG(&tcp_listen_pcbs.pcbs, (struct tcp_pcb *)lpcb);
 8003692:	4b0f      	ldr	r3, [pc, #60]	; (80036d0 <tcp_listen_with_backlog+0x98>)
 8003694:	681a      	ldr	r2, [r3, #0]
 8003696:	60e2      	str	r2, [r4, #12]
 8003698:	601c      	str	r4, [r3, #0]
 800369a:	f002 f88f 	bl	80057bc <tcp_timer_needed>
  return (struct tcp_pcb *)lpcb;
 800369e:	4620      	mov	r0, r4
}
 80036a0:	bd70      	pop	{r4, r5, r6, pc}
    TCP_RMV(&tcp_bound_pcbs, pcb);
 80036a2:	490c      	ldr	r1, [pc, #48]	; (80036d4 <tcp_listen_with_backlog+0x9c>)
 80036a4:	600b      	str	r3, [r1, #0]
 80036a6:	b91b      	cbnz	r3, 80036b0 <tcp_listen_with_backlog+0x78>
 80036a8:	2e00      	cmp	r6, #0
 80036aa:	d0ea      	beq.n	8003682 <tcp_listen_with_backlog+0x4a>
 80036ac:	600b      	str	r3, [r1, #0]
 80036ae:	e7e8      	b.n	8003682 <tcp_listen_with_backlog+0x4a>
 80036b0:	68d8      	ldr	r0, [r3, #12]
 80036b2:	4285      	cmp	r5, r0
 80036b4:	d104      	bne.n	80036c0 <tcp_listen_with_backlog+0x88>
 80036b6:	b106      	cbz	r6, 80036ba <tcp_listen_with_backlog+0x82>
 80036b8:	600b      	str	r3, [r1, #0]
 80036ba:	68ea      	ldr	r2, [r5, #12]
 80036bc:	60da      	str	r2, [r3, #12]
 80036be:	e7e0      	b.n	8003682 <tcp_listen_with_backlog+0x4a>
 80036c0:	2601      	movs	r6, #1
 80036c2:	4603      	mov	r3, r0
 80036c4:	e7ef      	b.n	80036a6 <tcp_listen_with_backlog+0x6e>
 80036c6:	bf00      	nop
 80036c8:	20004e6c 	.word	0x20004e6c
 80036cc:	08003569 	.word	0x08003569
 80036d0:	20004e64 	.word	0x20004e64
 80036d4:	20004e68 	.word	0x20004e68

080036d8 <tcp_update_rcv_ann_wnd>:
{
 80036d8:	b570      	push	{r4, r5, r6, lr}
  if (TCP_SEQ_GEQ(new_right_edge, pcb->rcv_ann_right_edge + LWIP_MIN((TCP_WND / 2), pcb->mss))) {
 80036da:	6b01      	ldr	r1, [r0, #48]	; 0x30
  u32_t new_right_edge = pcb->rcv_nxt + pcb->rcv_wnd;
 80036dc:	8d85      	ldrh	r5, [r0, #44]	; 0x2c
 80036de:	6a84      	ldr	r4, [r0, #40]	; 0x28
{
 80036e0:	4602      	mov	r2, r0
 80036e2:	1a6b      	subs	r3, r5, r1
 80036e4:	1918      	adds	r0, r3, r4
  if (TCP_SEQ_GEQ(new_right_edge, pcb->rcv_ann_right_edge + LWIP_MIN((TCP_WND / 2), pcb->mss))) {
 80036e6:	8ed3      	ldrh	r3, [r2, #54]	; 0x36
 80036e8:	f240 56b4 	movw	r6, #1460	; 0x5b4
 80036ec:	42b3      	cmp	r3, r6
 80036ee:	bf94      	ite	ls
 80036f0:	1ac3      	subls	r3, r0, r3
 80036f2:	1b83      	subhi	r3, r0, r6
 80036f4:	2b00      	cmp	r3, #0
 80036f6:	db01      	blt.n	80036fc <tcp_update_rcv_ann_wnd+0x24>
    pcb->rcv_ann_wnd = pcb->rcv_wnd;
 80036f8:	85d5      	strh	r5, [r2, #46]	; 0x2e
    return new_right_edge - pcb->rcv_ann_right_edge;
 80036fa:	bd70      	pop	{r4, r5, r6, pc}
    if (TCP_SEQ_GT(pcb->rcv_nxt, pcb->rcv_ann_right_edge)) {
 80036fc:	1a63      	subs	r3, r4, r1
 80036fe:	2b00      	cmp	r3, #0
 8003700:	f04f 0000 	mov.w	r0, #0
      u32_t new_rcv_ann_wnd = pcb->rcv_ann_right_edge - pcb->rcv_nxt;
 8003704:	bfd6      	itet	le
 8003706:	1b09      	suble	r1, r1, r4
      pcb->rcv_ann_wnd = 0;
 8003708:	85d0      	strhgt	r0, [r2, #46]	; 0x2e
      pcb->rcv_ann_wnd = (u16_t)new_rcv_ann_wnd;
 800370a:	85d1      	strhle	r1, [r2, #46]	; 0x2e
}
 800370c:	bd70      	pop	{r4, r5, r6, pc}

0800370e <tcp_recved>:
  pcb->rcv_wnd += len;
 800370e:	8d83      	ldrh	r3, [r0, #44]	; 0x2c
 8003710:	4419      	add	r1, r3
 8003712:	b289      	uxth	r1, r1
  if (pcb->rcv_wnd > TCP_WND) {
 8003714:	f640 3368 	movw	r3, #2920	; 0xb68
 8003718:	4299      	cmp	r1, r3
{
 800371a:	b510      	push	{r4, lr}
    pcb->rcv_wnd = TCP_WND;
 800371c:	bf8c      	ite	hi
 800371e:	8583      	strhhi	r3, [r0, #44]	; 0x2c
  pcb->rcv_wnd += len;
 8003720:	8581      	strhls	r1, [r0, #44]	; 0x2c
{
 8003722:	4604      	mov	r4, r0
  wnd_inflation = tcp_update_rcv_ann_wnd(pcb);
 8003724:	f7ff ffd8 	bl	80036d8 <tcp_update_rcv_ann_wnd>
  if (wnd_inflation >= TCP_WND_UPDATE_THRESHOLD) {
 8003728:	f240 23d9 	movw	r3, #729	; 0x2d9
 800372c:	4298      	cmp	r0, r3
 800372e:	dd08      	ble.n	8003742 <tcp_recved+0x34>
    tcp_ack_now(pcb);
 8003730:	7fa3      	ldrb	r3, [r4, #30]
 8003732:	f043 0302 	orr.w	r3, r3, #2
 8003736:	77a3      	strb	r3, [r4, #30]
    tcp_output(pcb);
 8003738:	4620      	mov	r0, r4
}
 800373a:	e8bd 4010 	ldmia.w	sp!, {r4, lr}
    tcp_output(pcb);
 800373e:	f001 bda3 	b.w	8005288 <tcp_output>
 8003742:	bd10      	pop	{r4, pc}

08003744 <tcp_seg_free>:
 *
 * @param seg single tcp_seg to free
 */
void
tcp_seg_free(struct tcp_seg *seg)
{
 8003744:	b510      	push	{r4, lr}
  if (seg != NULL) {
 8003746:	4604      	mov	r4, r0
 8003748:	b148      	cbz	r0, 800375e <tcp_seg_free+0x1a>
    if (seg->p != NULL) {
 800374a:	6840      	ldr	r0, [r0, #4]
 800374c:	b108      	cbz	r0, 8003752 <tcp_seg_free+0xe>
      pbuf_free(seg->p);
 800374e:	f7ff fd5c 	bl	800320a <pbuf_free>
#if TCP_DEBUG
      seg->p = NULL;
#endif /* TCP_DEBUG */
    }
    memp_free(MEMP_TCP_SEG, seg);
 8003752:	4621      	mov	r1, r4
 8003754:	2004      	movs	r0, #4
  }
}
 8003756:	e8bd 4010 	ldmia.w	sp!, {r4, lr}
    memp_free(MEMP_TCP_SEG, seg);
 800375a:	f7ff bc3d 	b.w	8002fd8 <memp_free>
 800375e:	bd10      	pop	{r4, pc}

08003760 <tcp_segs_free>:
{
 8003760:	b510      	push	{r4, lr}
  while (seg != NULL) {
 8003762:	b900      	cbnz	r0, 8003766 <tcp_segs_free+0x6>
}
 8003764:	bd10      	pop	{r4, pc}
    struct tcp_seg *next = seg->next;
 8003766:	6804      	ldr	r4, [r0, #0]
    tcp_seg_free(seg);
 8003768:	f7ff ffec 	bl	8003744 <tcp_seg_free>
    seg = next;
 800376c:	4620      	mov	r0, r4
 800376e:	e7f8      	b.n	8003762 <tcp_segs_free+0x2>

08003770 <tcp_setprio>:
 * @param prio new priority
 */
void
tcp_setprio(struct tcp_pcb *pcb, u8_t prio)
{
  pcb->prio = prio;
 8003770:	7641      	strb	r1, [r0, #25]
 8003772:	4770      	bx	lr

08003774 <tcp_arg>:
void
tcp_arg(struct tcp_pcb *pcb, void *arg)
{
  /* This function is allowed to be called for both listen pcbs and
     connection pcbs. */
  pcb->callback_arg = arg;
 8003774:	6101      	str	r1, [r0, #16]
 8003776:	4770      	bx	lr

08003778 <tcp_recv>:
 */ 
void
tcp_recv(struct tcp_pcb *pcb, tcp_recv_fn recv)
{
  LWIP_ASSERT("invalid socket state for recv callback", pcb->state != LISTEN);
  pcb->recv = recv;
 8003778:	67c1      	str	r1, [r0, #124]	; 0x7c
 800377a:	4770      	bx	lr

0800377c <tcp_sent>:
 */ 
void
tcp_sent(struct tcp_pcb *pcb, tcp_sent_fn sent)
{
  LWIP_ASSERT("invalid socket state for sent callback", pcb->state != LISTEN);
  pcb->sent = sent;
 800377c:	6781      	str	r1, [r0, #120]	; 0x78
 800377e:	4770      	bx	lr

08003780 <tcp_err>:
 */ 
void
tcp_err(struct tcp_pcb *pcb, tcp_err_fn err)
{
  LWIP_ASSERT("invalid socket state for err callback", pcb->state != LISTEN);
  pcb->errf = err;
 8003780:	f8c0 1088 	str.w	r1, [r0, #136]	; 0x88
 8003784:	4770      	bx	lr

08003786 <tcp_accept>:
void
tcp_accept(struct tcp_pcb *pcb, tcp_accept_fn accept)
{
  /* This function is allowed to be called for both listen pcbs and
     connection pcbs. */
  pcb->accept = accept;
 8003786:	6141      	str	r1, [r0, #20]
 8003788:	4770      	bx	lr

0800378a <tcp_poll>:
void
tcp_poll(struct tcp_pcb *pcb, tcp_poll_fn poll, u8_t interval)
{
  LWIP_ASSERT("invalid socket state for poll", pcb->state != LISTEN);
#if LWIP_CALLBACK_API
  pcb->poll = poll;
 800378a:	f8c0 1084 	str.w	r1, [r0, #132]	; 0x84
#else /* LWIP_CALLBACK_API */  
  LWIP_UNUSED_ARG(poll);
#endif /* LWIP_CALLBACK_API */  
  pcb->pollinterval = interval;
 800378e:	f880 2020 	strb.w	r2, [r0, #32]
 8003792:	4770      	bx	lr

08003794 <tcp_pcb_purge>:
 * @param pcb tcp_pcb to purge. The pcb itself is not deallocated!
 */
void
tcp_pcb_purge(struct tcp_pcb *pcb)
{
  if (pcb->state != CLOSED &&
 8003794:	7e03      	ldrb	r3, [r0, #24]
 8003796:	2b01      	cmp	r3, #1
{
 8003798:	b510      	push	{r4, lr}
 800379a:	4604      	mov	r4, r0
  if (pcb->state != CLOSED &&
 800379c:	d915      	bls.n	80037ca <tcp_pcb_purge+0x36>
 800379e:	2b0a      	cmp	r3, #10
 80037a0:	d013      	beq.n	80037ca <tcp_pcb_purge+0x36>
      }
    }
#endif /* TCP_LISTEN_BACKLOG */


    if (pcb->refused_data != NULL) {
 80037a2:	6f40      	ldr	r0, [r0, #116]	; 0x74
 80037a4:	b118      	cbz	r0, 80037ae <tcp_pcb_purge+0x1a>
      LWIP_DEBUGF(TCP_DEBUG, ("tcp_pcb_purge: data left on ->refused_data\n"));
      pbuf_free(pcb->refused_data);
 80037a6:	f7ff fd30 	bl	800320a <pbuf_free>
      pcb->refused_data = NULL;
 80037aa:	2300      	movs	r3, #0
 80037ac:	6763      	str	r3, [r4, #116]	; 0x74
    pcb->ooseq = NULL;
#endif /* TCP_QUEUE_OOSEQ */

    /* Stop the retransmission timer as it will expect data on unacked
       queue if it fires */
    pcb->rtime = -1;
 80037ae:	f64f 73ff 	movw	r3, #65535	; 0xffff
 80037b2:	86a3      	strh	r3, [r4, #52]	; 0x34

    tcp_segs_free(pcb->unsent);
 80037b4:	6ee0      	ldr	r0, [r4, #108]	; 0x6c
 80037b6:	f7ff ffd3 	bl	8003760 <tcp_segs_free>
    tcp_segs_free(pcb->unacked);
 80037ba:	6f20      	ldr	r0, [r4, #112]	; 0x70
 80037bc:	f7ff ffd0 	bl	8003760 <tcp_segs_free>
    pcb->unacked = pcb->unsent = NULL;
 80037c0:	2300      	movs	r3, #0
 80037c2:	66e3      	str	r3, [r4, #108]	; 0x6c
 80037c4:	6723      	str	r3, [r4, #112]	; 0x70
#if TCP_OVERSIZE
    pcb->unsent_oversize = 0;
 80037c6:	f8a4 306a 	strh.w	r3, [r4, #106]	; 0x6a
 80037ca:	bd10      	pop	{r4, pc}

080037cc <tcp_slowtmr>:
{
 80037cc:	e92d 4ff0 	stmdb	sp!, {r4, r5, r6, r7, r8, r9, sl, fp, lr}
  ++tcp_ticks;
 80037d0:	4da3      	ldr	r5, [pc, #652]	; (8003a60 <tcp_slowtmr+0x294>)
  ++tcp_timer_ctr;
 80037d2:	4fa4      	ldr	r7, [pc, #656]	; (8003a64 <tcp_slowtmr+0x298>)
  ++tcp_ticks;
 80037d4:	682b      	ldr	r3, [r5, #0]
      tcp_active_pcbs_changed = 0;
 80037d6:	f8df 92a0 	ldr.w	r9, [pc, #672]	; 8003a78 <tcp_slowtmr+0x2ac>
  ++tcp_ticks;
 80037da:	3301      	adds	r3, #1
 80037dc:	602b      	str	r3, [r5, #0]
  ++tcp_timer_ctr;
 80037de:	783b      	ldrb	r3, [r7, #0]
{
 80037e0:	b085      	sub	sp, #20
  ++tcp_timer_ctr;
 80037e2:	3301      	adds	r3, #1
 80037e4:	703b      	strb	r3, [r7, #0]
 80037e6:	9702      	str	r7, [sp, #8]
  pcb = tcp_active_pcbs;
 80037e8:	4b9f      	ldr	r3, [pc, #636]	; (8003a68 <tcp_slowtmr+0x29c>)
              (pcb->keep_idle + pcb->keep_cnt_sent * TCP_KEEP_INTVL(pcb))
 80037ea:	f8df b290 	ldr.w	fp, [pc, #656]	; 8003a7c <tcp_slowtmr+0x2b0>
  pcb = tcp_active_pcbs;
 80037ee:	681c      	ldr	r4, [r3, #0]
  prev = NULL;
 80037f0:	2600      	movs	r6, #0
 80037f2:	4698      	mov	r8, r3
  while (pcb != NULL) {
 80037f4:	b93c      	cbnz	r4, 8003806 <tcp_slowtmr+0x3a>
  pcb = tcp_tw_pcbs;
 80037f6:	4f9d      	ldr	r7, [pc, #628]	; (8003a6c <tcp_slowtmr+0x2a0>)
 80037f8:	683e      	ldr	r6, [r7, #0]
  while (pcb != NULL) {
 80037fa:	2e00      	cmp	r6, #0
 80037fc:	f040 8117 	bne.w	8003a2e <tcp_slowtmr+0x262>
}
 8003800:	b005      	add	sp, #20
 8003802:	e8bd 8ff0 	ldmia.w	sp!, {r4, r5, r6, r7, r8, r9, sl, fp, pc}
    if (pcb->last_timer == tcp_timer_ctr) {
 8003806:	9b02      	ldr	r3, [sp, #8]
 8003808:	f894 2021 	ldrb.w	r2, [r4, #33]	; 0x21
 800380c:	781b      	ldrb	r3, [r3, #0]
 800380e:	429a      	cmp	r2, r3
 8003810:	d105      	bne.n	800381e <tcp_slowtmr+0x52>
      pcb = pcb->next;
 8003812:	f8d4 a00c 	ldr.w	sl, [r4, #12]
 8003816:	4634      	mov	r4, r6
      continue;
 8003818:	4626      	mov	r6, r4
 800381a:	4654      	mov	r4, sl
 800381c:	e7ea      	b.n	80037f4 <tcp_slowtmr+0x28>
    LWIP_ASSERT("tcp_slowtmr: active pcb->state != CLOSED\n", pcb->state != CLOSED);
 800381e:	7e20      	ldrb	r0, [r4, #24]
    pcb->last_timer = tcp_timer_ctr;
 8003820:	f884 3021 	strb.w	r3, [r4, #33]	; 0x21
    if (pcb->state == SYN_SENT && pcb->nrtx == TCP_SYNMAXRTX) {
 8003824:	2802      	cmp	r0, #2
 8003826:	f894 1046 	ldrb.w	r1, [r4, #70]	; 0x46
 800382a:	d102      	bne.n	8003832 <tcp_slowtmr+0x66>
 800382c:	2906      	cmp	r1, #6
 800382e:	f000 80bc 	beq.w	80039aa <tcp_slowtmr+0x1de>
    else if (pcb->nrtx == TCP_MAXRTX) {
 8003832:	290c      	cmp	r1, #12
 8003834:	f000 80b9 	beq.w	80039aa <tcp_slowtmr+0x1de>
      if (pcb->persist_backoff > 0) {
 8003838:	f894 7091 	ldrb.w	r7, [r4, #145]	; 0x91
 800383c:	2f00      	cmp	r7, #0
 800383e:	d07f      	beq.n	8003940 <tcp_slowtmr+0x174>
        if (pcb->persist_cnt >= tcp_persist_backoff[pcb->persist_backoff-1]) {
 8003840:	498b      	ldr	r1, [pc, #556]	; (8003a70 <tcp_slowtmr+0x2a4>)
        pcb->persist_cnt++;
 8003842:	f894 2090 	ldrb.w	r2, [r4, #144]	; 0x90
        if (pcb->persist_cnt >= tcp_persist_backoff[pcb->persist_backoff-1]) {
 8003846:	4439      	add	r1, r7
        pcb->persist_cnt++;
 8003848:	3201      	adds	r2, #1
        if (pcb->persist_cnt >= tcp_persist_backoff[pcb->persist_backoff-1]) {
 800384a:	f811 1c01 	ldrb.w	r1, [r1, #-1]
        pcb->persist_cnt++;
 800384e:	b2d2      	uxtb	r2, r2
        if (pcb->persist_cnt >= tcp_persist_backoff[pcb->persist_backoff-1]) {
 8003850:	4291      	cmp	r1, r2
        pcb->persist_cnt++;
 8003852:	f884 2090 	strb.w	r2, [r4, #144]	; 0x90
        if (pcb->persist_cnt >= tcp_persist_backoff[pcb->persist_backoff-1]) {
 8003856:	d965      	bls.n	8003924 <tcp_slowtmr+0x158>
    pcb_remove = 0;
 8003858:	2700      	movs	r7, #0
    if (pcb->state == FIN_WAIT_2) {
 800385a:	7e22      	ldrb	r2, [r4, #24]
 800385c:	2a06      	cmp	r2, #6
 800385e:	d109      	bne.n	8003874 <tcp_slowtmr+0xa8>
      if (pcb->flags & TF_RXCLOSED) {
 8003860:	7fa1      	ldrb	r1, [r4, #30]
 8003862:	06cb      	lsls	r3, r1, #27
 8003864:	d506      	bpl.n	8003874 <tcp_slowtmr+0xa8>
        if ((u32_t)(tcp_ticks - pcb->tmr) >
 8003866:	6829      	ldr	r1, [r5, #0]
 8003868:	6a60      	ldr	r0, [r4, #36]	; 0x24
 800386a:	1a09      	subs	r1, r1, r0
 800386c:	2928      	cmp	r1, #40	; 0x28
          ++pcb_remove;
 800386e:	bf84      	itt	hi
 8003870:	1c7b      	addhi	r3, r7, #1
 8003872:	b2df      	uxtbhi	r7, r3
    if(ip_get_option(pcb, SOF_KEEPALIVE) &&
 8003874:	f894 a008 	ldrb.w	sl, [r4, #8]
 8003878:	f01a 0a08 	ands.w	sl, sl, #8
 800387c:	d018      	beq.n	80038b0 <tcp_slowtmr+0xe4>
 800387e:	2a04      	cmp	r2, #4
 8003880:	d002      	beq.n	8003888 <tcp_slowtmr+0xbc>
       ((pcb->state == ESTABLISHED) ||
 8003882:	2a07      	cmp	r2, #7
 8003884:	f040 80a3 	bne.w	80039ce <tcp_slowtmr+0x202>
      if((u32_t)(tcp_ticks - pcb->tmr) >
 8003888:	6828      	ldr	r0, [r5, #0]
 800388a:	6a62      	ldr	r2, [r4, #36]	; 0x24
         (pcb->keep_idle + TCP_KEEP_DUR(pcb)) / TCP_SLOW_INTERVAL)
 800388c:	f8d4 308c 	ldr.w	r3, [r4, #140]	; 0x8c
      if((u32_t)(tcp_ticks - pcb->tmr) >
 8003890:	1a80      	subs	r0, r0, r2
         (pcb->keep_idle + TCP_KEEP_DUR(pcb)) / TCP_SLOW_INTERVAL)
 8003892:	f503 2124 	add.w	r1, r3, #671744	; 0xa4000
 8003896:	f601 41b8 	addw	r1, r1, #3256	; 0xcb8
 800389a:	f44f 7efa 	mov.w	lr, #500	; 0x1f4
 800389e:	fbb1 f1fe 	udiv	r1, r1, lr
      if((u32_t)(tcp_ticks - pcb->tmr) >
 80038a2:	4288      	cmp	r0, r1
 80038a4:	f240 8083 	bls.w	80039ae <tcp_slowtmr+0x1e2>
        ++pcb_remove;
 80038a8:	1c7b      	adds	r3, r7, #1
 80038aa:	b2df      	uxtb	r7, r3
        ++pcb_reset;
 80038ac:	f04f 0a01 	mov.w	sl, #1
    if (pcb->state == SYN_RCVD) {
 80038b0:	7e22      	ldrb	r2, [r4, #24]
 80038b2:	2a03      	cmp	r2, #3
 80038b4:	f040 808e 	bne.w	80039d4 <tcp_slowtmr+0x208>
      if ((u32_t)(tcp_ticks - pcb->tmr) >
 80038b8:	682a      	ldr	r2, [r5, #0]
 80038ba:	6a61      	ldr	r1, [r4, #36]	; 0x24
 80038bc:	1a52      	subs	r2, r2, r1
 80038be:	2a28      	cmp	r2, #40	; 0x28
      if ((u32_t)(tcp_ticks - pcb->tmr) > 2 * TCP_MSL / TCP_SLOW_INTERVAL) {
 80038c0:	d802      	bhi.n	80038c8 <tcp_slowtmr+0xfc>
    if (pcb_remove) {
 80038c2:	2f00      	cmp	r7, #0
 80038c4:	f000 8091 	beq.w	80039ea <tcp_slowtmr+0x21e>
      tcp_pcb_purge(pcb);
 80038c8:	4620      	mov	r0, r4
 80038ca:	f7ff ff63 	bl	8003794 <tcp_pcb_purge>
 80038ce:	68e3      	ldr	r3, [r4, #12]
      if (prev != NULL) {
 80038d0:	2e00      	cmp	r6, #0
 80038d2:	f000 8087 	beq.w	80039e4 <tcp_slowtmr+0x218>
        prev->next = pcb->next;
 80038d6:	60f3      	str	r3, [r6, #12]
      if (pcb_reset) {
 80038d8:	f1ba 0f00 	cmp.w	sl, #0
 80038dc:	d009      	beq.n	80038f2 <tcp_slowtmr+0x126>
        tcp_rst(pcb->snd_nxt, pcb->rcv_nxt, &pcb->local_ip, &pcb->remote_ip,
 80038de:	8ba3      	ldrh	r3, [r4, #28]
 80038e0:	9301      	str	r3, [sp, #4]
 80038e2:	8b63      	ldrh	r3, [r4, #26]
 80038e4:	9300      	str	r3, [sp, #0]
 80038e6:	4622      	mov	r2, r4
 80038e8:	1d23      	adds	r3, r4, #4
 80038ea:	6aa1      	ldr	r1, [r4, #40]	; 0x28
 80038ec:	6d20      	ldr	r0, [r4, #80]	; 0x50
 80038ee:	f001 fe07 	bl	8005500 <tcp_rst>
      err_arg = pcb->callback_arg;
 80038f2:	6922      	ldr	r2, [r4, #16]
      err_fn = pcb->errf;
 80038f4:	f8d4 7088 	ldr.w	r7, [r4, #136]	; 0x88
      err_arg = pcb->callback_arg;
 80038f8:	9203      	str	r2, [sp, #12]
      memp_free(MEMP_TCP_PCB, pcb2);
 80038fa:	4621      	mov	r1, r4
 80038fc:	2002      	movs	r0, #2
      pcb = pcb->next;
 80038fe:	f8d4 a00c 	ldr.w	sl, [r4, #12]
      memp_free(MEMP_TCP_PCB, pcb2);
 8003902:	f7ff fb69 	bl	8002fd8 <memp_free>
      tcp_active_pcbs_changed = 0;
 8003906:	2100      	movs	r1, #0
 8003908:	f889 1000 	strb.w	r1, [r9]
      TCP_EVENT_ERR(err_fn, err_arg, ERR_ABRT);
 800390c:	b127      	cbz	r7, 8003918 <tcp_slowtmr+0x14c>
 800390e:	9a03      	ldr	r2, [sp, #12]
 8003910:	f06f 0109 	mvn.w	r1, #9
 8003914:	4610      	mov	r0, r2
 8003916:	47b8      	blx	r7
      if (tcp_active_pcbs_changed) {
 8003918:	f899 3000 	ldrb.w	r3, [r9]
 800391c:	2b00      	cmp	r3, #0
 800391e:	f43f af7a 	beq.w	8003816 <tcp_slowtmr+0x4a>
 8003922:	e761      	b.n	80037e8 <tcp_slowtmr+0x1c>
          if (pcb->persist_backoff < sizeof(tcp_persist_backoff)) {
 8003924:	2f06      	cmp	r7, #6
          pcb->persist_cnt = 0;
 8003926:	f04f 0200 	mov.w	r2, #0
            pcb->persist_backoff++;
 800392a:	bf98      	it	ls
 800392c:	1c7b      	addls	r3, r7, #1
          pcb->persist_cnt = 0;
 800392e:	f884 2090 	strb.w	r2, [r4, #144]	; 0x90
            pcb->persist_backoff++;
 8003932:	bf98      	it	ls
 8003934:	f884 3091 	strbls.w	r3, [r4, #145]	; 0x91
          tcp_zero_window_probe(pcb);
 8003938:	4620      	mov	r0, r4
 800393a:	f001 febd 	bl	80056b8 <tcp_zero_window_probe>
 800393e:	e78b      	b.n	8003858 <tcp_slowtmr+0x8c>
        if(pcb->rtime >= 0) {
 8003940:	f9b4 2034 	ldrsh.w	r2, [r4, #52]	; 0x34
 8003944:	2a00      	cmp	r2, #0
          ++pcb->rtime;
 8003946:	bfa4      	itt	ge
 8003948:	3201      	addge	r2, #1
 800394a:	86a2      	strhge	r2, [r4, #52]	; 0x34
        if (pcb->unacked != NULL && pcb->rtime >= pcb->rto) {
 800394c:	6f22      	ldr	r2, [r4, #112]	; 0x70
 800394e:	2a00      	cmp	r2, #0
 8003950:	d082      	beq.n	8003858 <tcp_slowtmr+0x8c>
 8003952:	f9b4 e034 	ldrsh.w	lr, [r4, #52]	; 0x34
 8003956:	f9b4 2044 	ldrsh.w	r2, [r4, #68]	; 0x44
 800395a:	4596      	cmp	lr, r2
 800395c:	f6ff af7c 	blt.w	8003858 <tcp_slowtmr+0x8c>
          if (pcb->state != SYN_SENT) {
 8003960:	2802      	cmp	r0, #2
 8003962:	d00a      	beq.n	800397a <tcp_slowtmr+0x1ae>
            pcb->rto = ((pcb->sa >> 3) + pcb->sv) << tcp_backoff[pcb->nrtx];
 8003964:	f9b4 0040 	ldrsh.w	r0, [r4, #64]	; 0x40
 8003968:	f9b4 2042 	ldrsh.w	r2, [r4, #66]	; 0x42
 800396c:	eb02 02e0 	add.w	r2, r2, r0, asr #3
 8003970:	4840      	ldr	r0, [pc, #256]	; (8003a74 <tcp_slowtmr+0x2a8>)
 8003972:	5c41      	ldrb	r1, [r0, r1]
 8003974:	408a      	lsls	r2, r1
 8003976:	f8a4 2044 	strh.w	r2, [r4, #68]	; 0x44
          pcb->rtime = 0;
 800397a:	2200      	movs	r2, #0
          eff_wnd = LWIP_MIN(pcb->cwnd, pcb->snd_wnd);
 800397c:	f8b4 104c 	ldrh.w	r1, [r4, #76]	; 0x4c
          pcb->rtime = 0;
 8003980:	86a2      	strh	r2, [r4, #52]	; 0x34
          eff_wnd = LWIP_MIN(pcb->cwnd, pcb->snd_wnd);
 8003982:	f8b4 2060 	ldrh.w	r2, [r4, #96]	; 0x60
          pcb->ssthresh = eff_wnd >> 1;
 8003986:	428a      	cmp	r2, r1
 8003988:	bf28      	it	cs
 800398a:	460a      	movcs	r2, r1
          if (pcb->ssthresh < (pcb->mss << 1)) {
 800398c:	8ee1      	ldrh	r1, [r4, #54]	; 0x36
          pcb->cwnd = pcb->mss;
 800398e:	f8a4 104c 	strh.w	r1, [r4, #76]	; 0x4c
          if (pcb->ssthresh < (pcb->mss << 1)) {
 8003992:	0048      	lsls	r0, r1, #1
          pcb->ssthresh = eff_wnd >> 1;
 8003994:	0852      	lsrs	r2, r2, #1
          if (pcb->ssthresh < (pcb->mss << 1)) {
 8003996:	4282      	cmp	r2, r0
          pcb->ssthresh = eff_wnd >> 1;
 8003998:	f8a4 204e 	strh.w	r2, [r4, #78]	; 0x4e
            pcb->ssthresh = (pcb->mss << 1);
 800399c:	bfb8      	it	lt
 800399e:	f8a4 004e 	strhlt.w	r0, [r4, #78]	; 0x4e
          tcp_rexmit_rto(pcb);
 80039a2:	4620      	mov	r0, r4
 80039a4:	f001 fdf7 	bl	8005596 <tcp_rexmit_rto>
 80039a8:	e757      	b.n	800385a <tcp_slowtmr+0x8e>
      ++pcb_remove;
 80039aa:	2701      	movs	r7, #1
 80039ac:	e755      	b.n	800385a <tcp_slowtmr+0x8e>
              (pcb->keep_idle + pcb->keep_cnt_sent * TCP_KEEP_INTVL(pcb))
 80039ae:	f894 2092 	ldrb.w	r2, [r4, #146]	; 0x92
 80039b2:	fb0b 3202 	mla	r2, fp, r2, r3
              / TCP_SLOW_INTERVAL)
 80039b6:	fbb2 f2fe 	udiv	r2, r2, lr
      else if((u32_t)(tcp_ticks - pcb->tmr) > 
 80039ba:	4290      	cmp	r0, r2
 80039bc:	d907      	bls.n	80039ce <tcp_slowtmr+0x202>
        tcp_keepalive(pcb);
 80039be:	4620      	mov	r0, r4
 80039c0:	f001 fe51 	bl	8005666 <tcp_keepalive>
        pcb->keep_cnt_sent++;
 80039c4:	f894 2092 	ldrb.w	r2, [r4, #146]	; 0x92
 80039c8:	3201      	adds	r2, #1
 80039ca:	f884 2092 	strb.w	r2, [r4, #146]	; 0x92
    pcb_reset = 0;
 80039ce:	f04f 0a00 	mov.w	sl, #0
 80039d2:	e76d      	b.n	80038b0 <tcp_slowtmr+0xe4>
    if (pcb->state == LAST_ACK) {
 80039d4:	2a09      	cmp	r2, #9
 80039d6:	f47f af74 	bne.w	80038c2 <tcp_slowtmr+0xf6>
      if ((u32_t)(tcp_ticks - pcb->tmr) > 2 * TCP_MSL / TCP_SLOW_INTERVAL) {
 80039da:	682a      	ldr	r2, [r5, #0]
 80039dc:	6a61      	ldr	r1, [r4, #36]	; 0x24
 80039de:	1a52      	subs	r2, r2, r1
 80039e0:	2af0      	cmp	r2, #240	; 0xf0
 80039e2:	e76d      	b.n	80038c0 <tcp_slowtmr+0xf4>
        tcp_active_pcbs = pcb->next;
 80039e4:	f8c8 3000 	str.w	r3, [r8]
 80039e8:	e776      	b.n	80038d8 <tcp_slowtmr+0x10c>
      ++prev->polltmr;
 80039ea:	7fe2      	ldrb	r2, [r4, #31]
      if (prev->polltmr >= prev->pollinterval) {
 80039ec:	f894 1020 	ldrb.w	r1, [r4, #32]
      pcb = pcb->next;
 80039f0:	f8d4 a00c 	ldr.w	sl, [r4, #12]
      ++prev->polltmr;
 80039f4:	3201      	adds	r2, #1
 80039f6:	b2d2      	uxtb	r2, r2
      if (prev->polltmr >= prev->pollinterval) {
 80039f8:	4291      	cmp	r1, r2
      ++prev->polltmr;
 80039fa:	77e2      	strb	r2, [r4, #31]
      if (prev->polltmr >= prev->pollinterval) {
 80039fc:	f63f af0c 	bhi.w	8003818 <tcp_slowtmr+0x4c>
        TCP_EVENT_POLL(prev, err);
 8003a00:	f8d4 2084 	ldr.w	r2, [r4, #132]	; 0x84
        prev->polltmr = 0;
 8003a04:	77e7      	strb	r7, [r4, #31]
        tcp_active_pcbs_changed = 0;
 8003a06:	f889 7000 	strb.w	r7, [r9]
        TCP_EVENT_POLL(prev, err);
 8003a0a:	b172      	cbz	r2, 8003a2a <tcp_slowtmr+0x25e>
 8003a0c:	4621      	mov	r1, r4
 8003a0e:	6920      	ldr	r0, [r4, #16]
 8003a10:	4790      	blx	r2
        if (tcp_active_pcbs_changed) {
 8003a12:	f899 3000 	ldrb.w	r3, [r9]
 8003a16:	2b00      	cmp	r3, #0
 8003a18:	f47f aee6 	bne.w	80037e8 <tcp_slowtmr+0x1c>
        if (err == ERR_OK) {
 8003a1c:	2800      	cmp	r0, #0
 8003a1e:	f47f aefb 	bne.w	8003818 <tcp_slowtmr+0x4c>
          tcp_output(prev);
 8003a22:	4620      	mov	r0, r4
 8003a24:	f001 fc30 	bl	8005288 <tcp_output>
 8003a28:	e6f6      	b.n	8003818 <tcp_slowtmr+0x4c>
        TCP_EVENT_POLL(prev, err);
 8003a2a:	4638      	mov	r0, r7
 8003a2c:	e7f1      	b.n	8003a12 <tcp_slowtmr+0x246>
    if ((u32_t)(tcp_ticks - pcb->tmr) > 2 * TCP_MSL / TCP_SLOW_INTERVAL) {
 8003a2e:	682b      	ldr	r3, [r5, #0]
 8003a30:	6a72      	ldr	r2, [r6, #36]	; 0x24
 8003a32:	1a9b      	subs	r3, r3, r2
 8003a34:	2bf0      	cmp	r3, #240	; 0xf0
 8003a36:	d80b      	bhi.n	8003a50 <tcp_slowtmr+0x284>
      pcb = pcb->next;
 8003a38:	4634      	mov	r4, r6
 8003a3a:	68f6      	ldr	r6, [r6, #12]
 8003a3c:	e6dd      	b.n	80037fa <tcp_slowtmr+0x2e>
        prev->next = pcb->next;
 8003a3e:	60e3      	str	r3, [r4, #12]
      pcb = pcb->next;
 8003a40:	f8d6 800c 	ldr.w	r8, [r6, #12]
      memp_free(MEMP_TCP_PCB, pcb2);
 8003a44:	4631      	mov	r1, r6
 8003a46:	2002      	movs	r0, #2
 8003a48:	f7ff fac6 	bl	8002fd8 <memp_free>
      pcb = pcb->next;
 8003a4c:	4646      	mov	r6, r8
 8003a4e:	e6d4      	b.n	80037fa <tcp_slowtmr+0x2e>
      tcp_pcb_purge(pcb);
 8003a50:	4630      	mov	r0, r6
 8003a52:	f7ff fe9f 	bl	8003794 <tcp_pcb_purge>
 8003a56:	68f3      	ldr	r3, [r6, #12]
      if (prev != NULL) {
 8003a58:	2c00      	cmp	r4, #0
 8003a5a:	d1f0      	bne.n	8003a3e <tcp_slowtmr+0x272>
        tcp_tw_pcbs = pcb->next;
 8003a5c:	603b      	str	r3, [r7, #0]
 8003a5e:	e7ef      	b.n	8003a40 <tcp_slowtmr+0x274>
 8003a60:	20004e60 	.word	0x20004e60
 8003a64:	20002515 	.word	0x20002515
 8003a68:	20004e5c 	.word	0x20004e5c
 8003a6c:	20004e70 	.word	0x20004e70
 8003a70:	080074c4 	.word	0x080074c4
 8003a74:	080074a4 	.word	0x080074a4
 8003a78:	20004e58 	.word	0x20004e58
 8003a7c:	000124f8 	.word	0x000124f8

08003a80 <tcp_pcb_remove>:
 * @param pcb tcp_pcb to purge. The pcb itself is NOT deallocated!
 */
void
tcp_pcb_remove(struct tcp_pcb **pcblist, struct tcp_pcb *pcb)
{
  TCP_RMV(pcblist, pcb);
 8003a80:	6803      	ldr	r3, [r0, #0]
 8003a82:	428b      	cmp	r3, r1
{
 8003a84:	b510      	push	{r4, lr}
 8003a86:	460c      	mov	r4, r1
  TCP_RMV(pcblist, pcb);
 8003a88:	d117      	bne.n	8003aba <tcp_pcb_remove+0x3a>
 8003a8a:	68cb      	ldr	r3, [r1, #12]
 8003a8c:	6003      	str	r3, [r0, #0]
 8003a8e:	2300      	movs	r3, #0
 8003a90:	60e3      	str	r3, [r4, #12]

  tcp_pcb_purge(pcb);
 8003a92:	4620      	mov	r0, r4
 8003a94:	f7ff fe7e 	bl	8003794 <tcp_pcb_purge>
  
  /* if there is an outstanding delayed ACKs, send it */
  if (pcb->state != TIME_WAIT &&
 8003a98:	7e23      	ldrb	r3, [r4, #24]
 8003a9a:	2b0a      	cmp	r3, #10
 8003a9c:	d00a      	beq.n	8003ab4 <tcp_pcb_remove+0x34>
 8003a9e:	2b01      	cmp	r3, #1
 8003aa0:	d008      	beq.n	8003ab4 <tcp_pcb_remove+0x34>
     pcb->state != LISTEN &&
     pcb->flags & TF_ACK_DELAY) {
 8003aa2:	7fa3      	ldrb	r3, [r4, #30]
     pcb->state != LISTEN &&
 8003aa4:	07da      	lsls	r2, r3, #31
 8003aa6:	d505      	bpl.n	8003ab4 <tcp_pcb_remove+0x34>
    pcb->flags |= TF_ACK_NOW;
 8003aa8:	f043 0302 	orr.w	r3, r3, #2
 8003aac:	77a3      	strb	r3, [r4, #30]
    tcp_output(pcb);
 8003aae:	4620      	mov	r0, r4
 8003ab0:	f001 fbea 	bl	8005288 <tcp_output>
#if TCP_QUEUE_OOSEQ
    LWIP_ASSERT("ooseq segments leaking", pcb->ooseq == NULL);
#endif /* TCP_QUEUE_OOSEQ */
  }

  pcb->state = CLOSED;
 8003ab4:	2300      	movs	r3, #0
 8003ab6:	7623      	strb	r3, [r4, #24]
 8003ab8:	bd10      	pop	{r4, pc}
  TCP_RMV(pcblist, pcb);
 8003aba:	4a09      	ldr	r2, [pc, #36]	; (8003ae0 <tcp_pcb_remove+0x60>)
 8003abc:	2100      	movs	r1, #0
 8003abe:	6013      	str	r3, [r2, #0]
 8003ac0:	b91b      	cbnz	r3, 8003aca <tcp_pcb_remove+0x4a>
 8003ac2:	2900      	cmp	r1, #0
 8003ac4:	d0e3      	beq.n	8003a8e <tcp_pcb_remove+0xe>
 8003ac6:	6013      	str	r3, [r2, #0]
 8003ac8:	e7e1      	b.n	8003a8e <tcp_pcb_remove+0xe>
 8003aca:	68d8      	ldr	r0, [r3, #12]
 8003acc:	4284      	cmp	r4, r0
 8003ace:	d104      	bne.n	8003ada <tcp_pcb_remove+0x5a>
 8003ad0:	b101      	cbz	r1, 8003ad4 <tcp_pcb_remove+0x54>
 8003ad2:	6013      	str	r3, [r2, #0]
 8003ad4:	68e2      	ldr	r2, [r4, #12]
 8003ad6:	60da      	str	r2, [r3, #12]
 8003ad8:	e7d9      	b.n	8003a8e <tcp_pcb_remove+0xe>
 8003ada:	2101      	movs	r1, #1
 8003adc:	4603      	mov	r3, r0
 8003ade:	e7ef      	b.n	8003ac0 <tcp_pcb_remove+0x40>
 8003ae0:	20004e68 	.word	0x20004e68

08003ae4 <tcp_close_shutdown>:
{
 8003ae4:	b537      	push	{r0, r1, r2, r4, r5, lr}
 8003ae6:	7e03      	ldrb	r3, [r0, #24]
 8003ae8:	4604      	mov	r4, r0
  if (rst_on_unacked_data && ((pcb->state == ESTABLISHED) || (pcb->state == CLOSE_WAIT))) {
 8003aea:	2900      	cmp	r1, #0
 8003aec:	d041      	beq.n	8003b72 <tcp_close_shutdown+0x8e>
 8003aee:	2b04      	cmp	r3, #4
 8003af0:	d001      	beq.n	8003af6 <tcp_close_shutdown+0x12>
 8003af2:	2b07      	cmp	r3, #7
 8003af4:	d13d      	bne.n	8003b72 <tcp_close_shutdown+0x8e>
    if ((pcb->refused_data != NULL) || (pcb->rcv_wnd != TCP_WND)) {
 8003af6:	6f62      	ldr	r2, [r4, #116]	; 0x74
 8003af8:	b922      	cbnz	r2, 8003b04 <tcp_close_shutdown+0x20>
 8003afa:	8da1      	ldrh	r1, [r4, #44]	; 0x2c
 8003afc:	f640 3268 	movw	r2, #2920	; 0xb68
 8003b00:	4291      	cmp	r1, r2
 8003b02:	d036      	beq.n	8003b72 <tcp_close_shutdown+0x8e>
      tcp_rst(pcb->snd_nxt, pcb->rcv_nxt, &pcb->local_ip, &pcb->remote_ip,
 8003b04:	8ba3      	ldrh	r3, [r4, #28]
 8003b06:	9301      	str	r3, [sp, #4]
 8003b08:	8b63      	ldrh	r3, [r4, #26]
 8003b0a:	9300      	str	r3, [sp, #0]
 8003b0c:	4622      	mov	r2, r4
 8003b0e:	1d23      	adds	r3, r4, #4
 8003b10:	6aa1      	ldr	r1, [r4, #40]	; 0x28
 8003b12:	6d20      	ldr	r0, [r4, #80]	; 0x50
 8003b14:	f001 fcf4 	bl	8005500 <tcp_rst>
      tcp_pcb_purge(pcb);
 8003b18:	4620      	mov	r0, r4
 8003b1a:	f7ff fe3b 	bl	8003794 <tcp_pcb_purge>
      TCP_RMV_ACTIVE(pcb);
 8003b1e:	4a40      	ldr	r2, [pc, #256]	; (8003c20 <tcp_close_shutdown+0x13c>)
 8003b20:	6813      	ldr	r3, [r2, #0]
 8003b22:	429c      	cmp	r4, r3
 8003b24:	d102      	bne.n	8003b2c <tcp_close_shutdown+0x48>
 8003b26:	68e3      	ldr	r3, [r4, #12]
 8003b28:	6013      	str	r3, [r2, #0]
 8003b2a:	e00c      	b.n	8003b46 <tcp_close_shutdown+0x62>
 8003b2c:	4a3d      	ldr	r2, [pc, #244]	; (8003c24 <tcp_close_shutdown+0x140>)
 8003b2e:	2100      	movs	r1, #0
 8003b30:	6013      	str	r3, [r2, #0]
 8003b32:	b90b      	cbnz	r3, 8003b38 <tcp_close_shutdown+0x54>
 8003b34:	b139      	cbz	r1, 8003b46 <tcp_close_shutdown+0x62>
 8003b36:	e7f7      	b.n	8003b28 <tcp_close_shutdown+0x44>
 8003b38:	68d8      	ldr	r0, [r3, #12]
 8003b3a:	4284      	cmp	r4, r0
 8003b3c:	d116      	bne.n	8003b6c <tcp_close_shutdown+0x88>
 8003b3e:	b101      	cbz	r1, 8003b42 <tcp_close_shutdown+0x5e>
 8003b40:	6013      	str	r3, [r2, #0]
 8003b42:	68e2      	ldr	r2, [r4, #12]
 8003b44:	60da      	str	r2, [r3, #12]
 8003b46:	4b38      	ldr	r3, [pc, #224]	; (8003c28 <tcp_close_shutdown+0x144>)
 8003b48:	2201      	movs	r2, #1
 8003b4a:	701a      	strb	r2, [r3, #0]
      if (pcb->state == ESTABLISHED) {
 8003b4c:	7e23      	ldrb	r3, [r4, #24]
      TCP_RMV_ACTIVE(pcb);
 8003b4e:	2500      	movs	r5, #0
      if (pcb->state == ESTABLISHED) {
 8003b50:	2b04      	cmp	r3, #4
      TCP_RMV_ACTIVE(pcb);
 8003b52:	60e5      	str	r5, [r4, #12]
      if (pcb->state == ESTABLISHED) {
 8003b54:	d13a      	bne.n	8003bcc <tcp_close_shutdown+0xe8>
        pcb->state = TIME_WAIT;
 8003b56:	230a      	movs	r3, #10
 8003b58:	7623      	strb	r3, [r4, #24]
        TCP_REG(&tcp_tw_pcbs, pcb);
 8003b5a:	4b34      	ldr	r3, [pc, #208]	; (8003c2c <tcp_close_shutdown+0x148>)
 8003b5c:	681a      	ldr	r2, [r3, #0]
 8003b5e:	60e2      	str	r2, [r4, #12]
 8003b60:	601c      	str	r4, [r3, #0]
 8003b62:	f001 fe2b 	bl	80057bc <tcp_timer_needed>
    tcp_output(pcb);
 8003b66:	2000      	movs	r0, #0
}
 8003b68:	b003      	add	sp, #12
 8003b6a:	bd30      	pop	{r4, r5, pc}
 8003b6c:	2101      	movs	r1, #1
 8003b6e:	4603      	mov	r3, r0
 8003b70:	e7df      	b.n	8003b32 <tcp_close_shutdown+0x4e>
  switch (pcb->state) {
 8003b72:	2b07      	cmp	r3, #7
 8003b74:	d8f7      	bhi.n	8003b66 <tcp_close_shutdown+0x82>
 8003b76:	a201      	add	r2, pc, #4	; (adr r2, 8003b7c <tcp_close_shutdown+0x98>)
 8003b78:	f852 f023 	ldr.w	pc, [r2, r3, lsl #2]
 8003b7c:	08003b9d 	.word	0x08003b9d
 8003b80:	08003bd9 	.word	0x08003bd9
 8003b84:	08003beb 	.word	0x08003beb
 8003b88:	08003bfb 	.word	0x08003bfb
 8003b8c:	08003bfb 	.word	0x08003bfb
 8003b90:	08003b67 	.word	0x08003b67
 8003b94:	08003b67 	.word	0x08003b67
 8003b98:	08003c11 	.word	0x08003c11
    if (pcb->local_port != 0) {
 8003b9c:	8b63      	ldrh	r3, [r4, #26]
 8003b9e:	b1ab      	cbz	r3, 8003bcc <tcp_close_shutdown+0xe8>
      TCP_RMV(&tcp_bound_pcbs, pcb);
 8003ba0:	4a23      	ldr	r2, [pc, #140]	; (8003c30 <tcp_close_shutdown+0x14c>)
 8003ba2:	6813      	ldr	r3, [r2, #0]
 8003ba4:	429c      	cmp	r4, r3
 8003ba6:	d102      	bne.n	8003bae <tcp_close_shutdown+0xca>
 8003ba8:	68e3      	ldr	r3, [r4, #12]
 8003baa:	6013      	str	r3, [r2, #0]
 8003bac:	e00c      	b.n	8003bc8 <tcp_close_shutdown+0xe4>
 8003bae:	4a1d      	ldr	r2, [pc, #116]	; (8003c24 <tcp_close_shutdown+0x140>)
 8003bb0:	2100      	movs	r1, #0
 8003bb2:	6013      	str	r3, [r2, #0]
 8003bb4:	b90b      	cbnz	r3, 8003bba <tcp_close_shutdown+0xd6>
 8003bb6:	b139      	cbz	r1, 8003bc8 <tcp_close_shutdown+0xe4>
 8003bb8:	e7f7      	b.n	8003baa <tcp_close_shutdown+0xc6>
 8003bba:	68d8      	ldr	r0, [r3, #12]
 8003bbc:	4284      	cmp	r4, r0
 8003bbe:	d108      	bne.n	8003bd2 <tcp_close_shutdown+0xee>
 8003bc0:	b101      	cbz	r1, 8003bc4 <tcp_close_shutdown+0xe0>
 8003bc2:	6013      	str	r3, [r2, #0]
 8003bc4:	68e2      	ldr	r2, [r4, #12]
 8003bc6:	60da      	str	r2, [r3, #12]
 8003bc8:	2300      	movs	r3, #0
 8003bca:	60e3      	str	r3, [r4, #12]
    memp_free(MEMP_TCP_PCB, pcb);
 8003bcc:	4621      	mov	r1, r4
 8003bce:	2002      	movs	r0, #2
 8003bd0:	e008      	b.n	8003be4 <tcp_close_shutdown+0x100>
 8003bd2:	2101      	movs	r1, #1
 8003bd4:	4603      	mov	r3, r0
 8003bd6:	e7ed      	b.n	8003bb4 <tcp_close_shutdown+0xd0>
    tcp_pcb_remove(&tcp_listen_pcbs.pcbs, pcb);
 8003bd8:	4621      	mov	r1, r4
 8003bda:	4816      	ldr	r0, [pc, #88]	; (8003c34 <tcp_close_shutdown+0x150>)
 8003bdc:	f7ff ff50 	bl	8003a80 <tcp_pcb_remove>
    memp_free(MEMP_TCP_PCB_LISTEN, pcb);
 8003be0:	4621      	mov	r1, r4
 8003be2:	2003      	movs	r0, #3
    memp_free(MEMP_TCP_PCB, pcb);
 8003be4:	f7ff f9f8 	bl	8002fd8 <memp_free>
 8003be8:	e7bd      	b.n	8003b66 <tcp_close_shutdown+0x82>
    TCP_PCB_REMOVE_ACTIVE(pcb);
 8003bea:	4621      	mov	r1, r4
 8003bec:	480c      	ldr	r0, [pc, #48]	; (8003c20 <tcp_close_shutdown+0x13c>)
 8003bee:	f7ff ff47 	bl	8003a80 <tcp_pcb_remove>
 8003bf2:	4b0d      	ldr	r3, [pc, #52]	; (8003c28 <tcp_close_shutdown+0x144>)
 8003bf4:	2201      	movs	r2, #1
 8003bf6:	701a      	strb	r2, [r3, #0]
 8003bf8:	e7e8      	b.n	8003bcc <tcp_close_shutdown+0xe8>
    err = tcp_send_fin(pcb);
 8003bfa:	4620      	mov	r0, r4
 8003bfc:	f001 faf5 	bl	80051ea <tcp_send_fin>
    if (err == ERR_OK) {
 8003c00:	2800      	cmp	r0, #0
 8003c02:	d1b1      	bne.n	8003b68 <tcp_close_shutdown+0x84>
      pcb->state = FIN_WAIT_1;
 8003c04:	2305      	movs	r3, #5
      pcb->state = LAST_ACK;
 8003c06:	7623      	strb	r3, [r4, #24]
    tcp_output(pcb);
 8003c08:	4620      	mov	r0, r4
 8003c0a:	f001 fb3d 	bl	8005288 <tcp_output>
 8003c0e:	e7aa      	b.n	8003b66 <tcp_close_shutdown+0x82>
    err = tcp_send_fin(pcb);
 8003c10:	4620      	mov	r0, r4
 8003c12:	f001 faea 	bl	80051ea <tcp_send_fin>
    if (err == ERR_OK) {
 8003c16:	2800      	cmp	r0, #0
 8003c18:	d1a6      	bne.n	8003b68 <tcp_close_shutdown+0x84>
      pcb->state = LAST_ACK;
 8003c1a:	2309      	movs	r3, #9
 8003c1c:	e7f3      	b.n	8003c06 <tcp_close_shutdown+0x122>
 8003c1e:	bf00      	nop
 8003c20:	20004e5c 	.word	0x20004e5c
 8003c24:	20004e68 	.word	0x20004e68
 8003c28:	20004e58 	.word	0x20004e58
 8003c2c:	20004e70 	.word	0x20004e70
 8003c30:	20004e6c 	.word	0x20004e6c
 8003c34:	20004e64 	.word	0x20004e64

08003c38 <tcp_close>:
  if (pcb->state != LISTEN) {
 8003c38:	7e03      	ldrb	r3, [r0, #24]
 8003c3a:	2b01      	cmp	r3, #1
    pcb->flags |= TF_RXCLOSED;
 8003c3c:	bf1e      	ittt	ne
 8003c3e:	7f83      	ldrbne	r3, [r0, #30]
 8003c40:	f043 0310 	orrne.w	r3, r3, #16
 8003c44:	7783      	strbne	r3, [r0, #30]
  return tcp_close_shutdown(pcb, 1);
 8003c46:	2101      	movs	r1, #1
 8003c48:	f7ff bf4c 	b.w	8003ae4 <tcp_close_shutdown>

08003c4c <tcp_recv_null>:
{
 8003c4c:	b510      	push	{r4, lr}
 8003c4e:	4608      	mov	r0, r1
  if (p != NULL) {
 8003c50:	4614      	mov	r4, r2
 8003c52:	b13a      	cbz	r2, 8003c64 <tcp_recv_null+0x18>
    tcp_recved(pcb, p->tot_len);
 8003c54:	8911      	ldrh	r1, [r2, #8]
 8003c56:	f7ff fd5a 	bl	800370e <tcp_recved>
    pbuf_free(p);
 8003c5a:	4620      	mov	r0, r4
 8003c5c:	f7ff fad5 	bl	800320a <pbuf_free>
}
 8003c60:	2000      	movs	r0, #0
 8003c62:	bd10      	pop	{r4, pc}
  } else if (err == ERR_OK) {
 8003c64:	2b00      	cmp	r3, #0
 8003c66:	d1fb      	bne.n	8003c60 <tcp_recv_null+0x14>
}
 8003c68:	e8bd 4010 	ldmia.w	sp!, {r4, lr}
    return tcp_close(pcb);
 8003c6c:	f7ff bfe4 	b.w	8003c38 <tcp_close>

08003c70 <tcp_process_refused_data>:
{
 8003c70:	b5f8      	push	{r3, r4, r5, r6, r7, lr}
  u8_t refused_flags = pcb->refused_data->flags;
 8003c72:	6f46      	ldr	r6, [r0, #116]	; 0x74
  TCP_EVENT_RECV(pcb, refused_data, ERR_OK, err);
 8003c74:	6fc5      	ldr	r5, [r0, #124]	; 0x7c
  u8_t refused_flags = pcb->refused_data->flags;
 8003c76:	7b77      	ldrb	r7, [r6, #13]
  pcb->refused_data = NULL;
 8003c78:	2300      	movs	r3, #0
{
 8003c7a:	4604      	mov	r4, r0
  pcb->refused_data = NULL;
 8003c7c:	6743      	str	r3, [r0, #116]	; 0x74
  TCP_EVENT_RECV(pcb, refused_data, ERR_OK, err);
 8003c7e:	b1dd      	cbz	r5, 8003cb8 <tcp_process_refused_data+0x48>
 8003c80:	4601      	mov	r1, r0
 8003c82:	4632      	mov	r2, r6
 8003c84:	6900      	ldr	r0, [r0, #16]
 8003c86:	47a8      	blx	r5
 8003c88:	4605      	mov	r5, r0
  if (err == ERR_OK) {
 8003c8a:	b9e0      	cbnz	r0, 8003cc6 <tcp_process_refused_data+0x56>
    if (refused_flags & PBUF_FLAG_TCP_FIN) {
 8003c8c:	06bb      	lsls	r3, r7, #26
 8003c8e:	d511      	bpl.n	8003cb4 <tcp_process_refused_data+0x44>
      if (pcb->rcv_wnd != TCP_WND) {
 8003c90:	8da3      	ldrh	r3, [r4, #44]	; 0x2c
      TCP_EVENT_CLOSED(pcb, err);
 8003c92:	6fe6      	ldr	r6, [r4, #124]	; 0x7c
      if (pcb->rcv_wnd != TCP_WND) {
 8003c94:	f640 3268 	movw	r2, #2920	; 0xb68
 8003c98:	4293      	cmp	r3, r2
        pcb->rcv_wnd++;
 8003c9a:	bf1c      	itt	ne
 8003c9c:	3301      	addne	r3, #1
 8003c9e:	85a3      	strhne	r3, [r4, #44]	; 0x2c
      TCP_EVENT_CLOSED(pcb, err);
 8003ca0:	b146      	cbz	r6, 8003cb4 <tcp_process_refused_data+0x44>
 8003ca2:	2300      	movs	r3, #0
 8003ca4:	461a      	mov	r2, r3
 8003ca6:	4621      	mov	r1, r4
 8003ca8:	6920      	ldr	r0, [r4, #16]
 8003caa:	47b0      	blx	r6
      if (err == ERR_ABRT) {
 8003cac:	300a      	adds	r0, #10
 8003cae:	d101      	bne.n	8003cb4 <tcp_process_refused_data+0x44>
        return ERR_ABRT;
 8003cb0:	f06f 0509 	mvn.w	r5, #9
}
 8003cb4:	4628      	mov	r0, r5
 8003cb6:	bdf8      	pop	{r3, r4, r5, r6, r7, pc}
  TCP_EVENT_RECV(pcb, refused_data, ERR_OK, err);
 8003cb8:	4601      	mov	r1, r0
 8003cba:	462b      	mov	r3, r5
 8003cbc:	4632      	mov	r2, r6
 8003cbe:	4628      	mov	r0, r5
 8003cc0:	f7ff ffc4 	bl	8003c4c <tcp_recv_null>
 8003cc4:	e7e0      	b.n	8003c88 <tcp_process_refused_data+0x18>
  } else if (err == ERR_ABRT) {
 8003cc6:	f110 050a 	adds.w	r5, r0, #10
 8003cca:	d0f1      	beq.n	8003cb0 <tcp_process_refused_data+0x40>
    pcb->refused_data = refused_data;
 8003ccc:	6766      	str	r6, [r4, #116]	; 0x74
  return ERR_OK;
 8003cce:	2500      	movs	r5, #0
 8003cd0:	e7f0      	b.n	8003cb4 <tcp_process_refused_data+0x44>
	...

08003cd4 <tcp_fasttmr>:
{
 8003cd4:	e92d 43f8 	stmdb	sp!, {r3, r4, r5, r6, r7, r8, r9, lr}
  ++tcp_timer_ctr;
 8003cd8:	4d17      	ldr	r5, [pc, #92]	; (8003d38 <tcp_fasttmr+0x64>)
  pcb = tcp_active_pcbs;
 8003cda:	4f18      	ldr	r7, [pc, #96]	; (8003d3c <tcp_fasttmr+0x68>)
  ++tcp_timer_ctr;
 8003cdc:	782b      	ldrb	r3, [r5, #0]
        tcp_active_pcbs_changed = 0;
 8003cde:	4e18      	ldr	r6, [pc, #96]	; (8003d40 <tcp_fasttmr+0x6c>)
  ++tcp_timer_ctr;
 8003ce0:	3301      	adds	r3, #1
 8003ce2:	702b      	strb	r3, [r5, #0]
  pcb = tcp_active_pcbs;
 8003ce4:	683c      	ldr	r4, [r7, #0]
        tcp_active_pcbs_changed = 0;
 8003ce6:	f04f 0800 	mov.w	r8, #0
    if (pcb->last_timer != tcp_timer_ctr) {
 8003cea:	782b      	ldrb	r3, [r5, #0]
  while(pcb != NULL) {
 8003cec:	b90c      	cbnz	r4, 8003cf2 <tcp_fasttmr+0x1e>
}
 8003cee:	e8bd 83f8 	ldmia.w	sp!, {r3, r4, r5, r6, r7, r8, r9, pc}
    if (pcb->last_timer != tcp_timer_ctr) {
 8003cf2:	f894 2021 	ldrb.w	r2, [r4, #33]	; 0x21
 8003cf6:	429a      	cmp	r2, r3
 8003cf8:	d0f8      	beq.n	8003cec <tcp_fasttmr+0x18>
      pcb->last_timer = tcp_timer_ctr;
 8003cfa:	f884 3021 	strb.w	r3, [r4, #33]	; 0x21
      if (pcb->flags & TF_ACK_DELAY) {
 8003cfe:	7fa3      	ldrb	r3, [r4, #30]
 8003d00:	07da      	lsls	r2, r3, #31
 8003d02:	d509      	bpl.n	8003d18 <tcp_fasttmr+0x44>
        tcp_ack_now(pcb);
 8003d04:	f043 0302 	orr.w	r3, r3, #2
 8003d08:	77a3      	strb	r3, [r4, #30]
        tcp_output(pcb);
 8003d0a:	4620      	mov	r0, r4
 8003d0c:	f001 fabc 	bl	8005288 <tcp_output>
        pcb->flags &= ~(TF_ACK_DELAY | TF_ACK_NOW);
 8003d10:	7fa3      	ldrb	r3, [r4, #30]
 8003d12:	f023 0303 	bic.w	r3, r3, #3
 8003d16:	77a3      	strb	r3, [r4, #30]
      if (pcb->refused_data != NULL) {
 8003d18:	6f63      	ldr	r3, [r4, #116]	; 0x74
      next = pcb->next;
 8003d1a:	f8d4 900c 	ldr.w	r9, [r4, #12]
      if (pcb->refused_data != NULL) {
 8003d1e:	b90b      	cbnz	r3, 8003d24 <tcp_fasttmr+0x50>
{
 8003d20:	464c      	mov	r4, r9
 8003d22:	e7e2      	b.n	8003cea <tcp_fasttmr+0x16>
        tcp_process_refused_data(pcb);
 8003d24:	4620      	mov	r0, r4
        tcp_active_pcbs_changed = 0;
 8003d26:	f886 8000 	strb.w	r8, [r6]
        tcp_process_refused_data(pcb);
 8003d2a:	f7ff ffa1 	bl	8003c70 <tcp_process_refused_data>
        if (tcp_active_pcbs_changed) {
 8003d2e:	7833      	ldrb	r3, [r6, #0]
 8003d30:	2b00      	cmp	r3, #0
 8003d32:	d0f5      	beq.n	8003d20 <tcp_fasttmr+0x4c>
 8003d34:	e7d6      	b.n	8003ce4 <tcp_fasttmr+0x10>
 8003d36:	bf00      	nop
 8003d38:	20002515 	.word	0x20002515
 8003d3c:	20004e5c 	.word	0x20004e5c
 8003d40:	20004e58 	.word	0x20004e58

08003d44 <tcp_tmr>:
{
 8003d44:	b508      	push	{r3, lr}
  tcp_fasttmr();
 8003d46:	f7ff ffc5 	bl	8003cd4 <tcp_fasttmr>
  if (++tcp_timer & 1) {
 8003d4a:	4a06      	ldr	r2, [pc, #24]	; (8003d64 <tcp_tmr+0x20>)
 8003d4c:	7813      	ldrb	r3, [r2, #0]
 8003d4e:	3301      	adds	r3, #1
 8003d50:	b2db      	uxtb	r3, r3
 8003d52:	7013      	strb	r3, [r2, #0]
 8003d54:	07db      	lsls	r3, r3, #31
 8003d56:	d503      	bpl.n	8003d60 <tcp_tmr+0x1c>
}
 8003d58:	e8bd 4008 	ldmia.w	sp!, {r3, lr}
    tcp_slowtmr();
 8003d5c:	f7ff bd36 	b.w	80037cc <tcp_slowtmr>
 8003d60:	bd08      	pop	{r3, pc}
 8003d62:	bf00      	nop
 8003d64:	20002514 	.word	0x20002514

08003d68 <tcp_abandon>:
  if (pcb->state == TIME_WAIT) {
 8003d68:	7e03      	ldrb	r3, [r0, #24]
 8003d6a:	2b0a      	cmp	r3, #10
{
 8003d6c:	e92d 43f7 	stmdb	sp!, {r0, r1, r2, r4, r5, r6, r7, r8, r9, lr}
 8003d70:	4604      	mov	r4, r0
 8003d72:	4689      	mov	r9, r1
  if (pcb->state == TIME_WAIT) {
 8003d74:	d10a      	bne.n	8003d8c <tcp_abandon+0x24>
    tcp_pcb_remove(&tcp_tw_pcbs, pcb);
 8003d76:	4601      	mov	r1, r0
 8003d78:	481d      	ldr	r0, [pc, #116]	; (8003df0 <tcp_abandon+0x88>)
 8003d7a:	f7ff fe81 	bl	8003a80 <tcp_pcb_remove>
    memp_free(MEMP_TCP_PCB, pcb);
 8003d7e:	4621      	mov	r1, r4
 8003d80:	2002      	movs	r0, #2
}
 8003d82:	b003      	add	sp, #12
 8003d84:	e8bd 43f0 	ldmia.w	sp!, {r4, r5, r6, r7, r8, r9, lr}
    memp_free(MEMP_TCP_PCB, pcb);
 8003d88:	f7ff b926 	b.w	8002fd8 <memp_free>
    seqno = pcb->snd_nxt;
 8003d8c:	6d07      	ldr	r7, [r0, #80]	; 0x50
    ackno = pcb->rcv_nxt;
 8003d8e:	f8d0 8028 	ldr.w	r8, [r0, #40]	; 0x28
    errf = pcb->errf;
 8003d92:	f8d0 5088 	ldr.w	r5, [r0, #136]	; 0x88
    errf_arg = pcb->callback_arg;
 8003d96:	6906      	ldr	r6, [r0, #16]
    TCP_PCB_REMOVE_ACTIVE(pcb);
 8003d98:	4601      	mov	r1, r0
 8003d9a:	4816      	ldr	r0, [pc, #88]	; (8003df4 <tcp_abandon+0x8c>)
 8003d9c:	f7ff fe70 	bl	8003a80 <tcp_pcb_remove>
 8003da0:	4b15      	ldr	r3, [pc, #84]	; (8003df8 <tcp_abandon+0x90>)
    if (pcb->unacked != NULL) {
 8003da2:	6f20      	ldr	r0, [r4, #112]	; 0x70
    TCP_PCB_REMOVE_ACTIVE(pcb);
 8003da4:	2201      	movs	r2, #1
 8003da6:	701a      	strb	r2, [r3, #0]
    if (pcb->unacked != NULL) {
 8003da8:	b108      	cbz	r0, 8003dae <tcp_abandon+0x46>
      tcp_segs_free(pcb->unacked);
 8003daa:	f7ff fcd9 	bl	8003760 <tcp_segs_free>
    if (pcb->unsent != NULL) {
 8003dae:	6ee0      	ldr	r0, [r4, #108]	; 0x6c
 8003db0:	b108      	cbz	r0, 8003db6 <tcp_abandon+0x4e>
      tcp_segs_free(pcb->unsent);
 8003db2:	f7ff fcd5 	bl	8003760 <tcp_segs_free>
    if (reset) {
 8003db6:	f1b9 0f00 	cmp.w	r9, #0
 8003dba:	d009      	beq.n	8003dd0 <tcp_abandon+0x68>
      tcp_rst(seqno, ackno, &pcb->local_ip, &pcb->remote_ip, pcb->local_port, pcb->remote_port);
 8003dbc:	8ba3      	ldrh	r3, [r4, #28]
 8003dbe:	9301      	str	r3, [sp, #4]
 8003dc0:	8b63      	ldrh	r3, [r4, #26]
 8003dc2:	9300      	str	r3, [sp, #0]
 8003dc4:	4622      	mov	r2, r4
 8003dc6:	1d23      	adds	r3, r4, #4
 8003dc8:	4641      	mov	r1, r8
 8003dca:	4638      	mov	r0, r7
 8003dcc:	f001 fb98 	bl	8005500 <tcp_rst>
    memp_free(MEMP_TCP_PCB, pcb);
 8003dd0:	4621      	mov	r1, r4
 8003dd2:	2002      	movs	r0, #2
 8003dd4:	f7ff f900 	bl	8002fd8 <memp_free>
    TCP_EVENT_ERR(errf, errf_arg, ERR_ABRT);
 8003dd8:	b13d      	cbz	r5, 8003dea <tcp_abandon+0x82>
 8003dda:	f06f 0109 	mvn.w	r1, #9
 8003dde:	4630      	mov	r0, r6
 8003de0:	462b      	mov	r3, r5
}
 8003de2:	b003      	add	sp, #12
 8003de4:	e8bd 43f0 	ldmia.w	sp!, {r4, r5, r6, r7, r8, r9, lr}
    TCP_EVENT_ERR(errf, errf_arg, ERR_ABRT);
 8003de8:	4718      	bx	r3
}
 8003dea:	b003      	add	sp, #12
 8003dec:	e8bd 83f0 	ldmia.w	sp!, {r4, r5, r6, r7, r8, r9, pc}
 8003df0:	20004e70 	.word	0x20004e70
 8003df4:	20004e5c 	.word	0x20004e5c
 8003df8:	20004e58 	.word	0x20004e58

08003dfc <tcp_abort>:
  tcp_abandon(pcb, 1);
 8003dfc:	2101      	movs	r1, #1
 8003dfe:	f7ff bfb3 	b.w	8003d68 <tcp_abandon>
	...

08003e04 <tcp_next_iss>:
u32_t
tcp_next_iss(void)
{
  static u32_t iss = 6510;
  
  iss += tcp_ticks;       /* XXX */
 8003e04:	4b03      	ldr	r3, [pc, #12]	; (8003e14 <tcp_next_iss+0x10>)
 8003e06:	4a04      	ldr	r2, [pc, #16]	; (8003e18 <tcp_next_iss+0x14>)
 8003e08:	6818      	ldr	r0, [r3, #0]
 8003e0a:	6812      	ldr	r2, [r2, #0]
 8003e0c:	4410      	add	r0, r2
 8003e0e:	6018      	str	r0, [r3, #0]
  return iss;
}
 8003e10:	4770      	bx	lr
 8003e12:	bf00      	nop
 8003e14:	2000000c 	.word	0x2000000c
 8003e18:	20004e60 	.word	0x20004e60

08003e1c <tcp_alloc>:
{
 8003e1c:	b5f8      	push	{r3, r4, r5, r6, r7, lr}
 8003e1e:	4606      	mov	r6, r0
  pcb = (struct tcp_pcb *)memp_malloc(MEMP_TCP_PCB);
 8003e20:	2002      	movs	r0, #2
 8003e22:	f7ff f8c9 	bl	8002fb8 <memp_malloc>
 8003e26:	4d3a      	ldr	r5, [pc, #232]	; (8003f10 <tcp_alloc+0xf4>)
  if (pcb == NULL) {
 8003e28:	4604      	mov	r4, r0
 8003e2a:	bb00      	cbnz	r0, 8003e6e <tcp_alloc+0x52>
  for(pcb = tcp_tw_pcbs; pcb != NULL; pcb = pcb->next) {
 8003e2c:	4b39      	ldr	r3, [pc, #228]	; (8003f14 <tcp_alloc+0xf8>)
    if ((u32_t)(tcp_ticks - pcb->tmr) >= inactivity) {
 8003e2e:	6828      	ldr	r0, [r5, #0]
  for(pcb = tcp_tw_pcbs; pcb != NULL; pcb = pcb->next) {
 8003e30:	681b      	ldr	r3, [r3, #0]
  inactivity = 0;
 8003e32:	4621      	mov	r1, r4
  for(pcb = tcp_tw_pcbs; pcb != NULL; pcb = pcb->next) {
 8003e34:	2b00      	cmp	r3, #0
 8003e36:	d154      	bne.n	8003ee2 <tcp_alloc+0xc6>
  if (inactive != NULL) {
 8003e38:	b114      	cbz	r4, 8003e40 <tcp_alloc+0x24>
    tcp_abort(inactive);
 8003e3a:	4620      	mov	r0, r4
 8003e3c:	f7ff ffde 	bl	8003dfc <tcp_abort>
    pcb = (struct tcp_pcb *)memp_malloc(MEMP_TCP_PCB);
 8003e40:	2002      	movs	r0, #2
 8003e42:	f7ff f8b9 	bl	8002fb8 <memp_malloc>
    if (pcb == NULL) {
 8003e46:	4604      	mov	r4, r0
 8003e48:	b988      	cbnz	r0, 8003e6e <tcp_alloc+0x52>
  for(pcb = tcp_active_pcbs; pcb != NULL; pcb = pcb->next) {
 8003e4a:	4b33      	ldr	r3, [pc, #204]	; (8003f18 <tcp_alloc+0xfc>)
       (u32_t)(tcp_ticks - pcb->tmr) >= inactivity) {
 8003e4c:	f8d5 e000 	ldr.w	lr, [r5]
  for(pcb = tcp_active_pcbs; pcb != NULL; pcb = pcb->next) {
 8003e50:	681b      	ldr	r3, [r3, #0]
  mprio = TCP_PRIO_MAX;
 8003e52:	207f      	movs	r0, #127	; 0x7f
  inactivity = 0;
 8003e54:	4627      	mov	r7, r4
  for(pcb = tcp_active_pcbs; pcb != NULL; pcb = pcb->next) {
 8003e56:	2b00      	cmp	r3, #0
 8003e58:	d14b      	bne.n	8003ef2 <tcp_alloc+0xd6>
  if (inactive != NULL) {
 8003e5a:	b114      	cbz	r4, 8003e62 <tcp_alloc+0x46>
    tcp_abort(inactive);
 8003e5c:	4620      	mov	r0, r4
 8003e5e:	f7ff ffcd 	bl	8003dfc <tcp_abort>
      pcb = (struct tcp_pcb *)memp_malloc(MEMP_TCP_PCB);
 8003e62:	2002      	movs	r0, #2
 8003e64:	f7ff f8a8 	bl	8002fb8 <memp_malloc>
  if (pcb != NULL) {
 8003e68:	4604      	mov	r4, r0
 8003e6a:	2800      	cmp	r0, #0
 8003e6c:	d037      	beq.n	8003ede <tcp_alloc+0xc2>
    memset(pcb, 0, sizeof(struct tcp_pcb));
 8003e6e:	2294      	movs	r2, #148	; 0x94
 8003e70:	2100      	movs	r1, #0
 8003e72:	4620      	mov	r0, r4
 8003e74:	f003 faea 	bl	800744c <memset>
    pcb->snd_buf = TCP_SND_BUF;
 8003e78:	f241 63d0 	movw	r3, #5840	; 0x16d0
 8003e7c:	f8a4 3066 	strh.w	r3, [r4, #102]	; 0x66
    pcb->rcv_wnd = TCP_WND;
 8003e80:	f640 3368 	movw	r3, #2920	; 0xb68
 8003e84:	85a3      	strh	r3, [r4, #44]	; 0x2c
    pcb->rcv_ann_wnd = TCP_WND;
 8003e86:	85e3      	strh	r3, [r4, #46]	; 0x2e
    pcb->ttl = TCP_TTL;
 8003e88:	23ff      	movs	r3, #255	; 0xff
 8003e8a:	72a3      	strb	r3, [r4, #10]
    pcb->mss = (TCP_MSS > 536) ? 536 : TCP_MSS;
 8003e8c:	f44f 7306 	mov.w	r3, #536	; 0x218
 8003e90:	86e3      	strh	r3, [r4, #54]	; 0x36
    pcb->rto = 3000 / TCP_SLOW_INTERVAL;
 8003e92:	2306      	movs	r3, #6
 8003e94:	f8a4 3044 	strh.w	r3, [r4, #68]	; 0x44
    pcb->sv = 3000 / TCP_SLOW_INTERVAL;
 8003e98:	f8a4 3042 	strh.w	r3, [r4, #66]	; 0x42
    pcb->rtime = -1;
 8003e9c:	f64f 73ff 	movw	r3, #65535	; 0xffff
    pcb->snd_queuelen = 0;
 8003ea0:	2100      	movs	r1, #0
    pcb->rtime = -1;
 8003ea2:	86a3      	strh	r3, [r4, #52]	; 0x34
    pcb->cwnd = 1;
 8003ea4:	2301      	movs	r3, #1
 8003ea6:	f8a4 304c 	strh.w	r3, [r4, #76]	; 0x4c
    pcb->prio = prio;
 8003eaa:	7666      	strb	r6, [r4, #25]
    pcb->snd_queuelen = 0;
 8003eac:	f8a4 1068 	strh.w	r1, [r4, #104]	; 0x68
    pcb->tos = 0;
 8003eb0:	7261      	strb	r1, [r4, #9]
    pcb->sa = 0;
 8003eb2:	f8a4 1040 	strh.w	r1, [r4, #64]	; 0x40
    iss = tcp_next_iss();
 8003eb6:	f7ff ffa5 	bl	8003e04 <tcp_next_iss>
    pcb->tmr = tcp_ticks;
 8003eba:	682b      	ldr	r3, [r5, #0]
 8003ebc:	6263      	str	r3, [r4, #36]	; 0x24
    pcb->last_timer = tcp_timer_ctr;
 8003ebe:	4b17      	ldr	r3, [pc, #92]	; (8003f1c <tcp_alloc+0x100>)
    pcb->snd_wl2 = iss;
 8003ec0:	65a0      	str	r0, [r4, #88]	; 0x58
    pcb->last_timer = tcp_timer_ctr;
 8003ec2:	781b      	ldrb	r3, [r3, #0]
 8003ec4:	f884 3021 	strb.w	r3, [r4, #33]	; 0x21
    pcb->recv = tcp_recv_null;
 8003ec8:	4b15      	ldr	r3, [pc, #84]	; (8003f20 <tcp_alloc+0x104>)
 8003eca:	67e3      	str	r3, [r4, #124]	; 0x7c
    pcb->keep_idle  = TCP_KEEPIDLE_DEFAULT;
 8003ecc:	4b15      	ldr	r3, [pc, #84]	; (8003f24 <tcp_alloc+0x108>)
    pcb->snd_nxt = iss;
 8003ece:	6520      	str	r0, [r4, #80]	; 0x50
    pcb->lastack = iss;
 8003ed0:	64a0      	str	r0, [r4, #72]	; 0x48
    pcb->snd_lbb = iss;   
 8003ed2:	65e0      	str	r0, [r4, #92]	; 0x5c
    pcb->polltmr = 0;
 8003ed4:	77e1      	strb	r1, [r4, #31]
    pcb->keep_idle  = TCP_KEEPIDLE_DEFAULT;
 8003ed6:	f8c4 308c 	str.w	r3, [r4, #140]	; 0x8c
    pcb->keep_cnt_sent = 0;
 8003eda:	f884 1092 	strb.w	r1, [r4, #146]	; 0x92
}
 8003ede:	4620      	mov	r0, r4
 8003ee0:	bdf8      	pop	{r3, r4, r5, r6, r7, pc}
    if ((u32_t)(tcp_ticks - pcb->tmr) >= inactivity) {
 8003ee2:	6a5a      	ldr	r2, [r3, #36]	; 0x24
 8003ee4:	1a82      	subs	r2, r0, r2
 8003ee6:	428a      	cmp	r2, r1
 8003ee8:	bf24      	itt	cs
 8003eea:	461c      	movcs	r4, r3
 8003eec:	4611      	movcs	r1, r2
  for(pcb = tcp_tw_pcbs; pcb != NULL; pcb = pcb->next) {
 8003eee:	68db      	ldr	r3, [r3, #12]
 8003ef0:	e7a0      	b.n	8003e34 <tcp_alloc+0x18>
    if (pcb->prio <= prio &&
 8003ef2:	7e59      	ldrb	r1, [r3, #25]
 8003ef4:	428e      	cmp	r6, r1
 8003ef6:	d309      	bcc.n	8003f0c <tcp_alloc+0xf0>
 8003ef8:	4281      	cmp	r1, r0
 8003efa:	d807      	bhi.n	8003f0c <tcp_alloc+0xf0>
       (u32_t)(tcp_ticks - pcb->tmr) >= inactivity) {
 8003efc:	6a5a      	ldr	r2, [r3, #36]	; 0x24
 8003efe:	ebae 0202 	sub.w	r2, lr, r2
       pcb->prio <= mprio &&
 8003f02:	42ba      	cmp	r2, r7
 8003f04:	bf22      	ittt	cs
 8003f06:	4608      	movcs	r0, r1
 8003f08:	4617      	movcs	r7, r2
 8003f0a:	461c      	movcs	r4, r3
  for(pcb = tcp_active_pcbs; pcb != NULL; pcb = pcb->next) {
 8003f0c:	68db      	ldr	r3, [r3, #12]
 8003f0e:	e7a2      	b.n	8003e56 <tcp_alloc+0x3a>
 8003f10:	20004e60 	.word	0x20004e60
 8003f14:	20004e70 	.word	0x20004e70
 8003f18:	20004e5c 	.word	0x20004e5c
 8003f1c:	20002515 	.word	0x20002515
 8003f20:	08003c4d 	.word	0x08003c4d
 8003f24:	006ddd00 	.word	0x006ddd00

08003f28 <tcp_new>:
  return tcp_alloc(TCP_PRIO_NORMAL);
 8003f28:	2040      	movs	r0, #64	; 0x40
 8003f2a:	f7ff bf77 	b.w	8003e1c <tcp_alloc>

08003f2e <tcp_eff_send_mss>:
 * by using ip_route to determin the netif used to send to the address and
 * calculating the minimum of TCP_MSS and that netif's mtu (if set).
 */
u16_t
tcp_eff_send_mss(u16_t sendmss, ip_addr_t *addr)
{
 8003f2e:	b510      	push	{r4, lr}
 8003f30:	4604      	mov	r4, r0
  u16_t mss_s;
  struct netif *outif;

  outif = ip_route(addr);
 8003f32:	4608      	mov	r0, r1
 8003f34:	f7fe fab4 	bl	80024a0 <ip_route>
  if ((outif != NULL) && (outif->mtu != 0)) {
 8003f38:	b130      	cbz	r0, 8003f48 <tcp_eff_send_mss+0x1a>
 8003f3a:	8d03      	ldrh	r3, [r0, #40]	; 0x28
 8003f3c:	b123      	cbz	r3, 8003f48 <tcp_eff_send_mss+0x1a>
    mss_s = outif->mtu - IP_HLEN - TCP_HLEN;
 8003f3e:	3b28      	subs	r3, #40	; 0x28
    /* RFC 1122, chap 4.2.2.6:
     * Eff.snd.MSS = min(SendMSS+20, MMS_S) - TCPhdrsize - IPoptionsize
     * We correct for TCP options in tcp_write(), and don't support IP options.
     */
    sendmss = LWIP_MIN(sendmss, mss_s);
 8003f40:	b29b      	uxth	r3, r3
 8003f42:	429c      	cmp	r4, r3
 8003f44:	bf28      	it	cs
 8003f46:	461c      	movcs	r4, r3
  }
  return sendmss;
}
 8003f48:	4620      	mov	r0, r4
 8003f4a:	bd10      	pop	{r4, pc}

08003f4c <tcp_receive>:
 *
 * Called from tcp_process().
 */
static void
tcp_receive(struct tcp_pcb *pcb)
{
 8003f4c:	e92d 43f8 	stmdb	sp!, {r3, r4, r5, r6, r7, r8, r9, lr}
  u16_t ooseq_qlen;
#endif /* TCP_OOSEQ_MAX_BYTES || TCP_OOSEQ_MAX_PBUFS */

  LWIP_ASSERT("tcp_receive: wrong state", pcb->state >= ESTABLISHED);

  if (flags & TCP_ACK) {
 8003f50:	4bba      	ldr	r3, [pc, #744]	; (800423c <tcp_receive+0x2f0>)
 8003f52:	4ebb      	ldr	r6, [pc, #748]	; (8004240 <tcp_receive+0x2f4>)
 8003f54:	781b      	ldrb	r3, [r3, #0]
 8003f56:	f013 0f10 	tst.w	r3, #16
{
 8003f5a:	4604      	mov	r4, r0
  if (flags & TCP_ACK) {
 8003f5c:	d070      	beq.n	8004040 <tcp_receive+0xf4>
    right_wnd_edge = pcb->snd_wnd + pcb->snd_wl2;

    /* Update window. */
    if (TCP_SEQ_LT(pcb->snd_wl1, seqno) ||
 8003f5e:	6d63      	ldr	r3, [r4, #84]	; 0x54
 8003f60:	6832      	ldr	r2, [r6, #0]
  LWIP_ASSERT("tcp_receive: wrong state", pcb->state >= ESTABLISHED);
 8003f62:	7e00      	ldrb	r0, [r0, #24]
    right_wnd_edge = pcb->snd_wnd + pcb->snd_wl2;
 8003f64:	f8b4 1060 	ldrh.w	r1, [r4, #96]	; 0x60
 8003f68:	6da7      	ldr	r7, [r4, #88]	; 0x58
    if (TCP_SEQ_LT(pcb->snd_wl1, seqno) ||
 8003f6a:	1a9d      	subs	r5, r3, r2
 8003f6c:	2d00      	cmp	r5, #0
 8003f6e:	4db5      	ldr	r5, [pc, #724]	; (8004244 <tcp_receive+0x2f8>)
 8003f70:	db0d      	blt.n	8003f8e <tcp_receive+0x42>
 8003f72:	4293      	cmp	r3, r2
 8003f74:	d103      	bne.n	8003f7e <tcp_receive+0x32>
       (pcb->snd_wl1 == seqno && TCP_SEQ_LT(pcb->snd_wl2, ackno)) ||
 8003f76:	682b      	ldr	r3, [r5, #0]
 8003f78:	1afb      	subs	r3, r7, r3
 8003f7a:	2b00      	cmp	r3, #0
 8003f7c:	db07      	blt.n	8003f8e <tcp_receive+0x42>
 8003f7e:	682b      	ldr	r3, [r5, #0]
 8003f80:	429f      	cmp	r7, r3
 8003f82:	d11f      	bne.n	8003fc4 <tcp_receive+0x78>
       (pcb->snd_wl2 == ackno && tcphdr->wnd > pcb->snd_wnd)) {
 8003f84:	4bb0      	ldr	r3, [pc, #704]	; (8004248 <tcp_receive+0x2fc>)
 8003f86:	681b      	ldr	r3, [r3, #0]
 8003f88:	89db      	ldrh	r3, [r3, #14]
 8003f8a:	428b      	cmp	r3, r1
 8003f8c:	d91a      	bls.n	8003fc4 <tcp_receive+0x78>
      pcb->snd_wnd = tcphdr->wnd;
 8003f8e:	4bae      	ldr	r3, [pc, #696]	; (8004248 <tcp_receive+0x2fc>)
      /* keep track of the biggest window announced by the remote host to calculate
         the maximum segment size */
      if (pcb->snd_wnd_max < tcphdr->wnd) {
 8003f90:	f8b4 c062 	ldrh.w	ip, [r4, #98]	; 0x62
      pcb->snd_wnd = tcphdr->wnd;
 8003f94:	681b      	ldr	r3, [r3, #0]
 8003f96:	f8b3 e00e 	ldrh.w	lr, [r3, #14]
        pcb->snd_wnd_max = tcphdr->wnd;
      }
      pcb->snd_wl1 = seqno;
 8003f9a:	6562      	str	r2, [r4, #84]	; 0x54
      if (pcb->snd_wnd_max < tcphdr->wnd) {
 8003f9c:	45f4      	cmp	ip, lr
      pcb->snd_wl2 = ackno;
 8003f9e:	682a      	ldr	r2, [r5, #0]
 8003fa0:	65a2      	str	r2, [r4, #88]	; 0x58
      pcb->snd_wnd = tcphdr->wnd;
 8003fa2:	4673      	mov	r3, lr
 8003fa4:	f8a4 e060 	strh.w	lr, [r4, #96]	; 0x60
        pcb->snd_wnd_max = tcphdr->wnd;
 8003fa8:	bf38      	it	cc
 8003faa:	f8a4 e062 	strhcc.w	lr, [r4, #98]	; 0x62
 8003fae:	f894 2091 	ldrb.w	r2, [r4, #145]	; 0x91
      if (pcb->snd_wnd == 0) {
 8003fb2:	2b00      	cmp	r3, #0
 8003fb4:	f040 80f4 	bne.w	80041a0 <tcp_receive+0x254>
        if (pcb->persist_backoff == 0) {
 8003fb8:	b922      	cbnz	r2, 8003fc4 <tcp_receive+0x78>
          /* start persist timer */
          pcb->persist_cnt = 0;
 8003fba:	f884 e090 	strb.w	lr, [r4, #144]	; 0x90
          pcb->persist_backoff = 1;
 8003fbe:	2301      	movs	r3, #1
        }
      } else if (pcb->persist_backoff > 0) {
        /* stop persist timer */
          pcb->persist_backoff = 0;
 8003fc0:	f884 3091 	strb.w	r3, [r4, #145]	; 0x91
     * If it only passes 1, should reset dupack counter
     *
     */

    /* Clause 1 */
    if (TCP_SEQ_LEQ(ackno, pcb->lastack)) {
 8003fc4:	682a      	ldr	r2, [r5, #0]
 8003fc6:	f8d4 e048 	ldr.w	lr, [r4, #72]	; 0x48
 8003fca:	eba2 030e 	sub.w	r3, r2, lr
 8003fce:	2b00      	cmp	r3, #0
 8003fd0:	f300 80f1 	bgt.w	80041b6 <tcp_receive+0x26a>
      pcb->acked = 0;
 8003fd4:	2300      	movs	r3, #0
 8003fd6:	f8a4 3064 	strh.w	r3, [r4, #100]	; 0x64
      /* Clause 2 */
      if (tcplen == 0) {
 8003fda:	4b9c      	ldr	r3, [pc, #624]	; (800424c <tcp_receive+0x300>)
 8003fdc:	881b      	ldrh	r3, [r3, #0]
 8003fde:	2b00      	cmp	r3, #0
 8003fe0:	f040 8208 	bne.w	80043f4 <tcp_receive+0x4a8>
        /* Clause 3 */
        if (pcb->snd_wl2 + pcb->snd_wnd == right_wnd_edge){
 8003fe4:	f8b4 3060 	ldrh.w	r3, [r4, #96]	; 0x60
 8003fe8:	6da0      	ldr	r0, [r4, #88]	; 0x58
    right_wnd_edge = pcb->snd_wnd + pcb->snd_wl2;
 8003fea:	4439      	add	r1, r7
        if (pcb->snd_wl2 + pcb->snd_wnd == right_wnd_edge){
 8003fec:	4403      	add	r3, r0
 8003fee:	4299      	cmp	r1, r3
 8003ff0:	f040 8200 	bne.w	80043f4 <tcp_receive+0x4a8>
          /* Clause 4 */
          if (pcb->rtime >= 0) {
 8003ff4:	f9b4 3034 	ldrsh.w	r3, [r4, #52]	; 0x34
 8003ff8:	2b00      	cmp	r3, #0
 8003ffa:	f2c0 81fb 	blt.w	80043f4 <tcp_receive+0x4a8>
            /* Clause 5 */
            if (pcb->lastack == ackno) {
 8003ffe:	4572      	cmp	r2, lr
 8004000:	f040 81f8 	bne.w	80043f4 <tcp_receive+0x4a8>
              found_dupack = 1;
              if ((u8_t)(pcb->dupacks + 1) > pcb->dupacks) {
 8004004:	f894 2047 	ldrb.w	r2, [r4, #71]	; 0x47
 8004008:	1c53      	adds	r3, r2, #1
 800400a:	b2db      	uxtb	r3, r3
 800400c:	429a      	cmp	r2, r3
                ++pcb->dupacks;
 800400e:	bf38      	it	cc
 8004010:	f884 3047 	strbcc.w	r3, [r4, #71]	; 0x47
              }
              if (pcb->dupacks > 3) {
 8004014:	f894 3047 	ldrb.w	r3, [r4, #71]	; 0x47
 8004018:	2b03      	cmp	r3, #3
 800401a:	f240 80c6 	bls.w	80041aa <tcp_receive+0x25e>
                /* Inflate the congestion window, but not if it means that
                   the value overflows. */
                if ((u16_t)(pcb->cwnd + pcb->mss) > pcb->cwnd) {
 800401e:	f8b4 204c 	ldrh.w	r2, [r4, #76]	; 0x4c
 8004022:	8ee3      	ldrh	r3, [r4, #54]	; 0x36
 8004024:	4413      	add	r3, r2
 8004026:	b29b      	uxth	r3, r3
 8004028:	429a      	cmp	r2, r3
 800402a:	d201      	bcs.n	8004030 <tcp_receive+0xe4>
                  pcb->cwnd += pcb->mss;
 800402c:	f8a4 304c 	strh.w	r3, [r4, #76]	; 0x4c
       on the list are acknowledged by the ACK. This may seem
       strange since an "unsent" segment shouldn't be acked. The
       rationale is that lwIP puts all outstanding segments on the
       ->unsent list after a retransmission, so these segments may
       in fact have been sent once. */
    while (pcb->unsent != NULL &&
 8004030:	6ee3      	ldr	r3, [r4, #108]	; 0x6c
 8004032:	2b00      	cmp	r3, #0
 8004034:	f040 814f 	bne.w	80042d6 <tcp_receive+0x38a>
                                pcb->rttest, pcb->rtseq, ackno));

    /* RTT estimation calculations. This is done by checking if the
       incoming segment acknowledges the segment we use to take a
       round-trip time measurement. */
    if (pcb->rttest && TCP_SEQ_LT(pcb->rtseq, ackno)) {
 8004038:	6ba2      	ldr	r2, [r4, #56]	; 0x38
 800403a:	2a00      	cmp	r2, #0
 800403c:	f040 818d 	bne.w	800435a <tcp_receive+0x40e>

  /* If the incoming segment contains data, we must process it
     further unless the pcb already received a FIN.
     (RFC 793, chapeter 3.9, "SEGMENT ARRIVES" in states CLOSE-WAIT, CLOSING,
     LAST-ACK and TIME-WAIT: "Ignore the segment text.") */
  if ((tcplen > 0) && (pcb->state < CLOSE_WAIT)) {
 8004040:	4f82      	ldr	r7, [pc, #520]	; (800424c <tcp_receive+0x300>)
 8004042:	6aa2      	ldr	r2, [r4, #40]	; 0x28
 8004044:	8838      	ldrh	r0, [r7, #0]
 8004046:	2800      	cmp	r0, #0
 8004048:	f000 81c8 	beq.w	80043dc <tcp_receive+0x490>
 800404c:	7e23      	ldrb	r3, [r4, #24]
 800404e:	2b06      	cmp	r3, #6
 8004050:	f200 81c4 	bhi.w	80043dc <tcp_receive+0x490>
       this if the sequence number of the incoming segment is less
       than rcv_nxt, and the sequence number plus the length of the
       segment is larger than rcv_nxt. */
    /*    if (TCP_SEQ_LT(seqno, pcb->rcv_nxt)){
          if (TCP_SEQ_LT(pcb->rcv_nxt, seqno + tcplen)) {*/
    if (TCP_SEQ_BETWEEN(pcb->rcv_nxt, seqno + 1, seqno + tcplen - 1)){
 8004054:	6833      	ldr	r3, [r6, #0]
 8004056:	eba2 0e03 	sub.w	lr, r2, r3
 800405a:	f1be 0f01 	cmp.w	lr, #1
 800405e:	f100 81ab 	bmi.w	80043b8 <tcp_receive+0x46c>
 8004062:	f1c3 0101 	rsb	r1, r3, #1
 8004066:	1a09      	subs	r1, r1, r0
 8004068:	4411      	add	r1, r2
 800406a:	2900      	cmp	r1, #0
 800406c:	f300 81a4 	bgt.w	80043b8 <tcp_receive+0x46c>
         After we are done with adjusting the pbuf pointers we must
         adjust the ->data pointer in the seg and the segment
         length.*/

      off = pcb->rcv_nxt - seqno;
      p = inseg.p;
 8004070:	4d77      	ldr	r5, [pc, #476]	; (8004250 <tcp_receive+0x304>)
 8004072:	6868      	ldr	r0, [r5, #4]
      LWIP_ASSERT("inseg.p != NULL", inseg.p);
      LWIP_ASSERT("insane offset!", (off < 0x7fff));
      if (inseg.p->len < off) {
 8004074:	8943      	ldrh	r3, [r0, #10]
 8004076:	459e      	cmp	lr, r3
      off = pcb->rcv_nxt - seqno;
 8004078:	4671      	mov	r1, lr
      if (inseg.p->len < off) {
 800407a:	f340 819a 	ble.w	80043b2 <tcp_receive+0x466>
        LWIP_ASSERT("pbuf too short!", (((s32_t)inseg.p->tot_len) >= off));
        new_tot_len = (u16_t)(inseg.p->tot_len - off);
 800407e:	8903      	ldrh	r3, [r0, #8]
 8004080:	1a5b      	subs	r3, r3, r1
 8004082:	b29b      	uxth	r3, r3
          off -= p->len;
          /* KJM following line changed (with addition of new_tot_len var)
             to fix bug #9076
             inseg.p->tot_len -= p->len; */
          p->tot_len = new_tot_len;
          p->len = 0;
 8004084:	f04f 0e00 	mov.w	lr, #0
        while (p->len < off) {
 8004088:	8942      	ldrh	r2, [r0, #10]
 800408a:	4291      	cmp	r1, r2
 800408c:	f300 818b 	bgt.w	80043a6 <tcp_receive+0x45a>
          p = p->next;
        }
        if(pbuf_header(p, (s16_t)-off)) {
 8004090:	4249      	negs	r1, r1
          /* Do we need to cope with this failing?  Assert for now */
          LWIP_ASSERT("pbuf_header failed", 0);
        }
      } else {
        if(pbuf_header(inseg.p, (s16_t)-off)) {
 8004092:	b209      	sxth	r1, r1
 8004094:	f7ff f88e 	bl	80031b4 <pbuf_header>
          /* Do we need to cope with this failing?  Assert for now */
          LWIP_ASSERT("pbuf_header failed", 0);
        }
      }
      inseg.len -= (u16_t)(pcb->rcv_nxt - seqno);
 8004098:	6833      	ldr	r3, [r6, #0]
 800409a:	8929      	ldrh	r1, [r5, #8]
 800409c:	6aa2      	ldr	r2, [r4, #40]	; 0x28
      inseg.tcphdr->seqno = seqno = pcb->rcv_nxt;
 800409e:	6032      	str	r2, [r6, #0]
      inseg.len -= (u16_t)(pcb->rcv_nxt - seqno);
 80040a0:	440b      	add	r3, r1
 80040a2:	1a9b      	subs	r3, r3, r2
 80040a4:	812b      	strh	r3, [r5, #8]
      inseg.tcphdr->seqno = seqno = pcb->rcv_nxt;
 80040a6:	692b      	ldr	r3, [r5, #16]
 80040a8:	605a      	str	r2, [r3, #4]
    }

    /* The sequence number must be within the window (above rcv_nxt
       and below rcv_nxt + rcv_wnd) in order to be further
       processed. */
    if (TCP_SEQ_BETWEEN(seqno, pcb->rcv_nxt, 
 80040aa:	6831      	ldr	r1, [r6, #0]
 80040ac:	6aa2      	ldr	r2, [r4, #40]	; 0x28
 80040ae:	1a8b      	subs	r3, r1, r2
 80040b0:	2b00      	cmp	r3, #0
 80040b2:	f2c0 818e 	blt.w	80043d2 <tcp_receive+0x486>
 80040b6:	1c4b      	adds	r3, r1, #1
 80040b8:	8da0      	ldrh	r0, [r4, #44]	; 0x2c
 80040ba:	1a9b      	subs	r3, r3, r2
 80040bc:	1a1b      	subs	r3, r3, r0
 80040be:	2b00      	cmp	r3, #0
 80040c0:	f300 8187 	bgt.w	80043d2 <tcp_receive+0x486>
                        pcb->rcv_nxt + pcb->rcv_wnd - 1)){
      if (pcb->rcv_nxt == seqno) {
 80040c4:	4291      	cmp	r1, r2
 80040c6:	f040 8184 	bne.w	80043d2 <tcp_receive+0x486>
        /* The incoming segment is the next in sequence. We check if
           we have to trim the end of the segment and update rcv_nxt
           and pass the data to the application. */
        tcplen = TCP_TCPLEN(&inseg);
 80040ca:	4d61      	ldr	r5, [pc, #388]	; (8004250 <tcp_receive+0x304>)
 80040cc:	692b      	ldr	r3, [r5, #16]
 80040ce:	f8b5 8008 	ldrh.w	r8, [r5, #8]
 80040d2:	8998      	ldrh	r0, [r3, #12]
 80040d4:	f7fd fc0d 	bl	80018f2 <lwip_ntohs>
 80040d8:	f010 0003 	ands.w	r0, r0, #3
 80040dc:	bf18      	it	ne
 80040de:	2001      	movne	r0, #1
 80040e0:	4440      	add	r0, r8

        if (tcplen > pcb->rcv_wnd) {
 80040e2:	8da3      	ldrh	r3, [r4, #44]	; 0x2c
        tcplen = TCP_TCPLEN(&inseg);
 80040e4:	b280      	uxth	r0, r0
        if (tcplen > pcb->rcv_wnd) {
 80040e6:	4283      	cmp	r3, r0
        tcplen = TCP_TCPLEN(&inseg);
 80040e8:	8038      	strh	r0, [r7, #0]
        if (tcplen > pcb->rcv_wnd) {
 80040ea:	d234      	bcs.n	8004156 <tcp_receive+0x20a>
          LWIP_DEBUGF(TCP_INPUT_DEBUG, 
                      ("tcp_receive: other end overran receive window"
                       "seqno %"U32_F" len %"U16_F" right edge %"U32_F"\n",
                       seqno, tcplen, pcb->rcv_nxt + pcb->rcv_wnd));
          if (TCPH_FLAGS(inseg.tcphdr) & TCP_FIN) {
 80040ec:	692b      	ldr	r3, [r5, #16]
 80040ee:	8998      	ldrh	r0, [r3, #12]
 80040f0:	f7fd fbff 	bl	80018f2 <lwip_ntohs>
 80040f4:	07c3      	lsls	r3, r0, #31
 80040f6:	d510      	bpl.n	800411a <tcp_receive+0x1ce>
            /* Must remove the FIN from the header as we're trimming 
             * that byte of sequence-space from the packet */
            TCPH_FLAGS_SET(inseg.tcphdr, TCPH_FLAGS(inseg.tcphdr) &~ TCP_FIN);
 80040f8:	f8d5 9010 	ldr.w	r9, [r5, #16]
 80040fc:	f8b9 800c 	ldrh.w	r8, [r9, #12]
 8004100:	4640      	mov	r0, r8
 8004102:	f7fd fbf6 	bl	80018f2 <lwip_ntohs>
 8004106:	f000 003e 	and.w	r0, r0, #62	; 0x3e
 800410a:	f7fd fbef 	bl	80018ec <lwip_htons>
 800410e:	f428 587c 	bic.w	r8, r8, #16128	; 0x3f00
 8004112:	ea48 0800 	orr.w	r8, r8, r0
 8004116:	f8a9 800c 	strh.w	r8, [r9, #12]
          }
          /* Adjust length of segment to fit in the window. */
          inseg.len = pcb->rcv_wnd;
 800411a:	8da3      	ldrh	r3, [r4, #44]	; 0x2c
 800411c:	812b      	strh	r3, [r5, #8]
          if (TCPH_FLAGS(inseg.tcphdr) & TCP_SYN) {
 800411e:	692b      	ldr	r3, [r5, #16]
 8004120:	8998      	ldrh	r0, [r3, #12]
 8004122:	f7fd fbe6 	bl	80018f2 <lwip_ntohs>
 8004126:	0780      	lsls	r0, r0, #30
            inseg.len -= 1;
 8004128:	bf48      	it	mi
 800412a:	892b      	ldrhmi	r3, [r5, #8]
          }
          pbuf_realloc(inseg.p, inseg.len);
 800412c:	6868      	ldr	r0, [r5, #4]
            inseg.len -= 1;
 800412e:	bf44      	itt	mi
 8004130:	f103 33ff 	addmi.w	r3, r3, #4294967295
 8004134:	812b      	strhmi	r3, [r5, #8]
          pbuf_realloc(inseg.p, inseg.len);
 8004136:	8929      	ldrh	r1, [r5, #8]
 8004138:	f7ff f911 	bl	800335e <pbuf_realloc>
          tcplen = TCP_TCPLEN(&inseg);
 800413c:	692b      	ldr	r3, [r5, #16]
 800413e:	f8b5 8008 	ldrh.w	r8, [r5, #8]
 8004142:	8998      	ldrh	r0, [r3, #12]
 8004144:	f7fd fbd5 	bl	80018f2 <lwip_ntohs>
 8004148:	f010 0003 	ands.w	r0, r0, #3
 800414c:	bf18      	it	ne
 800414e:	2001      	movne	r0, #1
 8004150:	4480      	add	r8, r0
 8004152:	f8a7 8000 	strh.w	r8, [r7]
            pcb->ooseq = next;
          }
        }
#endif /* TCP_QUEUE_OOSEQ */

        pcb->rcv_nxt = seqno + tcplen;
 8004156:	8839      	ldrh	r1, [r7, #0]

        /* Update the receiver's (our) window. */
        LWIP_ASSERT("tcp_receive: tcplen > rcv_wnd\n", pcb->rcv_wnd >= tcplen);
        pcb->rcv_wnd -= tcplen;
 8004158:	8da3      	ldrh	r3, [r4, #44]	; 0x2c
        pcb->rcv_nxt = seqno + tcplen;
 800415a:	6832      	ldr	r2, [r6, #0]
        pcb->rcv_wnd -= tcplen;
 800415c:	1a5b      	subs	r3, r3, r1
        pcb->rcv_nxt = seqno + tcplen;
 800415e:	440a      	add	r2, r1
 8004160:	62a2      	str	r2, [r4, #40]	; 0x28
        pcb->rcv_wnd -= tcplen;
 8004162:	85a3      	strh	r3, [r4, #44]	; 0x2c

        tcp_update_rcv_ann_wnd(pcb);
 8004164:	4620      	mov	r0, r4
 8004166:	f7ff fab7 	bl	80036d8 <tcp_update_rcv_ann_wnd>
           chains its data on this pbuf as well.

           If the segment was a FIN, we set the TF_GOT_FIN flag that will
           be used to indicate to the application that the remote side has
           closed its end of the connection. */
        if (inseg.p->tot_len > 0) {
 800416a:	686b      	ldr	r3, [r5, #4]
 800416c:	891a      	ldrh	r2, [r3, #8]
 800416e:	b11a      	cbz	r2, 8004178 <tcp_receive+0x22c>
          recv_data = inseg.p;
 8004170:	4a38      	ldr	r2, [pc, #224]	; (8004254 <tcp_receive+0x308>)
 8004172:	6013      	str	r3, [r2, #0]
          /* Since this pbuf now is the responsibility of the
             application, we delete our reference to it so that we won't
             (mistakingly) deallocate it. */
          inseg.p = NULL;
 8004174:	2300      	movs	r3, #0
 8004176:	606b      	str	r3, [r5, #4]
        }
        if (TCPH_FLAGS(inseg.tcphdr) & TCP_FIN) {
 8004178:	692b      	ldr	r3, [r5, #16]
 800417a:	8998      	ldrh	r0, [r3, #12]
 800417c:	f7fd fbb9 	bl	80018f2 <lwip_ntohs>
 8004180:	07c1      	lsls	r1, r0, #31
          LWIP_DEBUGF(TCP_INPUT_DEBUG, ("tcp_receive: received FIN.\n"));
          recv_flags |= TF_GOT_FIN;
 8004182:	bf41      	itttt	mi
 8004184:	4a34      	ldrmi	r2, [pc, #208]	; (8004258 <tcp_receive+0x30c>)
 8004186:	7813      	ldrbmi	r3, [r2, #0]
 8004188:	f043 0320 	orrmi.w	r3, r3, #32
 800418c:	7013      	strbmi	r3, [r2, #0]
        }
#endif /* TCP_QUEUE_OOSEQ */


        /* Acknowledge the segment(s). */
        tcp_ack(pcb);
 800418e:	7fa3      	ldrb	r3, [r4, #30]
 8004190:	07da      	lsls	r2, r3, #31
 8004192:	f140 8119 	bpl.w	80043c8 <tcp_receive+0x47c>
 8004196:	f023 0301 	bic.w	r3, r3, #1
    /* Segments with length 0 is taken care of here. Segments that
       fall out of the window are ACKed. */
    /*if (TCP_SEQ_GT(pcb->rcv_nxt, seqno) ||
      TCP_SEQ_GEQ(seqno, pcb->rcv_nxt + pcb->rcv_wnd)) {*/
    if(!TCP_SEQ_BETWEEN(seqno, pcb->rcv_nxt, pcb->rcv_nxt + pcb->rcv_wnd-1)){
      tcp_ack_now(pcb);
 800419a:	f043 0302 	orr.w	r3, r3, #2
 800419e:	e115      	b.n	80043cc <tcp_receive+0x480>
      } else if (pcb->persist_backoff > 0) {
 80041a0:	2a00      	cmp	r2, #0
 80041a2:	f43f af0f 	beq.w	8003fc4 <tcp_receive+0x78>
          pcb->persist_backoff = 0;
 80041a6:	2300      	movs	r3, #0
 80041a8:	e70a      	b.n	8003fc0 <tcp_receive+0x74>
              } else if (pcb->dupacks == 3) {
 80041aa:	f47f af41 	bne.w	8004030 <tcp_receive+0xe4>
                tcp_rexmit_fast(pcb);
 80041ae:	4620      	mov	r0, r4
 80041b0:	f001 fa31 	bl	8005616 <tcp_rexmit_fast>
 80041b4:	e73c      	b.n	8004030 <tcp_receive+0xe4>
    } else if (TCP_SEQ_BETWEEN(ackno, pcb->lastack+1, pcb->snd_nxt)){
 80041b6:	6d21      	ldr	r1, [r4, #80]	; 0x50
 80041b8:	1a51      	subs	r1, r2, r1
 80041ba:	2900      	cmp	r1, #0
 80041bc:	f300 8087 	bgt.w	80042ce <tcp_receive+0x382>
      if (pcb->flags & TF_INFR) {
 80041c0:	7fa1      	ldrb	r1, [r4, #30]
      pcb->rto = (pcb->sa >> 3) + pcb->sv;
 80041c2:	f9b4 e040 	ldrsh.w	lr, [r4, #64]	; 0x40
      pcb->lastack = ackno;
 80041c6:	64a2      	str	r2, [r4, #72]	; 0x48
      if (pcb->flags & TF_INFR) {
 80041c8:	074f      	lsls	r7, r1, #29
        pcb->flags &= ~TF_INFR;
 80041ca:	bf41      	itttt	mi
 80041cc:	f021 0104 	bicmi.w	r1, r1, #4
 80041d0:	77a1      	strbmi	r1, [r4, #30]
        pcb->cwnd = pcb->ssthresh;
 80041d2:	f8b4 104e 	ldrhmi.w	r1, [r4, #78]	; 0x4e
 80041d6:	f8a4 104c 	strhmi.w	r1, [r4, #76]	; 0x4c
      pcb->rto = (pcb->sa >> 3) + pcb->sv;
 80041da:	f8b4 1042 	ldrh.w	r1, [r4, #66]	; 0x42
 80041de:	eb01 01ee 	add.w	r1, r1, lr, asr #3
 80041e2:	f8a4 1044 	strh.w	r1, [r4, #68]	; 0x44
      pcb->snd_buf += pcb->acked;
 80041e6:	f8b4 1066 	ldrh.w	r1, [r4, #102]	; 0x66
      pcb->acked = (u16_t)(ackno - pcb->lastack);
 80041ea:	b29b      	uxth	r3, r3
      pcb->nrtx = 0;
 80041ec:	2700      	movs	r7, #0
      pcb->acked = (u16_t)(ackno - pcb->lastack);
 80041ee:	f8a4 3064 	strh.w	r3, [r4, #100]	; 0x64
      if (pcb->state >= ESTABLISHED) {
 80041f2:	2803      	cmp	r0, #3
      pcb->snd_buf += pcb->acked;
 80041f4:	440b      	add	r3, r1
      pcb->nrtx = 0;
 80041f6:	f884 7046 	strb.w	r7, [r4, #70]	; 0x46
      pcb->snd_buf += pcb->acked;
 80041fa:	f8a4 3066 	strh.w	r3, [r4, #102]	; 0x66
      pcb->dupacks = 0;
 80041fe:	f884 7047 	strb.w	r7, [r4, #71]	; 0x47
      if (pcb->state >= ESTABLISHED) {
 8004202:	d90f      	bls.n	8004224 <tcp_receive+0x2d8>
        if (pcb->cwnd < pcb->ssthresh) {
 8004204:	f8b4 204c 	ldrh.w	r2, [r4, #76]	; 0x4c
 8004208:	f8b4 304e 	ldrh.w	r3, [r4, #78]	; 0x4e
 800420c:	4293      	cmp	r3, r2
          if ((u16_t)(pcb->cwnd + pcb->mss) > pcb->cwnd) {
 800420e:	8ee3      	ldrh	r3, [r4, #54]	; 0x36
          u16_t new_cwnd = (pcb->cwnd + pcb->mss * pcb->mss / pcb->cwnd);
 8004210:	bf9c      	itt	ls
 8004212:	435b      	mulls	r3, r3
 8004214:	fb93 f3f2 	sdivls	r3, r3, r2
 8004218:	4413      	add	r3, r2
 800421a:	b29b      	uxth	r3, r3
          if (new_cwnd > pcb->cwnd) {
 800421c:	429a      	cmp	r2, r3
 800421e:	d201      	bcs.n	8004224 <tcp_receive+0x2d8>
            pcb->cwnd = new_cwnd;
 8004220:	f8a4 304c 	strh.w	r3, [r4, #76]	; 0x4c
      while (pcb->unacked != NULL &&
 8004224:	6f23      	ldr	r3, [r4, #112]	; 0x70
 8004226:	b9cb      	cbnz	r3, 800425c <tcp_receive+0x310>
      if(pcb->unacked == NULL)
 8004228:	6f22      	ldr	r2, [r4, #112]	; 0x70
 800422a:	2300      	movs	r3, #0
 800422c:	2a00      	cmp	r2, #0
 800422e:	d14c      	bne.n	80042ca <tcp_receive+0x37e>
        pcb->rtime = -1;
 8004230:	f64f 72ff 	movw	r2, #65535	; 0xffff
 8004234:	86a2      	strh	r2, [r4, #52]	; 0x34
      pcb->polltmr = 0;
 8004236:	77e3      	strb	r3, [r4, #31]
 8004238:	e6fa      	b.n	8004030 <tcp_receive+0xe4>
 800423a:	bf00      	nop
 800423c:	2000251c 	.word	0x2000251c
 8004240:	2000253c 	.word	0x2000253c
 8004244:	20002518 	.word	0x20002518
 8004248:	20002540 	.word	0x20002540
 800424c:	20002544 	.word	0x20002544
 8004250:	20002520 	.word	0x20002520
 8004254:	20002534 	.word	0x20002534
 8004258:	20002538 	.word	0x20002538
             TCP_SEQ_LEQ(ntohl(pcb->unacked->tcphdr->seqno) +
 800425c:	691b      	ldr	r3, [r3, #16]
 800425e:	6858      	ldr	r0, [r3, #4]
 8004260:	f7fd fb4c 	bl	80018fc <lwip_ntohl>
 8004264:	6f23      	ldr	r3, [r4, #112]	; 0x70
 8004266:	f8b3 8008 	ldrh.w	r8, [r3, #8]
 800426a:	691b      	ldr	r3, [r3, #16]
 800426c:	4607      	mov	r7, r0
 800426e:	8998      	ldrh	r0, [r3, #12]
 8004270:	f7fd fb3f 	bl	80018f2 <lwip_ntohs>
 8004274:	682b      	ldr	r3, [r5, #0]
 8004276:	f010 0003 	ands.w	r0, r0, #3
 800427a:	bf18      	it	ne
 800427c:	2001      	movne	r0, #1
 800427e:	4440      	add	r0, r8
 8004280:	1aff      	subs	r7, r7, r3
 8004282:	4438      	add	r0, r7
      while (pcb->unacked != NULL &&
 8004284:	2800      	cmp	r0, #0
 8004286:	dccf      	bgt.n	8004228 <tcp_receive+0x2dc>
        next = pcb->unacked;
 8004288:	6f27      	ldr	r7, [r4, #112]	; 0x70
        pcb->unacked = pcb->unacked->next;
 800428a:	683b      	ldr	r3, [r7, #0]
 800428c:	6723      	str	r3, [r4, #112]	; 0x70
        LWIP_ASSERT("pcb->snd_queuelen >= pbuf_clen(next->p)", (pcb->snd_queuelen >= pbuf_clen(next->p)));
 800428e:	6878      	ldr	r0, [r7, #4]
 8004290:	f7ff f88b 	bl	80033aa <pbuf_clen>
        if ((pcb->acked != 0) && ((TCPH_FLAGS(next->tcphdr) & TCP_FIN) != 0)) {
 8004294:	f8b4 3064 	ldrh.w	r3, [r4, #100]	; 0x64
 8004298:	b15b      	cbz	r3, 80042b2 <tcp_receive+0x366>
 800429a:	693b      	ldr	r3, [r7, #16]
 800429c:	8998      	ldrh	r0, [r3, #12]
 800429e:	f7fd fb28 	bl	80018f2 <lwip_ntohs>
 80042a2:	07c1      	lsls	r1, r0, #31
          pcb->acked--;
 80042a4:	bf42      	ittt	mi
 80042a6:	f8b4 3064 	ldrhmi.w	r3, [r4, #100]	; 0x64
 80042aa:	f103 33ff 	addmi.w	r3, r3, #4294967295
 80042ae:	f8a4 3064 	strhmi.w	r3, [r4, #100]	; 0x64
        pcb->snd_queuelen -= pbuf_clen(next->p);
 80042b2:	6878      	ldr	r0, [r7, #4]
 80042b4:	f7ff f879 	bl	80033aa <pbuf_clen>
 80042b8:	f8b4 3068 	ldrh.w	r3, [r4, #104]	; 0x68
 80042bc:	1a18      	subs	r0, r3, r0
 80042be:	f8a4 0068 	strh.w	r0, [r4, #104]	; 0x68
        tcp_seg_free(next);
 80042c2:	4638      	mov	r0, r7
 80042c4:	f7ff fa3e 	bl	8003744 <tcp_seg_free>
 80042c8:	e7ac      	b.n	8004224 <tcp_receive+0x2d8>
        pcb->rtime = 0;
 80042ca:	86a3      	strh	r3, [r4, #52]	; 0x34
 80042cc:	e7b3      	b.n	8004236 <tcp_receive+0x2ea>
      pcb->acked = 0;
 80042ce:	2300      	movs	r3, #0
 80042d0:	f8a4 3064 	strh.w	r3, [r4, #100]	; 0x64
 80042d4:	e6ac      	b.n	8004030 <tcp_receive+0xe4>
           TCP_SEQ_BETWEEN(ackno, ntohl(pcb->unsent->tcphdr->seqno) + 
 80042d6:	691b      	ldr	r3, [r3, #16]
 80042d8:	682f      	ldr	r7, [r5, #0]
 80042da:	6858      	ldr	r0, [r3, #4]
 80042dc:	f7fd fb0e 	bl	80018fc <lwip_ntohl>
 80042e0:	6ee3      	ldr	r3, [r4, #108]	; 0x6c
 80042e2:	f8b3 8008 	ldrh.w	r8, [r3, #8]
 80042e6:	691b      	ldr	r3, [r3, #16]
 80042e8:	4681      	mov	r9, r0
 80042ea:	8998      	ldrh	r0, [r3, #12]
 80042ec:	f7fd fb01 	bl	80018f2 <lwip_ntohs>
 80042f0:	f010 0003 	ands.w	r0, r0, #3
 80042f4:	bf18      	it	ne
 80042f6:	2001      	movne	r0, #1
 80042f8:	eba7 0709 	sub.w	r7, r7, r9
 80042fc:	4440      	add	r0, r8
 80042fe:	1a3f      	subs	r7, r7, r0
    while (pcb->unsent != NULL &&
 8004300:	2f00      	cmp	r7, #0
 8004302:	f6ff ae99 	blt.w	8004038 <tcp_receive+0xec>
           TCP_SEQ_BETWEEN(ackno, ntohl(pcb->unsent->tcphdr->seqno) + 
 8004306:	682b      	ldr	r3, [r5, #0]
 8004308:	6d22      	ldr	r2, [r4, #80]	; 0x50
 800430a:	1a9b      	subs	r3, r3, r2
 800430c:	2b00      	cmp	r3, #0
 800430e:	f73f ae93 	bgt.w	8004038 <tcp_receive+0xec>
      next = pcb->unsent;
 8004312:	6ee7      	ldr	r7, [r4, #108]	; 0x6c
      pcb->unsent = pcb->unsent->next;
 8004314:	683b      	ldr	r3, [r7, #0]
 8004316:	66e3      	str	r3, [r4, #108]	; 0x6c
      if (pcb->unsent == NULL) {
 8004318:	b90b      	cbnz	r3, 800431e <tcp_receive+0x3d2>
        pcb->unsent_oversize = 0;
 800431a:	f8a4 306a 	strh.w	r3, [r4, #106]	; 0x6a
      LWIP_ASSERT("pcb->snd_queuelen >= pbuf_clen(next->p)", (pcb->snd_queuelen >= pbuf_clen(next->p)));
 800431e:	6878      	ldr	r0, [r7, #4]
 8004320:	f7ff f843 	bl	80033aa <pbuf_clen>
      if ((pcb->acked != 0) && ((TCPH_FLAGS(next->tcphdr) & TCP_FIN) != 0)) {
 8004324:	f8b4 3064 	ldrh.w	r3, [r4, #100]	; 0x64
 8004328:	b15b      	cbz	r3, 8004342 <tcp_receive+0x3f6>
 800432a:	693b      	ldr	r3, [r7, #16]
 800432c:	8998      	ldrh	r0, [r3, #12]
 800432e:	f7fd fae0 	bl	80018f2 <lwip_ntohs>
 8004332:	07c2      	lsls	r2, r0, #31
        pcb->acked--;
 8004334:	bf42      	ittt	mi
 8004336:	f8b4 3064 	ldrhmi.w	r3, [r4, #100]	; 0x64
 800433a:	f103 33ff 	addmi.w	r3, r3, #4294967295
 800433e:	f8a4 3064 	strhmi.w	r3, [r4, #100]	; 0x64
      pcb->snd_queuelen -= pbuf_clen(next->p);
 8004342:	6878      	ldr	r0, [r7, #4]
 8004344:	f7ff f831 	bl	80033aa <pbuf_clen>
 8004348:	f8b4 3068 	ldrh.w	r3, [r4, #104]	; 0x68
 800434c:	1a18      	subs	r0, r3, r0
 800434e:	f8a4 0068 	strh.w	r0, [r4, #104]	; 0x68
      tcp_seg_free(next);
 8004352:	4638      	mov	r0, r7
 8004354:	f7ff f9f6 	bl	8003744 <tcp_seg_free>
 8004358:	e66a      	b.n	8004030 <tcp_receive+0xe4>
    if (pcb->rttest && TCP_SEQ_LT(pcb->rtseq, ackno)) {
 800435a:	6be3      	ldr	r3, [r4, #60]	; 0x3c
 800435c:	6829      	ldr	r1, [r5, #0]
 800435e:	1a5b      	subs	r3, r3, r1
 8004360:	2b00      	cmp	r3, #0
 8004362:	f6bf ae6d 	bge.w	8004040 <tcp_receive+0xf4>
      m = (s16_t)(tcp_ticks - pcb->rttest);
 8004366:	4b26      	ldr	r3, [pc, #152]	; (8004400 <tcp_receive+0x4b4>)
      m = m - (pcb->sa >> 3);
 8004368:	f9b4 0040 	ldrsh.w	r0, [r4, #64]	; 0x40
      m = (s16_t)(tcp_ticks - pcb->rttest);
 800436c:	6819      	ldr	r1, [r3, #0]
 800436e:	1a89      	subs	r1, r1, r2
      m = m - (pcb->sa >> 3);
 8004370:	eba1 01e0 	sub.w	r1, r1, r0, asr #3
 8004374:	b289      	uxth	r1, r1
 8004376:	b20b      	sxth	r3, r1
      if (m < 0) {
 8004378:	2b00      	cmp	r3, #0
      m = m - (pcb->sv >> 2);
 800437a:	f9b4 2042 	ldrsh.w	r2, [r4, #66]	; 0x42
      pcb->sa += m;
 800437e:	4408      	add	r0, r1
        m = -m;
 8004380:	bfbc      	itt	lt
 8004382:	4249      	neglt	r1, r1
 8004384:	b20b      	sxthlt	r3, r1
      pcb->sv += m;
 8004386:	eba2 02a2 	sub.w	r2, r2, r2, asr #2
 800438a:	4413      	add	r3, r2
      pcb->sa += m;
 800438c:	b200      	sxth	r0, r0
      pcb->sv += m;
 800438e:	b29b      	uxth	r3, r3
 8004390:	f8a4 3042 	strh.w	r3, [r4, #66]	; 0x42
      pcb->rto = (pcb->sa >> 3) + pcb->sv;
 8004394:	eb03 03e0 	add.w	r3, r3, r0, asr #3
 8004398:	f8a4 3044 	strh.w	r3, [r4, #68]	; 0x44
      pcb->rttest = 0;
 800439c:	2300      	movs	r3, #0
      pcb->sa += m;
 800439e:	f8a4 0040 	strh.w	r0, [r4, #64]	; 0x40
      pcb->rttest = 0;
 80043a2:	63a3      	str	r3, [r4, #56]	; 0x38
 80043a4:	e64c      	b.n	8004040 <tcp_receive+0xf4>
          p->tot_len = new_tot_len;
 80043a6:	8103      	strh	r3, [r0, #8]
          p->len = 0;
 80043a8:	f8a0 e00a 	strh.w	lr, [r0, #10]
          off -= p->len;
 80043ac:	1a89      	subs	r1, r1, r2
          p = p->next;
 80043ae:	6800      	ldr	r0, [r0, #0]
 80043b0:	e66a      	b.n	8004088 <tcp_receive+0x13c>
        if(pbuf_header(inseg.p, (s16_t)-off)) {
 80043b2:	f1ce 0100 	rsb	r1, lr, #0
 80043b6:	e66c      	b.n	8004092 <tcp_receive+0x146>
      if (TCP_SEQ_LT(seqno, pcb->rcv_nxt)){
 80043b8:	1a9b      	subs	r3, r3, r2
 80043ba:	2b00      	cmp	r3, #0
        tcp_ack_now(pcb);
 80043bc:	bfbe      	ittt	lt
 80043be:	7fa3      	ldrblt	r3, [r4, #30]
 80043c0:	f043 0302 	orrlt.w	r3, r3, #2
 80043c4:	77a3      	strblt	r3, [r4, #30]
 80043c6:	e670      	b.n	80040aa <tcp_receive+0x15e>
        tcp_ack(pcb);
 80043c8:	f043 0301 	orr.w	r3, r3, #1
      tcp_ack_now(pcb);
 80043cc:	77a3      	strb	r3, [r4, #30]
    }
  }
}
 80043ce:	e8bd 83f8 	ldmia.w	sp!, {r3, r4, r5, r6, r7, r8, r9, pc}
        tcp_send_empty_ack(pcb);
 80043d2:	4620      	mov	r0, r4
}
 80043d4:	e8bd 43f8 	ldmia.w	sp!, {r3, r4, r5, r6, r7, r8, r9, lr}
        tcp_send_empty_ack(pcb);
 80043d8:	f000 bf29 	b.w	800522e <tcp_send_empty_ack>
    if(!TCP_SEQ_BETWEEN(seqno, pcb->rcv_nxt, pcb->rcv_nxt + pcb->rcv_wnd-1)){
 80043dc:	6833      	ldr	r3, [r6, #0]
 80043de:	1a99      	subs	r1, r3, r2
 80043e0:	2900      	cmp	r1, #0
 80043e2:	db05      	blt.n	80043f0 <tcp_receive+0x4a4>
 80043e4:	3301      	adds	r3, #1
 80043e6:	1a9b      	subs	r3, r3, r2
 80043e8:	8da2      	ldrh	r2, [r4, #44]	; 0x2c
 80043ea:	1a9b      	subs	r3, r3, r2
 80043ec:	2b00      	cmp	r3, #0
 80043ee:	dd05      	ble.n	80043fc <tcp_receive+0x4b0>
      tcp_ack_now(pcb);
 80043f0:	7fa3      	ldrb	r3, [r4, #30]
 80043f2:	e6d2      	b.n	800419a <tcp_receive+0x24e>
        pcb->dupacks = 0;
 80043f4:	2300      	movs	r3, #0
 80043f6:	f884 3047 	strb.w	r3, [r4, #71]	; 0x47
 80043fa:	e619      	b.n	8004030 <tcp_receive+0xe4>
 80043fc:	e8bd 83f8 	ldmia.w	sp!, {r3, r4, r5, r6, r7, r8, r9, pc}
 8004400:	20004e60 	.word	0x20004e60

08004404 <tcp_parseopt.isra.0>:
 * Currently, only the MSS option is supported!
 *
 * @param pcb the tcp_pcb for which a segment arrived
 */
static void
tcp_parseopt(struct tcp_pcb *pcb)
 8004404:	b5f8      	push	{r3, r4, r5, r6, r7, lr}
  u8_t *opts, opt;
#if LWIP_TCP_TIMESTAMPS
  u32_t tsval;
#endif

  opts = (u8_t *)tcphdr + TCP_HLEN;
 8004406:	4e1f      	ldr	r6, [pc, #124]	; (8004484 <tcp_parseopt.isra.0+0x80>)
 8004408:	6835      	ldr	r5, [r6, #0]
tcp_parseopt(struct tcp_pcb *pcb)
 800440a:	4604      	mov	r4, r0

  /* Parse the TCP MSS option, if present. */
  if(TCPH_HDRLEN(tcphdr) > 0x5) {
 800440c:	89a8      	ldrh	r0, [r5, #12]
 800440e:	f7fd fa70 	bl	80018f2 <lwip_ntohs>
 8004412:	f3c0 300f 	ubfx	r0, r0, #12, #16
 8004416:	2805      	cmp	r0, #5
 8004418:	d90f      	bls.n	800443a <tcp_parseopt.isra.0+0x36>
    max_c = (TCPH_HDRLEN(tcphdr) - 5) << 2;
 800441a:	6833      	ldr	r3, [r6, #0]
 800441c:	8998      	ldrh	r0, [r3, #12]
 800441e:	f7fd fa68 	bl	80018f2 <lwip_ntohs>
 8004422:	0b00      	lsrs	r0, r0, #12
 8004424:	3805      	subs	r0, #5
 8004426:	0080      	lsls	r0, r0, #2
  opts = (u8_t *)tcphdr + TCP_HLEN;
 8004428:	3514      	adds	r5, #20
    max_c = (TCPH_HDRLEN(tcphdr) - 5) << 2;
 800442a:	b280      	uxth	r0, r0
    for (c = 0; c < max_c; ) {
 800442c:	2300      	movs	r3, #0
          return;
        }
        /* An MSS option with the right option length. */
        mss = (opts[c + 2] << 8) | opts[c + 3];
        /* Limit the mss to the configured TCP_MSS and prevent division by zero */
        pcb->mss = ((mss > TCP_MSS) || (mss == 0)) ? TCP_MSS : mss;
 800442e:	f240 56b3 	movw	r6, #1459	; 0x5b3
 8004432:	f240 57b4 	movw	r7, #1460	; 0x5b4
    for (c = 0; c < max_c; ) {
 8004436:	4298      	cmp	r0, r3
 8004438:	d800      	bhi.n	800443c <tcp_parseopt.isra.0+0x38>
 800443a:	bdf8      	pop	{r3, r4, r5, r6, r7, pc}
      switch (opt) {
 800443c:	5cea      	ldrb	r2, [r5, r3]
 800443e:	2a01      	cmp	r2, #1
 8004440:	d009      	beq.n	8004456 <tcp_parseopt.isra.0+0x52>
 8004442:	d3fa      	bcc.n	800443a <tcp_parseopt.isra.0+0x36>
 8004444:	2a02      	cmp	r2, #2
 8004446:	eb05 0103 	add.w	r1, r5, r3
 800444a:	d007      	beq.n	800445c <tcp_parseopt.isra.0+0x58>
        c += 0x0A;
        break;
#endif
      default:
        LWIP_DEBUGF(TCP_INPUT_DEBUG, ("tcp_parseopt: other\n"));
        if (opts[c + 1] == 0) {
 800444c:	784a      	ldrb	r2, [r1, #1]
 800444e:	2a00      	cmp	r2, #0
 8004450:	d0f3      	beq.n	800443a <tcp_parseopt.isra.0+0x36>
             and we don't process them further. */
          return;
        }
        /* All other options have a length field, so that we easily
           can skip past them. */
        c += opts[c + 1];
 8004452:	4413      	add	r3, r2
 8004454:	e000      	b.n	8004458 <tcp_parseopt.isra.0+0x54>
        ++c;
 8004456:	3301      	adds	r3, #1
        c += opts[c + 1];
 8004458:	b29b      	uxth	r3, r3
 800445a:	e7ec      	b.n	8004436 <tcp_parseopt.isra.0+0x32>
        if (opts[c + 1] != 0x04 || c + 0x04 > max_c) {
 800445c:	784a      	ldrb	r2, [r1, #1]
 800445e:	2a04      	cmp	r2, #4
 8004460:	d1eb      	bne.n	800443a <tcp_parseopt.isra.0+0x36>
 8004462:	1cda      	adds	r2, r3, #3
 8004464:	4282      	cmp	r2, r0
 8004466:	dae8      	bge.n	800443a <tcp_parseopt.isra.0+0x36>
        mss = (opts[c + 2] << 8) | opts[c + 3];
 8004468:	f891 e002 	ldrb.w	lr, [r1, #2]
 800446c:	78ca      	ldrb	r2, [r1, #3]
 800446e:	ea42 220e 	orr.w	r2, r2, lr, lsl #8
        pcb->mss = ((mss > TCP_MSS) || (mss == 0)) ? TCP_MSS : mss;
 8004472:	1e51      	subs	r1, r2, #1
 8004474:	b289      	uxth	r1, r1
 8004476:	42b1      	cmp	r1, r6
 8004478:	bf88      	it	hi
 800447a:	463a      	movhi	r2, r7
 800447c:	8022      	strh	r2, [r4, #0]
        c += 0x04;
 800447e:	3304      	adds	r3, #4
 8004480:	e7ea      	b.n	8004458 <tcp_parseopt.isra.0+0x54>
 8004482:	bf00      	nop
 8004484:	20002540 	.word	0x20002540

08004488 <tcp_input>:
{
 8004488:	e92d 4ff0 	stmdb	sp!, {r4, r5, r6, r7, r8, r9, sl, fp, lr}
  iphdr = (struct ip_hdr *)p->payload;
 800448c:	6843      	ldr	r3, [r0, #4]
  tcphdr = (struct tcp_hdr *)((u8_t *)p->payload + IPH_HL(iphdr) * 4);
 800448e:	4da1      	ldr	r5, [pc, #644]	; (8004714 <tcp_input+0x28c>)
{
 8004490:	460f      	mov	r7, r1
 8004492:	7819      	ldrb	r1, [r3, #0]
 8004494:	f001 010f 	and.w	r1, r1, #15
  tcphdr = (struct tcp_hdr *)((u8_t *)p->payload + IPH_HL(iphdr) * 4);
 8004498:	eb03 0381 	add.w	r3, r3, r1, lsl #2
  if (pbuf_header(p, -((s16_t)(IPH_HL(iphdr) * 4))) || (p->tot_len < sizeof(struct tcp_hdr))) {
 800449c:	0089      	lsls	r1, r1, #2
{
 800449e:	b089      	sub	sp, #36	; 0x24
  if (pbuf_header(p, -((s16_t)(IPH_HL(iphdr) * 4))) || (p->tot_len < sizeof(struct tcp_hdr))) {
 80044a0:	4249      	negs	r1, r1
{
 80044a2:	4606      	mov	r6, r0
  tcphdr = (struct tcp_hdr *)((u8_t *)p->payload + IPH_HL(iphdr) * 4);
 80044a4:	602b      	str	r3, [r5, #0]
  if (pbuf_header(p, -((s16_t)(IPH_HL(iphdr) * 4))) || (p->tot_len < sizeof(struct tcp_hdr))) {
 80044a6:	f7fe fe85 	bl	80031b4 <pbuf_header>
 80044aa:	2800      	cmp	r0, #0
 80044ac:	f040 80fb 	bne.w	80046a6 <tcp_input+0x21e>
 80044b0:	8933      	ldrh	r3, [r6, #8]
 80044b2:	2b13      	cmp	r3, #19
 80044b4:	f240 80f7 	bls.w	80046a6 <tcp_input+0x21e>
  if (ip_addr_isbroadcast(&current_iphdr_dest, inp) ||
 80044b8:	4c97      	ldr	r4, [pc, #604]	; (8004718 <tcp_input+0x290>)
 80044ba:	4639      	mov	r1, r7
 80044bc:	6820      	ldr	r0, [r4, #0]
 80044be:	f7fe f963 	bl	8002788 <ip4_addr_isbroadcast>
 80044c2:	46a0      	mov	r8, r4
 80044c4:	2800      	cmp	r0, #0
 80044c6:	f040 80ee 	bne.w	80046a6 <tcp_input+0x21e>
      ip_addr_ismulticast(&current_iphdr_dest)) {
 80044ca:	6823      	ldr	r3, [r4, #0]
 80044cc:	f003 03f0 	and.w	r3, r3, #240	; 0xf0
  if (ip_addr_isbroadcast(&current_iphdr_dest, inp) ||
 80044d0:	2be0      	cmp	r3, #224	; 0xe0
 80044d2:	f000 80e8 	beq.w	80046a6 <tcp_input+0x21e>
  if (inet_chksum_pseudo(p, ip_current_src_addr(), ip_current_dest_addr(),
 80044d6:	4c91      	ldr	r4, [pc, #580]	; (800471c <tcp_input+0x294>)
 80044d8:	8933      	ldrh	r3, [r6, #8]
 80044da:	9300      	str	r3, [sp, #0]
 80044dc:	4642      	mov	r2, r8
 80044de:	2306      	movs	r3, #6
 80044e0:	4621      	mov	r1, r4
 80044e2:	4630      	mov	r0, r6
 80044e4:	f7fd ff70 	bl	80023c8 <inet_chksum_pseudo>
 80044e8:	9407      	str	r4, [sp, #28]
 80044ea:	2800      	cmp	r0, #0
 80044ec:	f040 80db 	bne.w	80046a6 <tcp_input+0x21e>
  hdrlen = TCPH_HDRLEN(tcphdr);
 80044f0:	682b      	ldr	r3, [r5, #0]
 80044f2:	8998      	ldrh	r0, [r3, #12]
 80044f4:	f7fd f9fd 	bl	80018f2 <lwip_ntohs>
 80044f8:	0b00      	lsrs	r0, r0, #12
  if(pbuf_header(p, -(hdrlen * 4))){
 80044fa:	ebc0 3080 	rsb	r0, r0, r0, lsl #14
 80044fe:	0081      	lsls	r1, r0, #2
 8004500:	b209      	sxth	r1, r1
 8004502:	4630      	mov	r0, r6
 8004504:	f7fe fe56 	bl	80031b4 <pbuf_header>
 8004508:	4682      	mov	sl, r0
 800450a:	2800      	cmp	r0, #0
 800450c:	f040 80cb 	bne.w	80046a6 <tcp_input+0x21e>
  tcphdr->src = ntohs(tcphdr->src);
 8004510:	682c      	ldr	r4, [r5, #0]
  seqno = tcphdr->seqno = ntohl(tcphdr->seqno);
 8004512:	4f83      	ldr	r7, [pc, #524]	; (8004720 <tcp_input+0x298>)
  tcphdr->src = ntohs(tcphdr->src);
 8004514:	8820      	ldrh	r0, [r4, #0]
  ackno = tcphdr->ackno = ntohl(tcphdr->ackno);
 8004516:	f8df 9224 	ldr.w	r9, [pc, #548]	; 800473c <tcp_input+0x2b4>
  tcphdr->src = ntohs(tcphdr->src);
 800451a:	f7fd f9ea 	bl	80018f2 <lwip_ntohs>
 800451e:	8020      	strh	r0, [r4, #0]
  tcphdr->dest = ntohs(tcphdr->dest);
 8004520:	682c      	ldr	r4, [r5, #0]
 8004522:	8860      	ldrh	r0, [r4, #2]
 8004524:	f7fd f9e5 	bl	80018f2 <lwip_ntohs>
 8004528:	8060      	strh	r0, [r4, #2]
  seqno = tcphdr->seqno = ntohl(tcphdr->seqno);
 800452a:	682c      	ldr	r4, [r5, #0]
 800452c:	6860      	ldr	r0, [r4, #4]
 800452e:	f7fd f9e5 	bl	80018fc <lwip_ntohl>
 8004532:	6060      	str	r0, [r4, #4]
  ackno = tcphdr->ackno = ntohl(tcphdr->ackno);
 8004534:	682c      	ldr	r4, [r5, #0]
  seqno = tcphdr->seqno = ntohl(tcphdr->seqno);
 8004536:	6038      	str	r0, [r7, #0]
  ackno = tcphdr->ackno = ntohl(tcphdr->ackno);
 8004538:	68a0      	ldr	r0, [r4, #8]
 800453a:	f7fd f9df 	bl	80018fc <lwip_ntohl>
 800453e:	60a0      	str	r0, [r4, #8]
  tcphdr->wnd = ntohs(tcphdr->wnd);
 8004540:	682c      	ldr	r4, [r5, #0]
  ackno = tcphdr->ackno = ntohl(tcphdr->ackno);
 8004542:	f8c9 0000 	str.w	r0, [r9]
  tcphdr->wnd = ntohs(tcphdr->wnd);
 8004546:	89e0      	ldrh	r0, [r4, #14]
 8004548:	f7fd f9d3 	bl	80018f2 <lwip_ntohs>
  flags = TCPH_FLAGS(tcphdr);
 800454c:	682b      	ldr	r3, [r5, #0]
  tcphdr->wnd = ntohs(tcphdr->wnd);
 800454e:	81e0      	strh	r0, [r4, #14]
  flags = TCPH_FLAGS(tcphdr);
 8004550:	8998      	ldrh	r0, [r3, #12]
 8004552:	f7fd f9ce 	bl	80018f2 <lwip_ntohs>
 8004556:	4a73      	ldr	r2, [pc, #460]	; (8004724 <tcp_input+0x29c>)
  tcplen = p->tot_len + ((flags & (TCP_FIN | TCP_SYN)) ? 1 : 0);
 8004558:	f8b6 e008 	ldrh.w	lr, [r6, #8]
       ip_addr_cmp(&(pcb->local_ip), &current_iphdr_dest)) {
 800455c:	f8d8 c000 	ldr.w	ip, [r8]
  prev = NULL;
 8004560:	f8cd a00c 	str.w	sl, [sp, #12]
  flags = TCPH_FLAGS(tcphdr);
 8004564:	b2c3      	uxtb	r3, r0
 8004566:	f003 013f 	and.w	r1, r3, #63	; 0x3f
 800456a:	7011      	strb	r1, [r2, #0]
  for(pcb = tcp_active_pcbs; pcb != NULL; pcb = pcb->next) {
 800456c:	4a6e      	ldr	r2, [pc, #440]	; (8004728 <tcp_input+0x2a0>)
       ip_addr_cmp(&(pcb->remote_ip), &current_iphdr_src) &&
 800456e:	9807      	ldr	r0, [sp, #28]
  for(pcb = tcp_active_pcbs; pcb != NULL; pcb = pcb->next) {
 8004570:	6812      	ldr	r2, [r2, #0]
  tcplen = p->tot_len + ((flags & (TCP_FIN | TCP_SYN)) ? 1 : 0);
 8004572:	496e      	ldr	r1, [pc, #440]	; (800472c <tcp_input+0x2a4>)
  for(pcb = tcp_active_pcbs; pcb != NULL; pcb = pcb->next) {
 8004574:	9205      	str	r2, [sp, #20]
  tcplen = p->tot_len + ((flags & (TCP_FIN | TCP_SYN)) ? 1 : 0);
 8004576:	f013 0b03 	ands.w	fp, r3, #3
 800457a:	bf18      	it	ne
 800457c:	f04f 0b01 	movne.w	fp, #1
 8004580:	44f3      	add	fp, lr
 8004582:	fa1f fb8b 	uxth.w	fp, fp
       ip_addr_cmp(&(pcb->remote_ip), &current_iphdr_src) &&
 8004586:	6800      	ldr	r0, [r0, #0]
    if (pcb->remote_port == tcphdr->src &&
 8004588:	682a      	ldr	r2, [r5, #0]
  for(pcb = tcp_active_pcbs; pcb != NULL; pcb = pcb->next) {
 800458a:	9c05      	ldr	r4, [sp, #20]
  tcplen = p->tot_len + ((flags & (TCP_FIN | TCP_SYN)) ? 1 : 0);
 800458c:	f8a1 b000 	strh.w	fp, [r1]
       ip_addr_cmp(&(pcb->remote_ip), &current_iphdr_src) &&
 8004590:	9006      	str	r0, [sp, #24]
 8004592:	46ca      	mov	sl, r9
 8004594:	9104      	str	r1, [sp, #16]
  for(pcb = tcp_active_pcbs; pcb != NULL; pcb = pcb->next) {
 8004596:	b914      	cbnz	r4, 800459e <tcp_input+0x116>
    for(pcb = tcp_tw_pcbs; pcb != NULL; pcb = pcb->next) {
 8004598:	4965      	ldr	r1, [pc, #404]	; (8004730 <tcp_input+0x2a8>)
 800459a:	6808      	ldr	r0, [r1, #0]
 800459c:	e08a      	b.n	80046b4 <tcp_input+0x22c>
    if (pcb->remote_port == tcphdr->src &&
 800459e:	f8b4 901c 	ldrh.w	r9, [r4, #28]
 80045a2:	8811      	ldrh	r1, [r2, #0]
 80045a4:	4589      	cmp	r9, r1
 80045a6:	d145      	bne.n	8004634 <tcp_input+0x1ac>
 80045a8:	f8b4 901a 	ldrh.w	r9, [r4, #26]
 80045ac:	8851      	ldrh	r1, [r2, #2]
 80045ae:	4589      	cmp	r9, r1
 80045b0:	d140      	bne.n	8004634 <tcp_input+0x1ac>
       pcb->local_port == tcphdr->dest &&
 80045b2:	6861      	ldr	r1, [r4, #4]
 80045b4:	4608      	mov	r0, r1
 80045b6:	9906      	ldr	r1, [sp, #24]
 80045b8:	4288      	cmp	r0, r1
 80045ba:	d13b      	bne.n	8004634 <tcp_input+0x1ac>
       ip_addr_cmp(&(pcb->remote_ip), &current_iphdr_src) &&
 80045bc:	6821      	ldr	r1, [r4, #0]
 80045be:	4561      	cmp	r1, ip
 80045c0:	d138      	bne.n	8004634 <tcp_input+0x1ac>
      if (prev != NULL) {
 80045c2:	9803      	ldr	r0, [sp, #12]
      LWIP_ASSERT("tcp_input: pcb->next != pcb (before cache)", pcb->next != pcb);
 80045c4:	68e1      	ldr	r1, [r4, #12]
      if (prev != NULL) {
 80045c6:	b120      	cbz	r0, 80045d2 <tcp_input+0x14a>
        prev->next = pcb->next;
 80045c8:	60c1      	str	r1, [r0, #12]
        pcb->next = tcp_active_pcbs;
 80045ca:	9905      	ldr	r1, [sp, #20]
 80045cc:	60e1      	str	r1, [r4, #12]
        tcp_active_pcbs = pcb;
 80045ce:	4956      	ldr	r1, [pc, #344]	; (8004728 <tcp_input+0x2a0>)
 80045d0:	600c      	str	r4, [r1, #0]
    inseg.next = NULL;
 80045d2:	4958      	ldr	r1, [pc, #352]	; (8004734 <tcp_input+0x2ac>)
    recv_flags = 0;
 80045d4:	f8df 8170 	ldr.w	r8, [pc, #368]	; 8004748 <tcp_input+0x2c0>
    inseg.tcphdr = tcphdr;
 80045d8:	610a      	str	r2, [r1, #16]
    recv_data = NULL;
 80045da:	4a57      	ldr	r2, [pc, #348]	; (8004738 <tcp_input+0x2b0>)
    inseg.len = p->tot_len;
 80045dc:	f8a1 e008 	strh.w	lr, [r1, #8]
    inseg.next = NULL;
 80045e0:	2000      	movs	r0, #0
    if (flags & TCP_PSH) {
 80045e2:	f013 0f08 	tst.w	r3, #8
    inseg.next = NULL;
 80045e6:	6008      	str	r0, [r1, #0]
    inseg.p = p;
 80045e8:	604e      	str	r6, [r1, #4]
    recv_data = NULL;
 80045ea:	6010      	str	r0, [r2, #0]
    recv_flags = 0;
 80045ec:	f888 0000 	strb.w	r0, [r8]
 80045f0:	4692      	mov	sl, r2
 80045f2:	4689      	mov	r9, r1
    if (flags & TCP_PSH) {
 80045f4:	d003      	beq.n	80045fe <tcp_input+0x176>
      p->flags |= PBUF_FLAG_PUSH;
 80045f6:	7b73      	ldrb	r3, [r6, #13]
 80045f8:	f043 0301 	orr.w	r3, r3, #1
 80045fc:	7373      	strb	r3, [r6, #13]
    if (pcb->refused_data != NULL) {
 80045fe:	6f63      	ldr	r3, [r4, #116]	; 0x74
 8004600:	f8df b148 	ldr.w	fp, [pc, #328]	; 800474c <tcp_input+0x2c4>
 8004604:	2b00      	cmp	r3, #0
 8004606:	f040 80f6 	bne.w	80047f6 <tcp_input+0x36e>
  if (flags & TCP_RST) {
 800460a:	4e46      	ldr	r6, [pc, #280]	; (8004724 <tcp_input+0x29c>)
    tcp_input_pcb = pcb;
 800460c:	f8cb 4000 	str.w	r4, [fp]
  if (flags & TCP_RST) {
 8004610:	7833      	ldrb	r3, [r6, #0]
 8004612:	0759      	lsls	r1, r3, #29
 8004614:	f100 810c 	bmi.w	8004830 <tcp_input+0x3a8>
  if ((flags & TCP_SYN) && (pcb->state != SYN_SENT && pcb->state != SYN_RCVD)) { 
 8004618:	f013 0f02 	tst.w	r3, #2
 800461c:	7fa3      	ldrb	r3, [r4, #30]
 800461e:	f000 8137 	beq.w	8004890 <tcp_input+0x408>
 8004622:	7e22      	ldrb	r2, [r4, #24]
 8004624:	3a02      	subs	r2, #2
 8004626:	2a01      	cmp	r2, #1
 8004628:	f240 8132 	bls.w	8004890 <tcp_input+0x408>
      tcp_ack_now(pcb);
 800462c:	f043 0302 	orr.w	r3, r3, #2
      pcb->flags &= ~TF_ACK_DELAY;
 8004630:	77a3      	strb	r3, [r4, #30]
 8004632:	e118      	b.n	8004866 <tcp_input+0x3de>
  for(pcb = tcp_active_pcbs; pcb != NULL; pcb = pcb->next) {
 8004634:	9403      	str	r4, [sp, #12]
 8004636:	68e4      	ldr	r4, [r4, #12]
 8004638:	e7ad      	b.n	8004596 <tcp_input+0x10e>
      if (pcb->remote_port == tcphdr->src &&
 800463a:	8b81      	ldrh	r1, [r0, #28]
 800463c:	f8b2 e000 	ldrh.w	lr, [r2]
 8004640:	458e      	cmp	lr, r1
 8004642:	d136      	bne.n	80046b2 <tcp_input+0x22a>
         pcb->local_port == tcphdr->dest &&
 8004644:	8b41      	ldrh	r1, [r0, #26]
      if (pcb->remote_port == tcphdr->src &&
 8004646:	f8b2 9002 	ldrh.w	r9, [r2, #2]
 800464a:	4589      	cmp	r9, r1
 800464c:	d131      	bne.n	80046b2 <tcp_input+0x22a>
         pcb->local_port == tcphdr->dest &&
 800464e:	6841      	ldr	r1, [r0, #4]
 8004650:	460c      	mov	r4, r1
 8004652:	9906      	ldr	r1, [sp, #24]
 8004654:	42a1      	cmp	r1, r4
 8004656:	d12c      	bne.n	80046b2 <tcp_input+0x22a>
         ip_addr_cmp(&(pcb->remote_ip), &current_iphdr_src) &&
 8004658:	6801      	ldr	r1, [r0, #0]
 800465a:	458c      	cmp	ip, r1
 800465c:	d129      	bne.n	80046b2 <tcp_input+0x22a>
  if (flags & TCP_RST)  {
 800465e:	0759      	lsls	r1, r3, #29
 8004660:	d421      	bmi.n	80046a6 <tcp_input+0x21e>
  if (flags & TCP_SYN) {
 8004662:	079a      	lsls	r2, r3, #30
 8004664:	d511      	bpl.n	800468a <tcp_input+0x202>
    if (TCP_SEQ_BETWEEN(seqno, pcb->rcv_nxt, pcb->rcv_nxt+pcb->rcv_wnd)) {
 8004666:	6839      	ldr	r1, [r7, #0]
 8004668:	6a83      	ldr	r3, [r0, #40]	; 0x28
 800466a:	1acb      	subs	r3, r1, r3
 800466c:	d412      	bmi.n	8004694 <tcp_input+0x20c>
 800466e:	8d82      	ldrh	r2, [r0, #44]	; 0x2c
 8004670:	1a9b      	subs	r3, r3, r2
 8004672:	2b00      	cmp	r3, #0
 8004674:	dc0e      	bgt.n	8004694 <tcp_input+0x20c>
      tcp_rst(ackno, seqno + tcplen, ip_current_dest_addr(), ip_current_src_addr(),
 8004676:	e88d 4200 	stmia.w	sp, {r9, lr}
 800467a:	4b28      	ldr	r3, [pc, #160]	; (800471c <tcp_input+0x294>)
 800467c:	4a26      	ldr	r2, [pc, #152]	; (8004718 <tcp_input+0x290>)
 800467e:	4459      	add	r1, fp
    tcp_rst(ackno, seqno + tcplen, ip_current_dest_addr(),
 8004680:	482e      	ldr	r0, [pc, #184]	; (800473c <tcp_input+0x2b4>)
 8004682:	6800      	ldr	r0, [r0, #0]
 8004684:	f000 ff3c 	bl	8005500 <tcp_rst>
 8004688:	e00d      	b.n	80046a6 <tcp_input+0x21e>
  } else if (flags & TCP_FIN) {
 800468a:	07dd      	lsls	r5, r3, #31
    pcb->tmr = tcp_ticks;
 800468c:	bf42      	ittt	mi
 800468e:	4b2c      	ldrmi	r3, [pc, #176]	; (8004740 <tcp_input+0x2b8>)
 8004690:	681b      	ldrmi	r3, [r3, #0]
 8004692:	6243      	strmi	r3, [r0, #36]	; 0x24
  if ((tcplen > 0))  {
 8004694:	f1bb 0f00 	cmp.w	fp, #0
 8004698:	d005      	beq.n	80046a6 <tcp_input+0x21e>
    pcb->flags |= TF_ACK_NOW;
 800469a:	7f83      	ldrb	r3, [r0, #30]
 800469c:	f043 0302 	orr.w	r3, r3, #2
 80046a0:	7783      	strb	r3, [r0, #30]
    return tcp_output(pcb);
 80046a2:	f000 fdf1 	bl	8005288 <tcp_output>
  pbuf_free(p);
 80046a6:	4630      	mov	r0, r6
}
 80046a8:	b009      	add	sp, #36	; 0x24
 80046aa:	e8bd 4ff0 	ldmia.w	sp!, {r4, r5, r6, r7, r8, r9, sl, fp, lr}
  pbuf_free(p);
 80046ae:	f7fe bdac 	b.w	800320a <pbuf_free>
    for(pcb = tcp_tw_pcbs; pcb != NULL; pcb = pcb->next) {
 80046b2:	68c0      	ldr	r0, [r0, #12]
 80046b4:	2800      	cmp	r0, #0
 80046b6:	d1c0      	bne.n	800463a <tcp_input+0x1b2>
    for(lpcb = tcp_listen_pcbs.listen_pcbs; lpcb != NULL; lpcb = lpcb->next) {
 80046b8:	4922      	ldr	r1, [pc, #136]	; (8004744 <tcp_input+0x2bc>)
 80046ba:	680c      	ldr	r4, [r1, #0]
 80046bc:	46a1      	mov	r9, r4
 80046be:	f1b9 0f00 	cmp.w	r9, #0
 80046c2:	d112      	bne.n	80046ea <tcp_input+0x262>
    if (!(TCPH_FLAGS(tcphdr) & TCP_RST)) {
 80046c4:	8990      	ldrh	r0, [r2, #12]
 80046c6:	f7fd f914 	bl	80018f2 <lwip_ntohs>
 80046ca:	0743      	lsls	r3, r0, #29
 80046cc:	d4eb      	bmi.n	80046a6 <tcp_input+0x21e>
        tcphdr->dest, tcphdr->src);
 80046ce:	682b      	ldr	r3, [r5, #0]
      tcp_rst(ackno, seqno + tcplen,
 80046d0:	9a04      	ldr	r2, [sp, #16]
 80046d2:	6839      	ldr	r1, [r7, #0]
 80046d4:	8810      	ldrh	r0, [r2, #0]
 80046d6:	881a      	ldrh	r2, [r3, #0]
 80046d8:	9201      	str	r2, [sp, #4]
 80046da:	885b      	ldrh	r3, [r3, #2]
 80046dc:	9300      	str	r3, [sp, #0]
 80046de:	4401      	add	r1, r0
 80046e0:	4b0e      	ldr	r3, [pc, #56]	; (800471c <tcp_input+0x294>)
 80046e2:	4a0d      	ldr	r2, [pc, #52]	; (8004718 <tcp_input+0x290>)
 80046e4:	f8da 0000 	ldr.w	r0, [sl]
 80046e8:	e7cc      	b.n	8004684 <tcp_input+0x1fc>
      if (lpcb->local_port == tcphdr->dest) {
 80046ea:	f8b9 101a 	ldrh.w	r1, [r9, #26]
 80046ee:	9103      	str	r1, [sp, #12]
 80046f0:	f8b2 e002 	ldrh.w	lr, [r2, #2]
 80046f4:	458e      	cmp	lr, r1
 80046f6:	d108      	bne.n	800470a <tcp_input+0x282>
        if (ip_addr_cmp(&(lpcb->local_ip), &current_iphdr_dest) ||
 80046f8:	f8d9 e000 	ldr.w	lr, [r9]
 80046fc:	45f4      	cmp	ip, lr
 80046fe:	f000 82a9 	beq.w	8004c54 <tcp_input+0x7cc>
            ip_addr_isany(&(lpcb->local_ip))) {
 8004702:	f1be 0f00 	cmp.w	lr, #0
 8004706:	f000 82a5 	beq.w	8004c54 <tcp_input+0x7cc>
 800470a:	4648      	mov	r0, r9
    for(lpcb = tcp_listen_pcbs.listen_pcbs; lpcb != NULL; lpcb = lpcb->next) {
 800470c:	f8d9 900c 	ldr.w	r9, [r9, #12]
 8004710:	e7d5      	b.n	80046be <tcp_input+0x236>
 8004712:	bf00      	nop
 8004714:	20002540 	.word	0x20002540
 8004718:	20002634 	.word	0x20002634
 800471c:	2000262c 	.word	0x2000262c
 8004720:	2000253c 	.word	0x2000253c
 8004724:	2000251c 	.word	0x2000251c
 8004728:	20004e5c 	.word	0x20004e5c
 800472c:	20002544 	.word	0x20002544
 8004730:	20004e70 	.word	0x20004e70
 8004734:	20002520 	.word	0x20002520
 8004738:	20002534 	.word	0x20002534
 800473c:	20002518 	.word	0x20002518
 8004740:	20004e60 	.word	0x20004e60
 8004744:	20004e64 	.word	0x20004e64
 8004748:	20002538 	.word	0x20002538
 800474c:	20004e74 	.word	0x20004e74
  } else if (flags & TCP_SYN) {
 8004750:	0798      	lsls	r0, r3, #30
 8004752:	d5a8      	bpl.n	80046a6 <tcp_input+0x21e>
    npcb = tcp_alloc(pcb->prio);
 8004754:	f899 0019 	ldrb.w	r0, [r9, #25]
 8004758:	f7ff fb60 	bl	8003e1c <tcp_alloc>
    if (npcb == NULL) {
 800475c:	4682      	mov	sl, r0
 800475e:	2800      	cmp	r0, #0
 8004760:	d0a1      	beq.n	80046a6 <tcp_input+0x21e>
    ip_addr_copy(npcb->local_ip, current_iphdr_dest);
 8004762:	f8d8 3000 	ldr.w	r3, [r8]
 8004766:	6003      	str	r3, [r0, #0]
    npcb->local_port = pcb->local_port;
 8004768:	f8b9 301a 	ldrh.w	r3, [r9, #26]
 800476c:	8343      	strh	r3, [r0, #26]
    ip_addr_copy(npcb->remote_ip, current_iphdr_src);
 800476e:	9b07      	ldr	r3, [sp, #28]
    npcb->remote_port = tcphdr->src;
 8004770:	682a      	ldr	r2, [r5, #0]
    ip_addr_copy(npcb->remote_ip, current_iphdr_src);
 8004772:	681b      	ldr	r3, [r3, #0]
    npcb->remote_port = tcphdr->src;
 8004774:	7851      	ldrb	r1, [r2, #1]
    ip_addr_copy(npcb->remote_ip, current_iphdr_src);
 8004776:	6043      	str	r3, [r0, #4]
    npcb->remote_port = tcphdr->src;
 8004778:	7813      	ldrb	r3, [r2, #0]
 800477a:	ea43 2301 	orr.w	r3, r3, r1, lsl #8
 800477e:	8383      	strh	r3, [r0, #28]
    npcb->state = SYN_RCVD;
 8004780:	2303      	movs	r3, #3
 8004782:	7603      	strb	r3, [r0, #24]
    npcb->rcv_nxt = seqno + 1;
 8004784:	683b      	ldr	r3, [r7, #0]
 8004786:	1c59      	adds	r1, r3, #1
 8004788:	6281      	str	r1, [r0, #40]	; 0x28
    npcb->rcv_ann_right_edge = npcb->rcv_nxt;
 800478a:	6301      	str	r1, [r0, #48]	; 0x30
    npcb->snd_wl1 = seqno - 1;/* initialise to seqno-1 to force window update */
 800478c:	3b01      	subs	r3, #1
    npcb->snd_wnd = tcphdr->wnd;
 800478e:	89d2      	ldrh	r2, [r2, #14]
    npcb->snd_wl1 = seqno - 1;/* initialise to seqno-1 to force window update */
 8004790:	6543      	str	r3, [r0, #84]	; 0x54
    npcb->callback_arg = pcb->callback_arg;
 8004792:	f8d9 3010 	ldr.w	r3, [r9, #16]
 8004796:	6103      	str	r3, [r0, #16]
    npcb->accept = pcb->accept;
 8004798:	f8d9 3014 	ldr.w	r3, [r9, #20]
    npcb->snd_wnd = tcphdr->wnd;
 800479c:	f8a0 2060 	strh.w	r2, [r0, #96]	; 0x60
    npcb->snd_wnd_max = tcphdr->wnd;
 80047a0:	f8a0 2062 	strh.w	r2, [r0, #98]	; 0x62
    npcb->ssthresh = npcb->snd_wnd;
 80047a4:	f8a0 204e 	strh.w	r2, [r0, #78]	; 0x4e
    npcb->accept = pcb->accept;
 80047a8:	6143      	str	r3, [r0, #20]
    npcb->so_options = pcb->so_options & SOF_INHERITED;
 80047aa:	f899 3008 	ldrb.w	r3, [r9, #8]
 80047ae:	f023 0373 	bic.w	r3, r3, #115	; 0x73
 80047b2:	7203      	strb	r3, [r0, #8]
    TCP_REG_ACTIVE(npcb);
 80047b4:	4ba4      	ldr	r3, [pc, #656]	; (8004a48 <tcp_input+0x5c0>)
 80047b6:	681a      	ldr	r2, [r3, #0]
 80047b8:	60c2      	str	r2, [r0, #12]
 80047ba:	6018      	str	r0, [r3, #0]
 80047bc:	f000 fffe 	bl	80057bc <tcp_timer_needed>
 80047c0:	4ba2      	ldr	r3, [pc, #648]	; (8004a4c <tcp_input+0x5c4>)
 80047c2:	2201      	movs	r2, #1
    tcp_parseopt(npcb);
 80047c4:	f10a 0036 	add.w	r0, sl, #54	; 0x36
    TCP_REG_ACTIVE(npcb);
 80047c8:	701a      	strb	r2, [r3, #0]
    tcp_parseopt(npcb);
 80047ca:	f7ff fe1b 	bl	8004404 <tcp_parseopt.isra.0>
    npcb->mss = tcp_eff_send_mss(npcb->mss, &(npcb->remote_ip));
 80047ce:	f10a 0104 	add.w	r1, sl, #4
 80047d2:	f8ba 0036 	ldrh.w	r0, [sl, #54]	; 0x36
 80047d6:	f7ff fbaa 	bl	8003f2e <tcp_eff_send_mss>
    rc = tcp_enqueue_flags(npcb, TCP_SYN | TCP_ACK);
 80047da:	2112      	movs	r1, #18
    npcb->mss = tcp_eff_send_mss(npcb->mss, &(npcb->remote_ip));
 80047dc:	f8aa 0036 	strh.w	r0, [sl, #54]	; 0x36
    rc = tcp_enqueue_flags(npcb, TCP_SYN | TCP_ACK);
 80047e0:	4650      	mov	r0, sl
 80047e2:	f000 fcb1 	bl	8005148 <tcp_enqueue_flags>
    if (rc != ERR_OK) {
 80047e6:	b120      	cbz	r0, 80047f2 <tcp_input+0x36a>
      tcp_abandon(npcb, 0);
 80047e8:	4621      	mov	r1, r4
 80047ea:	4650      	mov	r0, sl
 80047ec:	f7ff fabc 	bl	8003d68 <tcp_abandon>
 80047f0:	e759      	b.n	80046a6 <tcp_input+0x21e>
    return tcp_output(npcb);
 80047f2:	4650      	mov	r0, sl
 80047f4:	e755      	b.n	80046a2 <tcp_input+0x21a>
      if ((tcp_process_refused_data(pcb) == ERR_ABRT) ||
 80047f6:	4620      	mov	r0, r4
 80047f8:	f7ff fa3a 	bl	8003c70 <tcp_process_refused_data>
 80047fc:	300a      	adds	r0, #10
 80047fe:	d008      	beq.n	8004812 <tcp_input+0x38a>
 8004800:	6f63      	ldr	r3, [r4, #116]	; 0x74
 8004802:	2b00      	cmp	r3, #0
 8004804:	f43f af01 	beq.w	800460a <tcp_input+0x182>
        ((pcb->refused_data != NULL) && (tcplen > 0))) {
 8004808:	4b91      	ldr	r3, [pc, #580]	; (8004a50 <tcp_input+0x5c8>)
 800480a:	881b      	ldrh	r3, [r3, #0]
 800480c:	2b00      	cmp	r3, #0
 800480e:	f43f aefc 	beq.w	800460a <tcp_input+0x182>
    if (inseg.p != NULL)
 8004812:	f8d9 0004 	ldr.w	r0, [r9, #4]
    tcp_input_pcb = NULL;
 8004816:	2400      	movs	r4, #0
 8004818:	f8cb 4000 	str.w	r4, [fp]
    recv_data = NULL;
 800481c:	f8ca 4000 	str.w	r4, [sl]
    if (inseg.p != NULL)
 8004820:	b118      	cbz	r0, 800482a <tcp_input+0x3a2>
      pbuf_free(inseg.p);
 8004822:	f7fe fcf2 	bl	800320a <pbuf_free>
      inseg.p = NULL;
 8004826:	f8c9 4004 	str.w	r4, [r9, #4]
}
 800482a:	b009      	add	sp, #36	; 0x24
 800482c:	e8bd 8ff0 	ldmia.w	sp!, {r4, r5, r6, r7, r8, r9, sl, fp, pc}
    if (pcb->state == SYN_SENT) {
 8004830:	7e23      	ldrb	r3, [r4, #24]
 8004832:	2b02      	cmp	r3, #2
 8004834:	d10e      	bne.n	8004854 <tcp_input+0x3cc>
      if (ackno == pcb->snd_nxt) {
 8004836:	4b87      	ldr	r3, [pc, #540]	; (8004a54 <tcp_input+0x5cc>)
 8004838:	6d22      	ldr	r2, [r4, #80]	; 0x50
 800483a:	681b      	ldr	r3, [r3, #0]
 800483c:	429a      	cmp	r2, r3
 800483e:	d112      	bne.n	8004866 <tcp_input+0x3de>
      recv_flags |= TF_RESET;
 8004840:	f898 3000 	ldrb.w	r3, [r8]
 8004844:	f043 0308 	orr.w	r3, r3, #8
 8004848:	f888 3000 	strb.w	r3, [r8]
      pcb->flags &= ~TF_ACK_DELAY;
 800484c:	7fa3      	ldrb	r3, [r4, #30]
 800484e:	f023 0301 	bic.w	r3, r3, #1
 8004852:	e6ed      	b.n	8004630 <tcp_input+0x1a8>
      if (TCP_SEQ_BETWEEN(seqno, pcb->rcv_nxt, 
 8004854:	4b80      	ldr	r3, [pc, #512]	; (8004a58 <tcp_input+0x5d0>)
 8004856:	6aa2      	ldr	r2, [r4, #40]	; 0x28
 8004858:	681b      	ldr	r3, [r3, #0]
 800485a:	1a9b      	subs	r3, r3, r2
 800485c:	d403      	bmi.n	8004866 <tcp_input+0x3de>
 800485e:	8da2      	ldrh	r2, [r4, #44]	; 0x2c
 8004860:	1a9b      	subs	r3, r3, r2
 8004862:	2b00      	cmp	r3, #0
 8004864:	ddec      	ble.n	8004840 <tcp_input+0x3b8>
      if (recv_flags & TF_RESET) {
 8004866:	f898 3000 	ldrb.w	r3, [r8]
 800486a:	071d      	lsls	r5, r3, #28
 800486c:	f140 8195 	bpl.w	8004b9a <tcp_input+0x712>
        TCP_EVENT_ERR(pcb->errf, pcb->callback_arg, ERR_RST);
 8004870:	f8d4 3088 	ldr.w	r3, [r4, #136]	; 0x88
 8004874:	b11b      	cbz	r3, 800487e <tcp_input+0x3f6>
 8004876:	f06f 010a 	mvn.w	r1, #10
          TCP_EVENT_ERR(pcb->errf, pcb->callback_arg, ERR_CLSD);
 800487a:	6920      	ldr	r0, [r4, #16]
 800487c:	4798      	blx	r3
        tcp_pcb_remove(&tcp_active_pcbs, pcb);
 800487e:	4621      	mov	r1, r4
 8004880:	4871      	ldr	r0, [pc, #452]	; (8004a48 <tcp_input+0x5c0>)
 8004882:	f7ff f8fd 	bl	8003a80 <tcp_pcb_remove>
        memp_free(MEMP_TCP_PCB, pcb);
 8004886:	4621      	mov	r1, r4
 8004888:	2002      	movs	r0, #2
 800488a:	f7fe fba5 	bl	8002fd8 <memp_free>
 800488e:	e7c0      	b.n	8004812 <tcp_input+0x38a>
  if ((pcb->flags & TF_RXCLOSED) == 0) {
 8004890:	06da      	lsls	r2, r3, #27
    pcb->tmr = tcp_ticks;
 8004892:	bf5e      	ittt	pl
 8004894:	4b71      	ldrpl	r3, [pc, #452]	; (8004a5c <tcp_input+0x5d4>)
 8004896:	681b      	ldrpl	r3, [r3, #0]
 8004898:	6263      	strpl	r3, [r4, #36]	; 0x24
  pcb->keep_cnt_sent = 0;
 800489a:	2300      	movs	r3, #0
 800489c:	f884 3092 	strb.w	r3, [r4, #146]	; 0x92
  tcp_parseopt(pcb);
 80048a0:	f104 0036 	add.w	r0, r4, #54	; 0x36
 80048a4:	f7ff fdae 	bl	8004404 <tcp_parseopt.isra.0>
  switch (pcb->state) {
 80048a8:	7e23      	ldrb	r3, [r4, #24]
 80048aa:	3b02      	subs	r3, #2
 80048ac:	2b07      	cmp	r3, #7
 80048ae:	d8da      	bhi.n	8004866 <tcp_input+0x3de>
 80048b0:	e8df f013 	tbh	[pc, r3, lsl #1]
 80048b4:	00710008 	.word	0x00710008
 80048b8:	00da00c6 	.word	0x00da00c6
 80048bc:	00c60123 	.word	0x00c60123
 80048c0:	01600141 	.word	0x01600141
    if ((flags & TCP_ACK) && (flags & TCP_SYN)
 80048c4:	7833      	ldrb	r3, [r6, #0]
 80048c6:	f003 0312 	and.w	r3, r3, #18
 80048ca:	2b12      	cmp	r3, #18
 80048cc:	d14f      	bne.n	800496e <tcp_input+0x4e6>
        && ackno == ntohl(pcb->unacked->tcphdr->seqno) + 1) {
 80048ce:	6f23      	ldr	r3, [r4, #112]	; 0x70
 80048d0:	691b      	ldr	r3, [r3, #16]
 80048d2:	6858      	ldr	r0, [r3, #4]
 80048d4:	f7fd f812 	bl	80018fc <lwip_ntohl>
 80048d8:	4b5e      	ldr	r3, [pc, #376]	; (8004a54 <tcp_input+0x5cc>)
 80048da:	681b      	ldr	r3, [r3, #0]
 80048dc:	3001      	adds	r0, #1
 80048de:	4298      	cmp	r0, r3
 80048e0:	d145      	bne.n	800496e <tcp_input+0x4e6>
      pcb->snd_buf++;
 80048e2:	f8b4 3066 	ldrh.w	r3, [r4, #102]	; 0x66
      pcb->lastack = ackno;
 80048e6:	64a0      	str	r0, [r4, #72]	; 0x48
      pcb->snd_buf++;
 80048e8:	3301      	adds	r3, #1
 80048ea:	f8a4 3066 	strh.w	r3, [r4, #102]	; 0x66
      pcb->rcv_nxt = seqno + 1;
 80048ee:	683b      	ldr	r3, [r7, #0]
      pcb->mss = tcp_eff_send_mss(pcb->mss, &(pcb->remote_ip));
 80048f0:	8ee0      	ldrh	r0, [r4, #54]	; 0x36
      pcb->rcv_nxt = seqno + 1;
 80048f2:	1c5a      	adds	r2, r3, #1
 80048f4:	62a2      	str	r2, [r4, #40]	; 0x28
      pcb->rcv_ann_right_edge = pcb->rcv_nxt;
 80048f6:	6322      	str	r2, [r4, #48]	; 0x30
      pcb->snd_wnd = tcphdr->wnd;
 80048f8:	682a      	ldr	r2, [r5, #0]
      pcb->snd_wl1 = seqno - 1; /* initialise to seqno - 1 to force window update */
 80048fa:	3b01      	subs	r3, #1
      pcb->snd_wnd = tcphdr->wnd;
 80048fc:	89d2      	ldrh	r2, [r2, #14]
      pcb->snd_wl1 = seqno - 1; /* initialise to seqno - 1 to force window update */
 80048fe:	6563      	str	r3, [r4, #84]	; 0x54
      pcb->state = ESTABLISHED;
 8004900:	2304      	movs	r3, #4
      pcb->mss = tcp_eff_send_mss(pcb->mss, &(pcb->remote_ip));
 8004902:	18e1      	adds	r1, r4, r3
      pcb->snd_wnd = tcphdr->wnd;
 8004904:	f8a4 2060 	strh.w	r2, [r4, #96]	; 0x60
      pcb->snd_wnd_max = tcphdr->wnd;
 8004908:	f8a4 2062 	strh.w	r2, [r4, #98]	; 0x62
      pcb->state = ESTABLISHED;
 800490c:	7623      	strb	r3, [r4, #24]
      pcb->mss = tcp_eff_send_mss(pcb->mss, &(pcb->remote_ip));
 800490e:	f7ff fb0e 	bl	8003f2e <tcp_eff_send_mss>
      pcb->ssthresh = pcb->mss * 10;
 8004912:	eb00 0380 	add.w	r3, r0, r0, lsl #2
 8004916:	005b      	lsls	r3, r3, #1
 8004918:	f8a4 304e 	strh.w	r3, [r4, #78]	; 0x4e
      pcb->cwnd = ((pcb->cwnd == 1) ? (pcb->mss * 2) : pcb->mss);
 800491c:	f8b4 304c 	ldrh.w	r3, [r4, #76]	; 0x4c
      pcb->mss = tcp_eff_send_mss(pcb->mss, &(pcb->remote_ip));
 8004920:	86e0      	strh	r0, [r4, #54]	; 0x36
      pcb->cwnd = ((pcb->cwnd == 1) ? (pcb->mss * 2) : pcb->mss);
 8004922:	2b01      	cmp	r3, #1
 8004924:	bf04      	itt	eq
 8004926:	0040      	lsleq	r0, r0, #1
 8004928:	b280      	uxtheq	r0, r0
      --pcb->snd_queuelen;
 800492a:	f8b4 3068 	ldrh.w	r3, [r4, #104]	; 0x68
      pcb->cwnd = ((pcb->cwnd == 1) ? (pcb->mss * 2) : pcb->mss);
 800492e:	f8a4 004c 	strh.w	r0, [r4, #76]	; 0x4c
      rseg = pcb->unacked;
 8004932:	6f20      	ldr	r0, [r4, #112]	; 0x70
      --pcb->snd_queuelen;
 8004934:	3b01      	subs	r3, #1
 8004936:	f8a4 3068 	strh.w	r3, [r4, #104]	; 0x68
      pcb->unacked = rseg->next;
 800493a:	6803      	ldr	r3, [r0, #0]
 800493c:	6723      	str	r3, [r4, #112]	; 0x70
      tcp_seg_free(rseg);
 800493e:	f7fe ff01 	bl	8003744 <tcp_seg_free>
      if(pcb->unacked == NULL)
 8004942:	6f23      	ldr	r3, [r4, #112]	; 0x70
 8004944:	b93b      	cbnz	r3, 8004956 <tcp_input+0x4ce>
        pcb->rtime = -1;
 8004946:	f64f 73ff 	movw	r3, #65535	; 0xffff
 800494a:	86a3      	strh	r3, [r4, #52]	; 0x34
      TCP_EVENT_CONNECTED(pcb, ERR_OK, err);
 800494c:	f8d4 3080 	ldr.w	r3, [r4, #128]	; 0x80
 8004950:	b933      	cbnz	r3, 8004960 <tcp_input+0x4d8>
      tcp_ack_now(pcb);
 8004952:	7fa3      	ldrb	r3, [r4, #30]
 8004954:	e66a      	b.n	800462c <tcp_input+0x1a4>
        pcb->rtime = 0;
 8004956:	2300      	movs	r3, #0
 8004958:	86a3      	strh	r3, [r4, #52]	; 0x34
        pcb->nrtx = 0;
 800495a:	f884 3046 	strb.w	r3, [r4, #70]	; 0x46
 800495e:	e7f5      	b.n	800494c <tcp_input+0x4c4>
      TCP_EVENT_CONNECTED(pcb, ERR_OK, err);
 8004960:	2200      	movs	r2, #0
 8004962:	4621      	mov	r1, r4
 8004964:	6920      	ldr	r0, [r4, #16]
 8004966:	4798      	blx	r3
      if (err == ERR_ABRT) {
 8004968:	300a      	adds	r0, #10
 800496a:	d1f2      	bne.n	8004952 <tcp_input+0x4ca>
 800496c:	e751      	b.n	8004812 <tcp_input+0x38a>
    else if (flags & TCP_ACK) {
 800496e:	7833      	ldrb	r3, [r6, #0]
 8004970:	06db      	lsls	r3, r3, #27
 8004972:	f57f af78 	bpl.w	8004866 <tcp_input+0x3de>
        tcphdr->dest, tcphdr->src);
 8004976:	682b      	ldr	r3, [r5, #0]
      tcp_rst(ackno, seqno + tcplen, ip_current_dest_addr(), ip_current_src_addr(),
 8004978:	9a04      	ldr	r2, [sp, #16]
 800497a:	6839      	ldr	r1, [r7, #0]
 800497c:	8810      	ldrh	r0, [r2, #0]
 800497e:	881a      	ldrh	r2, [r3, #0]
 8004980:	9201      	str	r2, [sp, #4]
 8004982:	885b      	ldrh	r3, [r3, #2]
 8004984:	9300      	str	r3, [sp, #0]
 8004986:	4401      	add	r1, r0
 8004988:	4832      	ldr	r0, [pc, #200]	; (8004a54 <tcp_input+0x5cc>)
 800498a:	4b35      	ldr	r3, [pc, #212]	; (8004a60 <tcp_input+0x5d8>)
 800498c:	4a35      	ldr	r2, [pc, #212]	; (8004a64 <tcp_input+0x5dc>)
 800498e:	6800      	ldr	r0, [r0, #0]
        tcp_rst(ackno, seqno + tcplen, ip_current_dest_addr(), ip_current_src_addr(),
 8004990:	f000 fdb6 	bl	8005500 <tcp_rst>
 8004994:	e767      	b.n	8004866 <tcp_input+0x3de>
    if (flags & TCP_ACK) {
 8004996:	7833      	ldrb	r3, [r6, #0]
 8004998:	06de      	lsls	r6, r3, #27
 800499a:	d543      	bpl.n	8004a24 <tcp_input+0x59c>
      if (TCP_SEQ_BETWEEN(ackno, pcb->lastack+1, pcb->snd_nxt)) {
 800499c:	4b2d      	ldr	r3, [pc, #180]	; (8004a54 <tcp_input+0x5cc>)
 800499e:	6818      	ldr	r0, [r3, #0]
 80049a0:	6ca3      	ldr	r3, [r4, #72]	; 0x48
 80049a2:	43db      	mvns	r3, r3
 80049a4:	42c3      	cmn	r3, r0
 80049a6:	d431      	bmi.n	8004a0c <tcp_input+0x584>
 80049a8:	6d23      	ldr	r3, [r4, #80]	; 0x50
 80049aa:	1ac3      	subs	r3, r0, r3
 80049ac:	2b00      	cmp	r3, #0
 80049ae:	dc2d      	bgt.n	8004a0c <tcp_input+0x584>
        pcb->state = ESTABLISHED;
 80049b0:	2304      	movs	r3, #4
 80049b2:	7623      	strb	r3, [r4, #24]
        LWIP_ASSERT("pcb->accept != NULL", pcb->accept != NULL);
 80049b4:	6963      	ldr	r3, [r4, #20]
        TCP_EVENT_ACCEPT(pcb, ERR_OK, err);
 80049b6:	b91b      	cbnz	r3, 80049c0 <tcp_input+0x538>
            tcp_abort(pcb);
 80049b8:	4620      	mov	r0, r4
 80049ba:	f7ff fa1f 	bl	8003dfc <tcp_abort>
            goto aborted;
 80049be:	e728      	b.n	8004812 <tcp_input+0x38a>
        TCP_EVENT_ACCEPT(pcb, ERR_OK, err);
 80049c0:	2200      	movs	r2, #0
 80049c2:	4621      	mov	r1, r4
 80049c4:	6920      	ldr	r0, [r4, #16]
 80049c6:	4798      	blx	r3
        if (err != ERR_OK) {
 80049c8:	b110      	cbz	r0, 80049d0 <tcp_input+0x548>
          if (err != ERR_ABRT) {
 80049ca:	300a      	adds	r0, #10
 80049cc:	d1f4      	bne.n	80049b8 <tcp_input+0x530>
 80049ce:	e720      	b.n	8004812 <tcp_input+0x38a>
        tcp_receive(pcb);
 80049d0:	4620      	mov	r0, r4
        old_cwnd = pcb->cwnd;
 80049d2:	f8b4 504c 	ldrh.w	r5, [r4, #76]	; 0x4c
        tcp_receive(pcb);
 80049d6:	f7ff fab9 	bl	8003f4c <tcp_receive>
        if (pcb->acked != 0) {
 80049da:	f8b4 3064 	ldrh.w	r3, [r4, #100]	; 0x64
 80049de:	b113      	cbz	r3, 80049e6 <tcp_input+0x55e>
          pcb->acked--;
 80049e0:	3b01      	subs	r3, #1
 80049e2:	f8a4 3064 	strh.w	r3, [r4, #100]	; 0x64
        pcb->cwnd = ((old_cwnd == 1) ? (pcb->mss * 2) : pcb->mss);
 80049e6:	8ee3      	ldrh	r3, [r4, #54]	; 0x36
 80049e8:	2d01      	cmp	r5, #1
 80049ea:	bf04      	itt	eq
 80049ec:	005b      	lsleq	r3, r3, #1
 80049ee:	b29b      	uxtheq	r3, r3
 80049f0:	f8a4 304c 	strh.w	r3, [r4, #76]	; 0x4c
    if (recv_flags & TF_GOT_FIN) { /* passive close */
 80049f4:	f898 3000 	ldrb.w	r3, [r8]
 80049f8:	0699      	lsls	r1, r3, #26
 80049fa:	f57f af34 	bpl.w	8004866 <tcp_input+0x3de>
      tcp_ack_now(pcb);
 80049fe:	7fa3      	ldrb	r3, [r4, #30]
 8004a00:	f043 0302 	orr.w	r3, r3, #2
 8004a04:	77a3      	strb	r3, [r4, #30]
      pcb->state = CLOSE_WAIT;
 8004a06:	2307      	movs	r3, #7
      pcb->state = FIN_WAIT_2;
 8004a08:	7623      	strb	r3, [r4, #24]
 8004a0a:	e72c      	b.n	8004866 <tcp_input+0x3de>
                tcphdr->dest, tcphdr->src);
 8004a0c:	682b      	ldr	r3, [r5, #0]
        tcp_rst(ackno, seqno + tcplen, ip_current_dest_addr(), ip_current_src_addr(),
 8004a0e:	9a04      	ldr	r2, [sp, #16]
 8004a10:	6839      	ldr	r1, [r7, #0]
 8004a12:	8815      	ldrh	r5, [r2, #0]
 8004a14:	881a      	ldrh	r2, [r3, #0]
 8004a16:	9201      	str	r2, [sp, #4]
 8004a18:	885b      	ldrh	r3, [r3, #2]
 8004a1a:	9300      	str	r3, [sp, #0]
 8004a1c:	4a11      	ldr	r2, [pc, #68]	; (8004a64 <tcp_input+0x5dc>)
 8004a1e:	4b10      	ldr	r3, [pc, #64]	; (8004a60 <tcp_input+0x5d8>)
 8004a20:	4429      	add	r1, r5
 8004a22:	e7b5      	b.n	8004990 <tcp_input+0x508>
    } else if ((flags & TCP_SYN) && (seqno == pcb->rcv_nxt - 1)) {
 8004a24:	0798      	lsls	r0, r3, #30
 8004a26:	f57f af1e 	bpl.w	8004866 <tcp_input+0x3de>
 8004a2a:	4a0b      	ldr	r2, [pc, #44]	; (8004a58 <tcp_input+0x5d0>)
 8004a2c:	6aa3      	ldr	r3, [r4, #40]	; 0x28
 8004a2e:	6812      	ldr	r2, [r2, #0]
 8004a30:	3b01      	subs	r3, #1
 8004a32:	4293      	cmp	r3, r2
 8004a34:	f47f af17 	bne.w	8004866 <tcp_input+0x3de>
      tcp_rexmit(pcb);
 8004a38:	4620      	mov	r0, r4
 8004a3a:	f000 fdc5 	bl	80055c8 <tcp_rexmit>
 8004a3e:	e712      	b.n	8004866 <tcp_input+0x3de>
    tcp_receive(pcb);
 8004a40:	4620      	mov	r0, r4
 8004a42:	f7ff fa83 	bl	8003f4c <tcp_receive>
 8004a46:	e7d5      	b.n	80049f4 <tcp_input+0x56c>
 8004a48:	20004e5c 	.word	0x20004e5c
 8004a4c:	20004e58 	.word	0x20004e58
 8004a50:	20002544 	.word	0x20002544
 8004a54:	20002518 	.word	0x20002518
 8004a58:	2000253c 	.word	0x2000253c
 8004a5c:	20004e60 	.word	0x20004e60
 8004a60:	2000262c 	.word	0x2000262c
 8004a64:	20002634 	.word	0x20002634
    tcp_receive(pcb);
 8004a68:	4620      	mov	r0, r4
 8004a6a:	f7ff fa6f 	bl	8003f4c <tcp_receive>
    if (recv_flags & TF_GOT_FIN) {
 8004a6e:	f898 3000 	ldrb.w	r3, [r8]
 8004a72:	f013 0f20 	tst.w	r3, #32
      if ((flags & TCP_ACK) && (ackno == pcb->snd_nxt)) {
 8004a76:	7833      	ldrb	r3, [r6, #0]
    if (recv_flags & TF_GOT_FIN) {
 8004a78:	d034      	beq.n	8004ae4 <tcp_input+0x65c>
      if ((flags & TCP_ACK) && (ackno == pcb->snd_nxt)) {
 8004a7a:	f013 0f10 	tst.w	r3, #16
 8004a7e:	7fa3      	ldrb	r3, [r4, #30]
        tcp_ack_now(pcb);
 8004a80:	f043 0302 	orr.w	r3, r3, #2
      if ((flags & TCP_ACK) && (ackno == pcb->snd_nxt)) {
 8004a84:	d02b      	beq.n	8004ade <tcp_input+0x656>
 8004a86:	4a80      	ldr	r2, [pc, #512]	; (8004c88 <tcp_input+0x800>)
 8004a88:	6d21      	ldr	r1, [r4, #80]	; 0x50
 8004a8a:	6812      	ldr	r2, [r2, #0]
 8004a8c:	4291      	cmp	r1, r2
 8004a8e:	d126      	bne.n	8004ade <tcp_input+0x656>
        tcp_ack_now(pcb);
 8004a90:	77a3      	strb	r3, [r4, #30]
        tcp_pcb_purge(pcb);
 8004a92:	4620      	mov	r0, r4
 8004a94:	f7fe fe7e 	bl	8003794 <tcp_pcb_purge>
        TCP_RMV_ACTIVE(pcb);
 8004a98:	4a7c      	ldr	r2, [pc, #496]	; (8004c8c <tcp_input+0x804>)
 8004a9a:	6813      	ldr	r3, [r2, #0]
 8004a9c:	429c      	cmp	r4, r3
 8004a9e:	d102      	bne.n	8004aa6 <tcp_input+0x61e>
      TCP_RMV_ACTIVE(pcb);
 8004aa0:	68e3      	ldr	r3, [r4, #12]
 8004aa2:	6013      	str	r3, [r2, #0]
 8004aa4:	e00c      	b.n	8004ac0 <tcp_input+0x638>
        TCP_RMV_ACTIVE(pcb);
 8004aa6:	4a7a      	ldr	r2, [pc, #488]	; (8004c90 <tcp_input+0x808>)
 8004aa8:	2100      	movs	r1, #0
 8004aaa:	6013      	str	r3, [r2, #0]
 8004aac:	b90b      	cbnz	r3, 8004ab2 <tcp_input+0x62a>
 8004aae:	b139      	cbz	r1, 8004ac0 <tcp_input+0x638>
 8004ab0:	e7f7      	b.n	8004aa2 <tcp_input+0x61a>
 8004ab2:	68d8      	ldr	r0, [r3, #12]
 8004ab4:	4284      	cmp	r4, r0
 8004ab6:	d10f      	bne.n	8004ad8 <tcp_input+0x650>
 8004ab8:	b101      	cbz	r1, 8004abc <tcp_input+0x634>
 8004aba:	6013      	str	r3, [r2, #0]
      TCP_RMV_ACTIVE(pcb);
 8004abc:	68e2      	ldr	r2, [r4, #12]
 8004abe:	60da      	str	r2, [r3, #12]
 8004ac0:	4b74      	ldr	r3, [pc, #464]	; (8004c94 <tcp_input+0x80c>)
 8004ac2:	2201      	movs	r2, #1
 8004ac4:	701a      	strb	r2, [r3, #0]
      pcb->state = TIME_WAIT;
 8004ac6:	230a      	movs	r3, #10
 8004ac8:	7623      	strb	r3, [r4, #24]
      TCP_REG(&tcp_tw_pcbs, pcb);
 8004aca:	4b73      	ldr	r3, [pc, #460]	; (8004c98 <tcp_input+0x810>)
 8004acc:	681a      	ldr	r2, [r3, #0]
 8004ace:	60e2      	str	r2, [r4, #12]
 8004ad0:	601c      	str	r4, [r3, #0]
 8004ad2:	f000 fe73 	bl	80057bc <tcp_timer_needed>
 8004ad6:	e6c6      	b.n	8004866 <tcp_input+0x3de>
        TCP_RMV_ACTIVE(pcb);
 8004ad8:	2101      	movs	r1, #1
 8004ada:	4603      	mov	r3, r0
 8004adc:	e7e6      	b.n	8004aac <tcp_input+0x624>
        tcp_ack_now(pcb);
 8004ade:	77a3      	strb	r3, [r4, #30]
        pcb->state = CLOSING;
 8004ae0:	2308      	movs	r3, #8
 8004ae2:	e791      	b.n	8004a08 <tcp_input+0x580>
    } else if ((flags & TCP_ACK) && (ackno == pcb->snd_nxt)) {
 8004ae4:	06da      	lsls	r2, r3, #27
 8004ae6:	f57f aebe 	bpl.w	8004866 <tcp_input+0x3de>
 8004aea:	4b67      	ldr	r3, [pc, #412]	; (8004c88 <tcp_input+0x800>)
 8004aec:	6d22      	ldr	r2, [r4, #80]	; 0x50
 8004aee:	681b      	ldr	r3, [r3, #0]
 8004af0:	429a      	cmp	r2, r3
 8004af2:	f47f aeb8 	bne.w	8004866 <tcp_input+0x3de>
      pcb->state = FIN_WAIT_2;
 8004af6:	2306      	movs	r3, #6
 8004af8:	e786      	b.n	8004a08 <tcp_input+0x580>
    tcp_receive(pcb);
 8004afa:	4620      	mov	r0, r4
 8004afc:	f7ff fa26 	bl	8003f4c <tcp_receive>
    if (recv_flags & TF_GOT_FIN) {
 8004b00:	f898 3000 	ldrb.w	r3, [r8]
 8004b04:	069b      	lsls	r3, r3, #26
 8004b06:	f57f aeae 	bpl.w	8004866 <tcp_input+0x3de>
      tcp_ack_now(pcb);
 8004b0a:	7fa3      	ldrb	r3, [r4, #30]
 8004b0c:	f043 0302 	orr.w	r3, r3, #2
 8004b10:	77a3      	strb	r3, [r4, #30]
      tcp_pcb_purge(pcb);
 8004b12:	4620      	mov	r0, r4
 8004b14:	f7fe fe3e 	bl	8003794 <tcp_pcb_purge>
      TCP_RMV_ACTIVE(pcb);
 8004b18:	4a5c      	ldr	r2, [pc, #368]	; (8004c8c <tcp_input+0x804>)
 8004b1a:	6813      	ldr	r3, [r2, #0]
 8004b1c:	429c      	cmp	r4, r3
 8004b1e:	d0bf      	beq.n	8004aa0 <tcp_input+0x618>
 8004b20:	4a5b      	ldr	r2, [pc, #364]	; (8004c90 <tcp_input+0x808>)
 8004b22:	2100      	movs	r1, #0
 8004b24:	6013      	str	r3, [r2, #0]
 8004b26:	2b00      	cmp	r3, #0
 8004b28:	d0c1      	beq.n	8004aae <tcp_input+0x626>
 8004b2a:	68d8      	ldr	r0, [r3, #12]
 8004b2c:	4284      	cmp	r4, r0
 8004b2e:	d0c3      	beq.n	8004ab8 <tcp_input+0x630>
 8004b30:	2101      	movs	r1, #1
 8004b32:	4603      	mov	r3, r0
 8004b34:	e7f7      	b.n	8004b26 <tcp_input+0x69e>
    tcp_receive(pcb);
 8004b36:	4620      	mov	r0, r4
 8004b38:	f7ff fa08 	bl	8003f4c <tcp_receive>
    if (flags & TCP_ACK && ackno == pcb->snd_nxt) {
 8004b3c:	7833      	ldrb	r3, [r6, #0]
 8004b3e:	06df      	lsls	r7, r3, #27
 8004b40:	f57f ae91 	bpl.w	8004866 <tcp_input+0x3de>
 8004b44:	4b50      	ldr	r3, [pc, #320]	; (8004c88 <tcp_input+0x800>)
 8004b46:	6d22      	ldr	r2, [r4, #80]	; 0x50
 8004b48:	681b      	ldr	r3, [r3, #0]
 8004b4a:	429a      	cmp	r2, r3
 8004b4c:	f47f ae8b 	bne.w	8004866 <tcp_input+0x3de>
      tcp_pcb_purge(pcb);
 8004b50:	4620      	mov	r0, r4
 8004b52:	f7fe fe1f 	bl	8003794 <tcp_pcb_purge>
      TCP_RMV_ACTIVE(pcb);
 8004b56:	4a4d      	ldr	r2, [pc, #308]	; (8004c8c <tcp_input+0x804>)
 8004b58:	6813      	ldr	r3, [r2, #0]
 8004b5a:	429c      	cmp	r4, r3
 8004b5c:	d0a0      	beq.n	8004aa0 <tcp_input+0x618>
 8004b5e:	4a4c      	ldr	r2, [pc, #304]	; (8004c90 <tcp_input+0x808>)
 8004b60:	2100      	movs	r1, #0
 8004b62:	6013      	str	r3, [r2, #0]
 8004b64:	2b00      	cmp	r3, #0
 8004b66:	d0a2      	beq.n	8004aae <tcp_input+0x626>
 8004b68:	68d8      	ldr	r0, [r3, #12]
 8004b6a:	4284      	cmp	r4, r0
 8004b6c:	d0a4      	beq.n	8004ab8 <tcp_input+0x630>
 8004b6e:	2101      	movs	r1, #1
 8004b70:	4603      	mov	r3, r0
 8004b72:	e7f7      	b.n	8004b64 <tcp_input+0x6dc>
    tcp_receive(pcb);
 8004b74:	4620      	mov	r0, r4
 8004b76:	f7ff f9e9 	bl	8003f4c <tcp_receive>
    if (flags & TCP_ACK && ackno == pcb->snd_nxt) {
 8004b7a:	7833      	ldrb	r3, [r6, #0]
 8004b7c:	06de      	lsls	r6, r3, #27
 8004b7e:	f57f ae72 	bpl.w	8004866 <tcp_input+0x3de>
 8004b82:	4b41      	ldr	r3, [pc, #260]	; (8004c88 <tcp_input+0x800>)
 8004b84:	6d22      	ldr	r2, [r4, #80]	; 0x50
 8004b86:	681b      	ldr	r3, [r3, #0]
 8004b88:	429a      	cmp	r2, r3
      recv_flags |= TF_CLOSED;
 8004b8a:	bf02      	ittt	eq
 8004b8c:	f898 3000 	ldrbeq.w	r3, [r8]
 8004b90:	f043 0310 	orreq.w	r3, r3, #16
 8004b94:	f888 3000 	strbeq.w	r3, [r8]
 8004b98:	e665      	b.n	8004866 <tcp_input+0x3de>
      } else if (recv_flags & TF_CLOSED) {
 8004b9a:	06d8      	lsls	r0, r3, #27
 8004b9c:	d50b      	bpl.n	8004bb6 <tcp_input+0x72e>
        if (!(pcb->flags & TF_RXCLOSED)) {
 8004b9e:	7fa3      	ldrb	r3, [r4, #30]
 8004ba0:	06d9      	lsls	r1, r3, #27
 8004ba2:	f53f ae6c 	bmi.w	800487e <tcp_input+0x3f6>
          TCP_EVENT_ERR(pcb->errf, pcb->callback_arg, ERR_CLSD);
 8004ba6:	f8d4 3088 	ldr.w	r3, [r4, #136]	; 0x88
 8004baa:	2b00      	cmp	r3, #0
 8004bac:	f43f ae67 	beq.w	800487e <tcp_input+0x3f6>
 8004bb0:	f06f 010b 	mvn.w	r1, #11
 8004bb4:	e661      	b.n	800487a <tcp_input+0x3f2>
        if (pcb->acked > 0) {
 8004bb6:	f8b4 2064 	ldrh.w	r2, [r4, #100]	; 0x64
 8004bba:	b99a      	cbnz	r2, 8004be4 <tcp_input+0x75c>
        if (recv_data != NULL) {
 8004bbc:	f8da 2000 	ldr.w	r2, [sl]
 8004bc0:	b9ca      	cbnz	r2, 8004bf6 <tcp_input+0x76e>
        if (recv_flags & TF_GOT_FIN) {
 8004bc2:	f898 3000 	ldrb.w	r3, [r8]
 8004bc6:	069a      	lsls	r2, r3, #26
 8004bc8:	d505      	bpl.n	8004bd6 <tcp_input+0x74e>
          if (pcb->refused_data != NULL) {
 8004bca:	6f63      	ldr	r3, [r4, #116]	; 0x74
 8004bcc:	b383      	cbz	r3, 8004c30 <tcp_input+0x7a8>
            pcb->refused_data->flags |= PBUF_FLAG_TCP_FIN;
 8004bce:	7b5a      	ldrb	r2, [r3, #13]
 8004bd0:	f042 0220 	orr.w	r2, r2, #32
 8004bd4:	735a      	strb	r2, [r3, #13]
        tcp_input_pcb = NULL;
 8004bd6:	2300      	movs	r3, #0
        tcp_output(pcb);
 8004bd8:	4620      	mov	r0, r4
        tcp_input_pcb = NULL;
 8004bda:	f8cb 3000 	str.w	r3, [fp]
        tcp_output(pcb);
 8004bde:	f000 fb53 	bl	8005288 <tcp_output>
 8004be2:	e616      	b.n	8004812 <tcp_input+0x38a>
          TCP_EVENT_SENT(pcb, pcb->acked, err);
 8004be4:	6fa3      	ldr	r3, [r4, #120]	; 0x78
 8004be6:	2b00      	cmp	r3, #0
 8004be8:	d0e8      	beq.n	8004bbc <tcp_input+0x734>
 8004bea:	4621      	mov	r1, r4
 8004bec:	6920      	ldr	r0, [r4, #16]
 8004bee:	4798      	blx	r3
          if (err == ERR_ABRT) {
 8004bf0:	300a      	adds	r0, #10
 8004bf2:	d1e3      	bne.n	8004bbc <tcp_input+0x734>
 8004bf4:	e60d      	b.n	8004812 <tcp_input+0x38a>
          if (pcb->flags & TF_RXCLOSED) {
 8004bf6:	7fa3      	ldrb	r3, [r4, #30]
 8004bf8:	f013 0310 	ands.w	r3, r3, #16
 8004bfc:	d003      	beq.n	8004c06 <tcp_input+0x77e>
            pbuf_free(recv_data);
 8004bfe:	4610      	mov	r0, r2
 8004c00:	f7fe fb03 	bl	800320a <pbuf_free>
 8004c04:	e6d8      	b.n	80049b8 <tcp_input+0x530>
          TCP_EVENT_RECV(pcb, recv_data, ERR_OK, err);
 8004c06:	6fe5      	ldr	r5, [r4, #124]	; 0x7c
 8004c08:	b165      	cbz	r5, 8004c24 <tcp_input+0x79c>
 8004c0a:	4621      	mov	r1, r4
 8004c0c:	6920      	ldr	r0, [r4, #16]
 8004c0e:	47a8      	blx	r5
          if (err == ERR_ABRT) {
 8004c10:	f110 0f0a 	cmn.w	r0, #10
 8004c14:	f43f adfd 	beq.w	8004812 <tcp_input+0x38a>
          if (err != ERR_OK) {
 8004c18:	2800      	cmp	r0, #0
 8004c1a:	d0d2      	beq.n	8004bc2 <tcp_input+0x73a>
            pcb->refused_data = recv_data;
 8004c1c:	f8da 3000 	ldr.w	r3, [sl]
 8004c20:	6763      	str	r3, [r4, #116]	; 0x74
 8004c22:	e7ce      	b.n	8004bc2 <tcp_input+0x73a>
          TCP_EVENT_RECV(pcb, recv_data, ERR_OK, err);
 8004c24:	462b      	mov	r3, r5
 8004c26:	4621      	mov	r1, r4
 8004c28:	4628      	mov	r0, r5
 8004c2a:	f7ff f80f 	bl	8003c4c <tcp_recv_null>
 8004c2e:	e7ef      	b.n	8004c10 <tcp_input+0x788>
            if (pcb->rcv_wnd != TCP_WND) {
 8004c30:	8da3      	ldrh	r3, [r4, #44]	; 0x2c
            TCP_EVENT_CLOSED(pcb, err);
 8004c32:	6fe5      	ldr	r5, [r4, #124]	; 0x7c
            if (pcb->rcv_wnd != TCP_WND) {
 8004c34:	f640 3268 	movw	r2, #2920	; 0xb68
 8004c38:	4293      	cmp	r3, r2
              pcb->rcv_wnd++;
 8004c3a:	bf1c      	itt	ne
 8004c3c:	3301      	addne	r3, #1
 8004c3e:	85a3      	strhne	r3, [r4, #44]	; 0x2c
            TCP_EVENT_CLOSED(pcb, err);
 8004c40:	2d00      	cmp	r5, #0
 8004c42:	d0c8      	beq.n	8004bd6 <tcp_input+0x74e>
 8004c44:	2300      	movs	r3, #0
 8004c46:	461a      	mov	r2, r3
 8004c48:	4621      	mov	r1, r4
 8004c4a:	6920      	ldr	r0, [r4, #16]
 8004c4c:	47a8      	blx	r5
            if (err == ERR_ABRT) {
 8004c4e:	300a      	adds	r0, #10
 8004c50:	d1c1      	bne.n	8004bd6 <tcp_input+0x74e>
 8004c52:	e5de      	b.n	8004812 <tcp_input+0x38a>
      if (prev != NULL) {
 8004c54:	b138      	cbz	r0, 8004c66 <tcp_input+0x7de>
        ((struct tcp_pcb_listen *)prev)->next = lpcb->next;
 8004c56:	f8d9 100c 	ldr.w	r1, [r9, #12]
 8004c5a:	60c1      	str	r1, [r0, #12]
        tcp_listen_pcbs.listen_pcbs = lpcb;
 8004c5c:	480f      	ldr	r0, [pc, #60]	; (8004c9c <tcp_input+0x814>)
        lpcb->next = tcp_listen_pcbs.listen_pcbs;
 8004c5e:	f8c9 400c 	str.w	r4, [r9, #12]
        tcp_listen_pcbs.listen_pcbs = lpcb;
 8004c62:	f8c0 9000 	str.w	r9, [r0]
  if (flags & TCP_RST) {
 8004c66:	075c      	lsls	r4, r3, #29
 8004c68:	f53f ad1d 	bmi.w	80046a6 <tcp_input+0x21e>
  if (flags & TCP_ACK) {
 8004c6c:	f013 0410 	ands.w	r4, r3, #16
 8004c70:	f43f ad6e 	beq.w	8004750 <tcp_input+0x2c8>
    tcp_rst(ackno, seqno + tcplen, ip_current_dest_addr(),
 8004c74:	8813      	ldrh	r3, [r2, #0]
 8004c76:	6838      	ldr	r0, [r7, #0]
 8004c78:	9301      	str	r3, [sp, #4]
 8004c7a:	9b03      	ldr	r3, [sp, #12]
 8004c7c:	9300      	str	r3, [sp, #0]
 8004c7e:	4a08      	ldr	r2, [pc, #32]	; (8004ca0 <tcp_input+0x818>)
 8004c80:	4b08      	ldr	r3, [pc, #32]	; (8004ca4 <tcp_input+0x81c>)
 8004c82:	eb0b 0100 	add.w	r1, fp, r0
 8004c86:	e4fb      	b.n	8004680 <tcp_input+0x1f8>
 8004c88:	20002518 	.word	0x20002518
 8004c8c:	20004e5c 	.word	0x20004e5c
 8004c90:	20004e68 	.word	0x20004e68
 8004c94:	20004e58 	.word	0x20004e58
 8004c98:	20004e70 	.word	0x20004e70
 8004c9c:	20004e64 	.word	0x20004e64
 8004ca0:	20002634 	.word	0x20002634
 8004ca4:	2000262c 	.word	0x2000262c

08004ca8 <tcp_pbuf_prealloc>:
#if TCP_OVERSIZE
static struct pbuf *
tcp_pbuf_prealloc(pbuf_layer layer, u16_t length, u16_t max_length,
                  u16_t *oversize, struct tcp_pcb *pcb, u8_t apiflags,
                  u8_t first_seg)
{
 8004ca8:	b570      	push	{r4, r5, r6, lr}
 8004caa:	460d      	mov	r5, r1
  LWIP_UNUSED_ARG(apiflags);
  LWIP_UNUSED_ARG(first_seg);
  /* always create MSS-sized pbufs */
  alloc = max_length;
#else /* LWIP_NETIF_TX_SINGLE_PBUF */
  if (length < max_length) {
 8004cac:	4295      	cmp	r5, r2
{
 8004cae:	461e      	mov	r6, r3
 8004cb0:	f89d 1018 	ldrb.w	r1, [sp, #24]
 8004cb4:	9b04      	ldr	r3, [sp, #16]
  if (length < max_length) {
 8004cb6:	d21d      	bcs.n	8004cf4 <tcp_pbuf_prealloc+0x4c>
     *
     * Did the user set TCP_WRITE_FLAG_MORE?
     *
     * Will the Nagle algorithm defer transmission of this segment?
     */
    if ((apiflags & TCP_WRITE_FLAG_MORE) ||
 8004cb8:	f89d 4014 	ldrb.w	r4, [sp, #20]
 8004cbc:	07a4      	lsls	r4, r4, #30
 8004cbe:	d407      	bmi.n	8004cd0 <tcp_pbuf_prealloc+0x28>
 8004cc0:	7f9c      	ldrb	r4, [r3, #30]
 8004cc2:	0664      	lsls	r4, r4, #25
 8004cc4:	d416      	bmi.n	8004cf4 <tcp_pbuf_prealloc+0x4c>
        (!(pcb->flags & TF_NODELAY) &&
 8004cc6:	b119      	cbz	r1, 8004cd0 <tcp_pbuf_prealloc+0x28>
         (!first_seg ||
 8004cc8:	6ed9      	ldr	r1, [r3, #108]	; 0x6c
 8004cca:	b909      	cbnz	r1, 8004cd0 <tcp_pbuf_prealloc+0x28>
          pcb->unsent != NULL ||
 8004ccc:	6f1b      	ldr	r3, [r3, #112]	; 0x70
 8004cce:	b18b      	cbz	r3, 8004cf4 <tcp_pbuf_prealloc+0x4c>
          pcb->unacked != NULL))) {
      alloc = LWIP_MIN(max_length, LWIP_MEM_ALIGN_SIZE(length + TCP_OVERSIZE));
 8004cd0:	f205 54b7 	addw	r4, r5, #1463	; 0x5b7
 8004cd4:	f024 0103 	bic.w	r1, r4, #3
 8004cd8:	428a      	cmp	r2, r1
 8004cda:	bfa8      	it	ge
 8004cdc:	460a      	movge	r2, r1
 8004cde:	b291      	uxth	r1, r2
    }
  }
#endif /* LWIP_NETIF_TX_SINGLE_PBUF */
  p = pbuf_alloc(layer, alloc, PBUF_RAM);
 8004ce0:	2200      	movs	r2, #0
 8004ce2:	f7fe fab9 	bl	8003258 <pbuf_alloc>
  if (p == NULL) {
 8004ce6:	b120      	cbz	r0, 8004cf2 <tcp_pbuf_prealloc+0x4a>
    return NULL;
  }
  LWIP_ASSERT("need unchained pbuf", p->next == NULL);
  *oversize = p->len - length;
 8004ce8:	8942      	ldrh	r2, [r0, #10]
 8004cea:	1b52      	subs	r2, r2, r5
 8004cec:	8032      	strh	r2, [r6, #0]
  /* trim p->len to the currently used size */
  p->len = p->tot_len = length;
 8004cee:	8105      	strh	r5, [r0, #8]
 8004cf0:	8145      	strh	r5, [r0, #10]
  return p;
}
 8004cf2:	bd70      	pop	{r4, r5, r6, pc}
 8004cf4:	4629      	mov	r1, r5
 8004cf6:	e7f3      	b.n	8004ce0 <tcp_pbuf_prealloc+0x38>

08004cf8 <tcp_create_segment>:
{
 8004cf8:	e92d 47f0 	stmdb	sp!, {r4, r5, r6, r7, r8, r9, sl, lr}
 8004cfc:	f89d 8020 	ldrb.w	r8, [sp, #32]
  u8_t optlen = LWIP_TCP_OPT_LENGTH(optflags);
 8004d00:	f018 0f01 	tst.w	r8, #1
 8004d04:	bf14      	ite	ne
 8004d06:	2504      	movne	r5, #4
 8004d08:	2500      	moveq	r5, #0
 8004d0a:	f018 0f02 	tst.w	r8, #2
{
 8004d0e:	469a      	mov	sl, r3
 8004d10:	4681      	mov	r9, r0
  u8_t optlen = LWIP_TCP_OPT_LENGTH(optflags);
 8004d12:	bf14      	ite	ne
 8004d14:	230c      	movne	r3, #12
 8004d16:	2300      	moveq	r3, #0
  if ((seg = (struct tcp_seg *)memp_malloc(MEMP_TCP_SEG)) == NULL) {
 8004d18:	2004      	movs	r0, #4
{
 8004d1a:	460f      	mov	r7, r1
 8004d1c:	4616      	mov	r6, r2
  u8_t optlen = LWIP_TCP_OPT_LENGTH(optflags);
 8004d1e:	441d      	add	r5, r3
  if ((seg = (struct tcp_seg *)memp_malloc(MEMP_TCP_SEG)) == NULL) {
 8004d20:	f7fe f94a 	bl	8002fb8 <memp_malloc>
 8004d24:	4604      	mov	r4, r0
 8004d26:	b928      	cbnz	r0, 8004d34 <tcp_create_segment+0x3c>
    pbuf_free(p);
 8004d28:	4638      	mov	r0, r7
 8004d2a:	f7fe fa6e 	bl	800320a <pbuf_free>
} 
 8004d2e:	4620      	mov	r0, r4
 8004d30:	e8bd 87f0 	ldmia.w	sp!, {r4, r5, r6, r7, r8, r9, sl, pc}
  seg->flags = optflags;
 8004d34:	f880 800c 	strb.w	r8, [r0, #12]
  seg->len = p->tot_len - optlen;
 8004d38:	893b      	ldrh	r3, [r7, #8]
  seg->p = p;
 8004d3a:	6047      	str	r7, [r0, #4]
  seg->next = NULL;
 8004d3c:	f04f 0800 	mov.w	r8, #0
  seg->len = p->tot_len - optlen;
 8004d40:	1b5b      	subs	r3, r3, r5
  seg->next = NULL;
 8004d42:	f8c0 8000 	str.w	r8, [r0]
  seg->len = p->tot_len - optlen;
 8004d46:	8103      	strh	r3, [r0, #8]
  seg->oversize_left = 0;
 8004d48:	f8a0 800a 	strh.w	r8, [r0, #10]
  if (pbuf_header(p, TCP_HLEN)) {
 8004d4c:	2114      	movs	r1, #20
 8004d4e:	4638      	mov	r0, r7
 8004d50:	f7fe fa30 	bl	80031b4 <pbuf_header>
 8004d54:	4607      	mov	r7, r0
 8004d56:	b120      	cbz	r0, 8004d62 <tcp_create_segment+0x6a>
    tcp_seg_free(seg);
 8004d58:	4620      	mov	r0, r4
 8004d5a:	f7fe fcf3 	bl	8003744 <tcp_seg_free>
    return NULL;
 8004d5e:	4644      	mov	r4, r8
 8004d60:	e7e5      	b.n	8004d2e <tcp_create_segment+0x36>
  seg->tcphdr = (struct tcp_hdr *)seg->p->payload;
 8004d62:	6863      	ldr	r3, [r4, #4]
  seg->tcphdr->src = htons(pcb->local_port);
 8004d64:	f8b9 001a 	ldrh.w	r0, [r9, #26]
  seg->tcphdr = (struct tcp_hdr *)seg->p->payload;
 8004d68:	f8d3 8004 	ldr.w	r8, [r3, #4]
 8004d6c:	f8c4 8010 	str.w	r8, [r4, #16]
  seg->tcphdr->src = htons(pcb->local_port);
 8004d70:	f7fc fdbc 	bl	80018ec <lwip_htons>
 8004d74:	f8a8 0000 	strh.w	r0, [r8]
  seg->tcphdr->dest = htons(pcb->remote_port);
 8004d78:	f8b9 001c 	ldrh.w	r0, [r9, #28]
 8004d7c:	f8d4 8010 	ldr.w	r8, [r4, #16]
 8004d80:	f7fc fdb4 	bl	80018ec <lwip_htons>
 8004d84:	f8a8 0002 	strh.w	r0, [r8, #2]
  seg->tcphdr->seqno = htonl(seqno);
 8004d88:	4650      	mov	r0, sl
 8004d8a:	f8d4 8010 	ldr.w	r8, [r4, #16]
  TCPH_HDRLEN_FLAGS_SET(seg->tcphdr, (5 + optlen / 4), flags);
 8004d8e:	f3c5 0587 	ubfx	r5, r5, #2, #8
  seg->tcphdr->seqno = htonl(seqno);
 8004d92:	f7fc fdb1 	bl	80018f8 <lwip_htonl>
  TCPH_HDRLEN_FLAGS_SET(seg->tcphdr, (5 + optlen / 4), flags);
 8004d96:	3505      	adds	r5, #5
 8004d98:	ea46 3505 	orr.w	r5, r6, r5, lsl #12
  seg->tcphdr->seqno = htonl(seqno);
 8004d9c:	f8c8 0004 	str.w	r0, [r8, #4]
  TCPH_HDRLEN_FLAGS_SET(seg->tcphdr, (5 + optlen / 4), flags);
 8004da0:	b2a8      	uxth	r0, r5
 8004da2:	f8d4 8010 	ldr.w	r8, [r4, #16]
 8004da6:	f7fc fda1 	bl	80018ec <lwip_htons>
  seg->tcphdr->urgp = 0;
 8004daa:	6923      	ldr	r3, [r4, #16]
  TCPH_HDRLEN_FLAGS_SET(seg->tcphdr, (5 + optlen / 4), flags);
 8004dac:	f8a8 000c 	strh.w	r0, [r8, #12]
  seg->tcphdr->urgp = 0;
 8004db0:	749f      	strb	r7, [r3, #18]
 8004db2:	74df      	strb	r7, [r3, #19]
  return seg;
 8004db4:	e7bb      	b.n	8004d2e <tcp_create_segment+0x36>

08004db6 <tcp_output_alloc_header.constprop.0>:
  struct pbuf *p = pbuf_alloc(PBUF_IP, TCP_HLEN + optlen + datalen, PBUF_RAM);
 8004db6:	3114      	adds	r1, #20
tcp_output_alloc_header(struct tcp_pcb *pcb, u16_t optlen, u16_t datalen,
 8004db8:	b5f8      	push	{r3, r4, r5, r6, r7, lr}
  struct pbuf *p = pbuf_alloc(PBUF_IP, TCP_HLEN + optlen + datalen, PBUF_RAM);
 8004dba:	b289      	uxth	r1, r1
tcp_output_alloc_header(struct tcp_pcb *pcb, u16_t optlen, u16_t datalen,
 8004dbc:	4605      	mov	r5, r0
 8004dbe:	4617      	mov	r7, r2
  struct pbuf *p = pbuf_alloc(PBUF_IP, TCP_HLEN + optlen + datalen, PBUF_RAM);
 8004dc0:	2001      	movs	r0, #1
 8004dc2:	2200      	movs	r2, #0
 8004dc4:	f7fe fa48 	bl	8003258 <pbuf_alloc>
  if (p != NULL) {
 8004dc8:	4606      	mov	r6, r0
 8004dca:	b1f8      	cbz	r0, 8004e0c <tcp_output_alloc_header.constprop.0+0x56>
    tcphdr = (struct tcp_hdr *)p->payload;
 8004dcc:	6844      	ldr	r4, [r0, #4]
    tcphdr->src = htons(pcb->local_port);
 8004dce:	8b68      	ldrh	r0, [r5, #26]
 8004dd0:	f7fc fd8c 	bl	80018ec <lwip_htons>
 8004dd4:	8020      	strh	r0, [r4, #0]
    tcphdr->dest = htons(pcb->remote_port);
 8004dd6:	8ba8      	ldrh	r0, [r5, #28]
 8004dd8:	f7fc fd88 	bl	80018ec <lwip_htons>
    tcphdr->seqno = seqno_be;
 8004ddc:	6067      	str	r7, [r4, #4]
    tcphdr->dest = htons(pcb->remote_port);
 8004dde:	8060      	strh	r0, [r4, #2]
    tcphdr->ackno = htonl(pcb->rcv_nxt);
 8004de0:	6aa8      	ldr	r0, [r5, #40]	; 0x28
 8004de2:	f7fc fd89 	bl	80018f8 <lwip_htonl>
 8004de6:	60a0      	str	r0, [r4, #8]
    TCPH_HDRLEN_FLAGS_SET(tcphdr, (5 + optlen / 4), TCP_ACK);
 8004de8:	f245 0010 	movw	r0, #20496	; 0x5010
 8004dec:	f7fc fd7e 	bl	80018ec <lwip_htons>
 8004df0:	81a0      	strh	r0, [r4, #12]
    tcphdr->wnd = htons(pcb->rcv_ann_wnd);
 8004df2:	8de8      	ldrh	r0, [r5, #46]	; 0x2e
 8004df4:	f7fc fd7a 	bl	80018ec <lwip_htons>
    tcphdr->chksum = 0;
 8004df8:	2300      	movs	r3, #0
 8004dfa:	7423      	strb	r3, [r4, #16]
 8004dfc:	7463      	strb	r3, [r4, #17]
    tcphdr->urgp = 0;
 8004dfe:	74a3      	strb	r3, [r4, #18]
 8004e00:	74e3      	strb	r3, [r4, #19]
    pcb->rcv_ann_right_edge = pcb->rcv_nxt + pcb->rcv_ann_wnd;
 8004e02:	8dea      	ldrh	r2, [r5, #46]	; 0x2e
 8004e04:	6aab      	ldr	r3, [r5, #40]	; 0x28
    tcphdr->wnd = htons(pcb->rcv_ann_wnd);
 8004e06:	81e0      	strh	r0, [r4, #14]
    pcb->rcv_ann_right_edge = pcb->rcv_nxt + pcb->rcv_ann_wnd;
 8004e08:	4413      	add	r3, r2
 8004e0a:	632b      	str	r3, [r5, #48]	; 0x30
}
 8004e0c:	4630      	mov	r0, r6
 8004e0e:	bdf8      	pop	{r3, r4, r5, r6, r7, pc}

08004e10 <tcp_write>:
 * - TCP_WRITE_FLAG_MORE (0x02) for TCP connection, PSH flag will be set on last segment sent,
 * @return ERR_OK if enqueued, another err_t on error
 */
err_t
tcp_write(struct tcp_pcb *pcb, const void *arg, u16_t len, u8_t apiflags)
{
 8004e10:	e92d 4ff0 	stmdb	sp!, {r4, r5, r6, r7, r8, r9, sl, fp, lr}
 8004e14:	b08f      	sub	sp, #60	; 0x3c
 8004e16:	4692      	mov	sl, r2
 8004e18:	9306      	str	r3, [sp, #24]
  u16_t pos = 0; /* position in 'arg' data */
  u16_t queuelen;
  u8_t optlen = 0;
  u8_t optflags = 0;
#if TCP_OVERSIZE
  u16_t oversize = 0;
 8004e1a:	2300      	movs	r3, #0
 8004e1c:	f8ad 3036 	strh.w	r3, [sp, #54]	; 0x36
  u8_t concat_chksum_swapped = 0;
  u16_t concat_chksummed = 0;
#endif /* TCP_CHECKSUM_ON_COPY */
  err_t err;
  /* don't allocate segments bigger than half the maximum window we ever received */
  u16_t mss_local = LWIP_MIN(pcb->mss, pcb->snd_wnd_max/2);
 8004e20:	f8b0 3062 	ldrh.w	r3, [r0, #98]	; 0x62
 8004e24:	8ec2      	ldrh	r2, [r0, #54]	; 0x36
  apiflags |= TCP_WRITE_FLAG_COPY;
#endif /* LWIP_NETIF_TX_SINGLE_PBUF */

  LWIP_DEBUGF(TCP_OUTPUT_DEBUG, ("tcp_write(pcb=%p, data=%p, len=%"U16_F", apiflags=%"U16_F")\n",
    (void *)pcb, arg, len, (u16_t)apiflags));
  LWIP_ERROR("tcp_write: arg == NULL (programmer violates API)", 
 8004e26:	9105      	str	r1, [sp, #20]
  u16_t mss_local = LWIP_MIN(pcb->mss, pcb->snd_wnd_max/2);
 8004e28:	085b      	lsrs	r3, r3, #1
 8004e2a:	4293      	cmp	r3, r2
 8004e2c:	bf28      	it	cs
 8004e2e:	4613      	movcs	r3, r2
{
 8004e30:	4604      	mov	r4, r0
  u16_t mss_local = LWIP_MIN(pcb->mss, pcb->snd_wnd_max/2);
 8004e32:	9309      	str	r3, [sp, #36]	; 0x24
  LWIP_ERROR("tcp_write: arg == NULL (programmer violates API)", 
 8004e34:	2900      	cmp	r1, #0
 8004e36:	f000 8174 	beq.w	8005122 <tcp_write+0x312>
  if ((pcb->state != ESTABLISHED) &&
 8004e3a:	7e03      	ldrb	r3, [r0, #24]
 8004e3c:	2b07      	cmp	r3, #7
 8004e3e:	d003      	beq.n	8004e48 <tcp_write+0x38>
      (pcb->state != CLOSE_WAIT) &&
 8004e40:	3b02      	subs	r3, #2
 8004e42:	2b02      	cmp	r3, #2
 8004e44:	f200 8170 	bhi.w	8005128 <tcp_write+0x318>
  } else if (len == 0) {
 8004e48:	f1ba 0f00 	cmp.w	sl, #0
 8004e4c:	d010      	beq.n	8004e70 <tcp_write+0x60>
  if (len > pcb->snd_buf) {
 8004e4e:	f8b4 3066 	ldrh.w	r3, [r4, #102]	; 0x66
 8004e52:	4553      	cmp	r3, sl
 8004e54:	d208      	bcs.n	8004e68 <tcp_write+0x58>
    pcb->flags |= TF_NAGLEMEMERR;
 8004e56:	7fa3      	ldrb	r3, [r4, #30]
 8004e58:	f063 037f 	orn	r3, r3, #127	; 0x7f
 8004e5c:	77a3      	strb	r3, [r4, #30]
  if (pcb->snd_queuelen != 0) {
    LWIP_ASSERT("tcp_write: valid queue length", pcb->unacked != NULL ||
      pcb->unsent != NULL);
  }
  LWIP_DEBUGF(TCP_QLEN_DEBUG | LWIP_DBG_STATE, ("tcp_write: %"S16_F" (with mem err)\n", pcb->snd_queuelen));
  return ERR_MEM;
 8004e5e:	f04f 30ff 	mov.w	r0, #4294967295
}
 8004e62:	b00f      	add	sp, #60	; 0x3c
 8004e64:	e8bd 8ff0 	ldmia.w	sp!, {r4, r5, r6, r7, r8, r9, sl, fp, pc}
  if ((pcb->snd_queuelen >= TCP_SND_QUEUELEN) || (pcb->snd_queuelen > TCP_SNDQUEUELEN_OVERFLOW)) {
 8004e68:	f8b4 3068 	ldrh.w	r3, [r4, #104]	; 0x68
 8004e6c:	2b07      	cmp	r3, #7
 8004e6e:	d8f2      	bhi.n	8004e56 <tcp_write+0x46>
  if (pcb->unsent != NULL) {
 8004e70:	f8d4 b06c 	ldr.w	fp, [r4, #108]	; 0x6c
  queuelen = pcb->snd_queuelen;
 8004e74:	f8b4 3068 	ldrh.w	r3, [r4, #104]	; 0x68
 8004e78:	9304      	str	r3, [sp, #16]
  if (pcb->unsent != NULL) {
 8004e7a:	465d      	mov	r5, fp
 8004e7c:	f1bb 0f00 	cmp.w	fp, #0
 8004e80:	d104      	bne.n	8004e8c <tcp_write+0x7c>
  u16_t oversize_used = 0;
 8004e82:	465f      	mov	r7, fp
  u16_t pos = 0; /* position in 'arg' data */
 8004e84:	46d8      	mov	r8, fp
  struct pbuf *concat_p = NULL;
 8004e86:	465e      	mov	r6, fp
 8004e88:	e05c      	b.n	8004f44 <tcp_write+0x134>
 8004e8a:	464d      	mov	r5, r9
    for (last_unsent = pcb->unsent; last_unsent->next != NULL;
 8004e8c:	f8d5 9000 	ldr.w	r9, [r5]
 8004e90:	f1b9 0f00 	cmp.w	r9, #0
 8004e94:	d1f9      	bne.n	8004e8a <tcp_write+0x7a>
    unsent_optlen = LWIP_TCP_OPT_LENGTH(last_unsent->flags);
 8004e96:	7b29      	ldrb	r1, [r5, #12]
    space = mss_local - (last_unsent->len + unsent_optlen);
 8004e98:	892e      	ldrh	r6, [r5, #8]
 8004e9a:	9a09      	ldr	r2, [sp, #36]	; 0x24
    unsent_optlen = LWIP_TCP_OPT_LENGTH(last_unsent->flags);
 8004e9c:	f011 0f01 	tst.w	r1, #1
 8004ea0:	bf14      	ite	ne
 8004ea2:	2004      	movne	r0, #4
 8004ea4:	2000      	moveq	r0, #0
    space = mss_local - (last_unsent->len + unsent_optlen);
 8004ea6:	1b92      	subs	r2, r2, r6
    unsent_optlen = LWIP_TCP_OPT_LENGTH(last_unsent->flags);
 8004ea8:	f011 0f02 	tst.w	r1, #2
    space = mss_local - (last_unsent->len + unsent_optlen);
 8004eac:	eba2 0200 	sub.w	r2, r2, r0
    unsent_optlen = LWIP_TCP_OPT_LENGTH(last_unsent->flags);
 8004eb0:	bf14      	ite	ne
 8004eb2:	230c      	movne	r3, #12
 8004eb4:	2300      	moveq	r3, #0
    space = mss_local - (last_unsent->len + unsent_optlen);
 8004eb6:	1ad3      	subs	r3, r2, r3
 8004eb8:	b29a      	uxth	r2, r3
    LWIP_ASSERT("unsent_oversize mismatch (pcb vs. last_unsent)",
 8004eba:	f8b4 306a 	ldrh.w	r3, [r4, #106]	; 0x6a
    if (oversize > 0) {
 8004ebe:	2b00      	cmp	r3, #0
 8004ec0:	f000 813c 	beq.w	800513c <tcp_write+0x32c>
      oversize_used = oversize < len ? oversize : len;
 8004ec4:	459a      	cmp	sl, r3
 8004ec6:	4657      	mov	r7, sl
 8004ec8:	bf28      	it	cs
 8004eca:	461f      	movcs	r7, r3
      oversize -= oversize_used;
 8004ecc:	1bdb      	subs	r3, r3, r7
      space -= oversize_used;
 8004ece:	1bd2      	subs	r2, r2, r7
    if ((pos < len) && (space > 0) && (last_unsent->len > 0)) {
 8004ed0:	45ba      	cmp	sl, r7
      oversize -= oversize_used;
 8004ed2:	f8ad 3036 	strh.w	r3, [sp, #54]	; 0x36
      space -= oversize_used;
 8004ed6:	b292      	uxth	r2, r2
 8004ed8:	46ab      	mov	fp, r5
    if ((pos < len) && (space > 0) && (last_unsent->len > 0)) {
 8004eda:	f240 8128 	bls.w	800512e <tcp_write+0x31e>
 8004ede:	2a00      	cmp	r2, #0
 8004ee0:	d069      	beq.n	8004fb6 <tcp_write+0x1a6>
 8004ee2:	2e00      	cmp	r6, #0
 8004ee4:	d06a      	beq.n	8004fbc <tcp_write+0x1ac>
      u16_t seglen = space < len - pos ? space : len - pos;
 8004ee6:	ebaa 0b07 	sub.w	fp, sl, r7
      if (apiflags & TCP_WRITE_FLAG_COPY) {
 8004eea:	9b06      	ldr	r3, [sp, #24]
      u16_t seglen = space < len - pos ? space : len - pos;
 8004eec:	4593      	cmp	fp, r2
 8004eee:	bfa8      	it	ge
 8004ef0:	4693      	movge	fp, r2
      if (apiflags & TCP_WRITE_FLAG_COPY) {
 8004ef2:	07db      	lsls	r3, r3, #31
      u16_t seglen = space < len - pos ? space : len - pos;
 8004ef4:	fa1f f88b 	uxth.w	r8, fp
      if (apiflags & TCP_WRITE_FLAG_COPY) {
 8004ef8:	d550      	bpl.n	8004f9c <tcp_write+0x18c>
        if ((concat_p = tcp_pbuf_prealloc(PBUF_RAW, seglen, space, &oversize, pcb, apiflags, 1)) == NULL) {
 8004efa:	2301      	movs	r3, #1
 8004efc:	9302      	str	r3, [sp, #8]
 8004efe:	9b06      	ldr	r3, [sp, #24]
 8004f00:	9301      	str	r3, [sp, #4]
 8004f02:	9400      	str	r4, [sp, #0]
 8004f04:	f10d 0336 	add.w	r3, sp, #54	; 0x36
 8004f08:	4641      	mov	r1, r8
 8004f0a:	2003      	movs	r0, #3
 8004f0c:	f7ff fecc 	bl	8004ca8 <tcp_pbuf_prealloc>
 8004f10:	4606      	mov	r6, r0
 8004f12:	2800      	cmp	r0, #0
 8004f14:	f000 8103 	beq.w	800511e <tcp_write+0x30e>
        last_unsent->oversize_left += oversize;
 8004f18:	896b      	ldrh	r3, [r5, #10]
 8004f1a:	f8bd 2036 	ldrh.w	r2, [sp, #54]	; 0x36
        TCP_DATA_COPY2(concat_p->payload, (u8_t*)arg + pos, seglen, &concat_chksum, &concat_chksum_swapped);
 8004f1e:	6840      	ldr	r0, [r0, #4]
        last_unsent->oversize_left += oversize;
 8004f20:	4413      	add	r3, r2
 8004f22:	816b      	strh	r3, [r5, #10]
        TCP_DATA_COPY2(concat_p->payload, (u8_t*)arg + pos, seglen, &concat_chksum, &concat_chksum_swapped);
 8004f24:	9b05      	ldr	r3, [sp, #20]
 8004f26:	4642      	mov	r2, r8
 8004f28:	19d9      	adds	r1, r3, r7
 8004f2a:	f002 fa84 	bl	8007436 <memcpy>
      queuelen += pbuf_clen(concat_p);
 8004f2e:	4630      	mov	r0, r6
 8004f30:	f7fe fa3b 	bl	80033aa <pbuf_clen>
 8004f34:	9b04      	ldr	r3, [sp, #16]
 8004f36:	4403      	add	r3, r0
      pos += seglen;
 8004f38:	44b8      	add	r8, r7
      queuelen += pbuf_clen(concat_p);
 8004f3a:	b29b      	uxth	r3, r3
      pos += seglen;
 8004f3c:	fa1f f888 	uxth.w	r8, r8
      queuelen += pbuf_clen(concat_p);
 8004f40:	9304      	str	r3, [sp, #16]
 8004f42:	46ab      	mov	fp, r5
    if (apiflags & TCP_WRITE_FLAG_COPY) {
 8004f44:	9b06      	ldr	r3, [sp, #24]
 8004f46:	f04f 0900 	mov.w	r9, #0
 8004f4a:	f003 0301 	and.w	r3, r3, #1
 8004f4e:	f8cd 9028 	str.w	r9, [sp, #40]	; 0x28
 8004f52:	9307      	str	r3, [sp, #28]
  while (pos < len) {
 8004f54:	45d0      	cmp	r8, sl
 8004f56:	d333      	bcc.n	8004fc0 <tcp_write+0x1b0>
  if (oversize_used > 0) {
 8004f58:	b15f      	cbz	r7, 8004f72 <tcp_write+0x162>
    for (p = last_unsent->p; p; p = p->next) {
 8004f5a:	f8d5 8004 	ldr.w	r8, [r5, #4]
 8004f5e:	f1b8 0f00 	cmp.w	r8, #0
 8004f62:	f040 809f 	bne.w	80050a4 <tcp_write+0x294>
    last_unsent->len += oversize_used;
 8004f66:	892b      	ldrh	r3, [r5, #8]
 8004f68:	443b      	add	r3, r7
 8004f6a:	812b      	strh	r3, [r5, #8]
    last_unsent->oversize_left -= oversize_used;
 8004f6c:	896b      	ldrh	r3, [r5, #10]
 8004f6e:	1bdf      	subs	r7, r3, r7
 8004f70:	816f      	strh	r7, [r5, #10]
  pcb->unsent_oversize = oversize;
 8004f72:	f8bd 3036 	ldrh.w	r3, [sp, #54]	; 0x36
 8004f76:	f8a4 306a 	strh.w	r3, [r4, #106]	; 0x6a
  if (concat_p != NULL) {
 8004f7a:	2e00      	cmp	r6, #0
 8004f7c:	f000 80ab 	beq.w	80050d6 <tcp_write+0x2c6>
    pbuf_cat(last_unsent->p, concat_p);
 8004f80:	4631      	mov	r1, r6
 8004f82:	6868      	ldr	r0, [r5, #4]
 8004f84:	f7fe fa1e 	bl	80033c4 <pbuf_cat>
    last_unsent->len += concat_p->tot_len;
 8004f88:	892b      	ldrh	r3, [r5, #8]
 8004f8a:	8932      	ldrh	r2, [r6, #8]
 8004f8c:	4413      	add	r3, r2
 8004f8e:	812b      	strh	r3, [r5, #8]
    last_unsent->next = queue;
 8004f90:	f8c5 9000 	str.w	r9, [r5]
 8004f94:	e0a4      	b.n	80050e0 <tcp_write+0x2d0>
    if ((pos < len) && (space > 0) && (last_unsent->len > 0)) {
 8004f96:	464f      	mov	r7, r9
  struct tcp_seg *last_unsent = NULL, *seg = NULL, *prev_seg = NULL, *queue = NULL;
 8004f98:	46cb      	mov	fp, r9
 8004f9a:	e7a0      	b.n	8004ede <tcp_write+0xce>
        if ((concat_p = pbuf_alloc(PBUF_RAW, seglen, PBUF_ROM)) == NULL) {
 8004f9c:	2201      	movs	r2, #1
 8004f9e:	4641      	mov	r1, r8
 8004fa0:	2003      	movs	r0, #3
 8004fa2:	f7fe f959 	bl	8003258 <pbuf_alloc>
 8004fa6:	4606      	mov	r6, r0
 8004fa8:	2800      	cmp	r0, #0
 8004faa:	f000 80b8 	beq.w	800511e <tcp_write+0x30e>
        concat_p->payload = (u8_t*)arg + pos;
 8004fae:	9b05      	ldr	r3, [sp, #20]
 8004fb0:	443b      	add	r3, r7
 8004fb2:	6043      	str	r3, [r0, #4]
 8004fb4:	e7bb      	b.n	8004f2e <tcp_write+0x11e>
 8004fb6:	46b8      	mov	r8, r7
  struct pbuf *concat_p = NULL;
 8004fb8:	4616      	mov	r6, r2
 8004fba:	e7c3      	b.n	8004f44 <tcp_write+0x134>
 8004fbc:	46b8      	mov	r8, r7
 8004fbe:	e7c1      	b.n	8004f44 <tcp_write+0x134>
    u16_t seglen = left > max_len ? max_len : left;
 8004fc0:	9a09      	ldr	r2, [sp, #36]	; 0x24
    u16_t left = len - pos;
 8004fc2:	ebaa 0308 	sub.w	r3, sl, r8
    u16_t seglen = left > max_len ? max_len : left;
 8004fc6:	b29b      	uxth	r3, r3
 8004fc8:	4293      	cmp	r3, r2
 8004fca:	bf28      	it	cs
 8004fcc:	4613      	movcs	r3, r2
 8004fce:	9308      	str	r3, [sp, #32]
    if (apiflags & TCP_WRITE_FLAG_COPY) {
 8004fd0:	9b07      	ldr	r3, [sp, #28]
 8004fd2:	b303      	cbz	r3, 8005016 <tcp_write+0x206>
      if ((p = tcp_pbuf_prealloc(PBUF_TRANSPORT, seglen + optlen, mss_local, &oversize, pcb, apiflags, queue == NULL)) == NULL) {
 8004fd4:	fab9 f389 	clz	r3, r9
 8004fd8:	095b      	lsrs	r3, r3, #5
 8004fda:	9302      	str	r3, [sp, #8]
 8004fdc:	9b06      	ldr	r3, [sp, #24]
 8004fde:	9301      	str	r3, [sp, #4]
 8004fe0:	9400      	str	r4, [sp, #0]
 8004fe2:	f10d 0336 	add.w	r3, sp, #54	; 0x36
 8004fe6:	9908      	ldr	r1, [sp, #32]
 8004fe8:	2000      	movs	r0, #0
 8004fea:	f7ff fe5d 	bl	8004ca8 <tcp_pbuf_prealloc>
 8004fee:	4683      	mov	fp, r0
 8004ff0:	b330      	cbz	r0, 8005040 <tcp_write+0x230>
      TCP_DATA_COPY2((char *)p->payload + optlen, (u8_t*)arg + pos, seglen, &chksum, &chksum_swapped);
 8004ff2:	9b05      	ldr	r3, [sp, #20]
 8004ff4:	9a08      	ldr	r2, [sp, #32]
 8004ff6:	6840      	ldr	r0, [r0, #4]
 8004ff8:	eb03 0108 	add.w	r1, r3, r8
 8004ffc:	f002 fa1b 	bl	8007436 <memcpy>
    queuelen += pbuf_clen(p);
 8005000:	4658      	mov	r0, fp
 8005002:	f7fe f9d2 	bl	80033aa <pbuf_clen>
 8005006:	9b04      	ldr	r3, [sp, #16]
 8005008:	4403      	add	r3, r0
 800500a:	b29b      	uxth	r3, r3
    if ((queuelen > TCP_SND_QUEUELEN) || (queuelen > TCP_SNDQUEUELEN_OVERFLOW)) {
 800500c:	2b08      	cmp	r3, #8
    queuelen += pbuf_clen(p);
 800500e:	9304      	str	r3, [sp, #16]
    if ((queuelen > TCP_SND_QUEUELEN) || (queuelen > TCP_SNDQUEUELEN_OVERFLOW)) {
 8005010:	d92a      	bls.n	8005068 <tcp_write+0x258>
      pbuf_free(p);
 8005012:	4658      	mov	r0, fp
 8005014:	e012      	b.n	800503c <tcp_write+0x22c>
      if ((p2 = pbuf_alloc(PBUF_TRANSPORT, seglen, PBUF_ROM)) == NULL) {
 8005016:	2201      	movs	r2, #1
 8005018:	9908      	ldr	r1, [sp, #32]
 800501a:	9807      	ldr	r0, [sp, #28]
 800501c:	f7fe f91c 	bl	8003258 <pbuf_alloc>
 8005020:	b170      	cbz	r0, 8005040 <tcp_write+0x230>
      p2->payload = (u8_t*)arg + pos;
 8005022:	9a05      	ldr	r2, [sp, #20]
 8005024:	900b      	str	r0, [sp, #44]	; 0x2c
 8005026:	4442      	add	r2, r8
 8005028:	6042      	str	r2, [r0, #4]
      if ((p = pbuf_alloc(PBUF_TRANSPORT, optlen, PBUF_RAM)) == NULL) {
 800502a:	9a07      	ldr	r2, [sp, #28]
 800502c:	4611      	mov	r1, r2
 800502e:	4610      	mov	r0, r2
 8005030:	f7fe f912 	bl	8003258 <pbuf_alloc>
 8005034:	9b0b      	ldr	r3, [sp, #44]	; 0x2c
 8005036:	4683      	mov	fp, r0
 8005038:	b990      	cbnz	r0, 8005060 <tcp_write+0x250>
        pbuf_free(p2);
 800503a:	4618      	mov	r0, r3
      pbuf_free(p);
 800503c:	f7fe f8e5 	bl	800320a <pbuf_free>
  pcb->flags |= TF_NAGLEMEMERR;
 8005040:	7fa3      	ldrb	r3, [r4, #30]
 8005042:	f063 037f 	orn	r3, r3, #127	; 0x7f
 8005046:	77a3      	strb	r3, [r4, #30]
  if (concat_p != NULL) {
 8005048:	b116      	cbz	r6, 8005050 <tcp_write+0x240>
    pbuf_free(concat_p);
 800504a:	4630      	mov	r0, r6
 800504c:	f7fe f8dd 	bl	800320a <pbuf_free>
  if (queue != NULL) {
 8005050:	f1b9 0f00 	cmp.w	r9, #0
 8005054:	f43f af03 	beq.w	8004e5e <tcp_write+0x4e>
    tcp_segs_free(queue);
 8005058:	4648      	mov	r0, r9
 800505a:	f7fe fb81 	bl	8003760 <tcp_segs_free>
 800505e:	e6fe      	b.n	8004e5e <tcp_write+0x4e>
      pbuf_cat(p/*header*/, p2/*data*/);
 8005060:	4619      	mov	r1, r3
 8005062:	f7fe f9af 	bl	80033c4 <pbuf_cat>
 8005066:	e7cb      	b.n	8005000 <tcp_write+0x1f0>
    if ((seg = tcp_create_segment(pcb, p, 0, pcb->snd_lbb + pos, optflags)) == NULL) {
 8005068:	6de3      	ldr	r3, [r4, #92]	; 0x5c
 800506a:	2200      	movs	r2, #0
 800506c:	4659      	mov	r1, fp
 800506e:	9200      	str	r2, [sp, #0]
 8005070:	4443      	add	r3, r8
 8005072:	4620      	mov	r0, r4
 8005074:	f7ff fe40 	bl	8004cf8 <tcp_create_segment>
 8005078:	4683      	mov	fp, r0
 800507a:	2800      	cmp	r0, #0
 800507c:	d0e0      	beq.n	8005040 <tcp_write+0x230>
    seg->oversize_left = oversize;
 800507e:	f8bd 3036 	ldrh.w	r3, [sp, #54]	; 0x36
 8005082:	8143      	strh	r3, [r0, #10]
    if (queue == NULL) {
 8005084:	f1b9 0f00 	cmp.w	r9, #0
 8005088:	d008      	beq.n	800509c <tcp_write+0x28c>
      prev_seg->next = seg;
 800508a:	9b0a      	ldr	r3, [sp, #40]	; 0x28
 800508c:	6018      	str	r0, [r3, #0]
    pos += seglen;
 800508e:	9b08      	ldr	r3, [sp, #32]
 8005090:	f8cd b028 	str.w	fp, [sp, #40]	; 0x28
 8005094:	4498      	add	r8, r3
 8005096:	fa1f f888 	uxth.w	r8, r8
 800509a:	e75b      	b.n	8004f54 <tcp_write+0x144>
 800509c:	4681      	mov	r9, r0
 800509e:	e7f6      	b.n	800508e <tcp_write+0x27e>
  struct pbuf *concat_p = NULL;
 80050a0:	464e      	mov	r6, r9
 80050a2:	e75a      	b.n	8004f5a <tcp_write+0x14a>
      p->tot_len += oversize_used;
 80050a4:	f8b8 3008 	ldrh.w	r3, [r8, #8]
 80050a8:	443b      	add	r3, r7
 80050aa:	f8a8 3008 	strh.w	r3, [r8, #8]
      if (p->next == NULL) {
 80050ae:	f8d8 3000 	ldr.w	r3, [r8]
 80050b2:	b96b      	cbnz	r3, 80050d0 <tcp_write+0x2c0>
        TCP_DATA_COPY((char *)p->payload + p->len, arg, oversize_used, last_unsent);
 80050b4:	f8d8 3004 	ldr.w	r3, [r8, #4]
 80050b8:	f8b8 000a 	ldrh.w	r0, [r8, #10]
 80050bc:	9905      	ldr	r1, [sp, #20]
 80050be:	4418      	add	r0, r3
 80050c0:	463a      	mov	r2, r7
 80050c2:	f002 f9b8 	bl	8007436 <memcpy>
        p->len += oversize_used;
 80050c6:	f8b8 300a 	ldrh.w	r3, [r8, #10]
 80050ca:	443b      	add	r3, r7
 80050cc:	f8a8 300a 	strh.w	r3, [r8, #10]
    for (p = last_unsent->p; p; p = p->next) {
 80050d0:	f8d8 8000 	ldr.w	r8, [r8]
 80050d4:	e743      	b.n	8004f5e <tcp_write+0x14e>
  if (last_unsent == NULL) {
 80050d6:	2d00      	cmp	r5, #0
 80050d8:	f47f af5a 	bne.w	8004f90 <tcp_write+0x180>
    pcb->unsent = queue;
 80050dc:	f8c4 906c 	str.w	r9, [r4, #108]	; 0x6c
  pcb->snd_lbb += len;
 80050e0:	6de3      	ldr	r3, [r4, #92]	; 0x5c
 80050e2:	4453      	add	r3, sl
 80050e4:	65e3      	str	r3, [r4, #92]	; 0x5c
  pcb->snd_buf -= len;
 80050e6:	f8b4 3066 	ldrh.w	r3, [r4, #102]	; 0x66
 80050ea:	eba3 0a0a 	sub.w	sl, r3, sl
  pcb->snd_queuelen = queuelen;
 80050ee:	f8bd 3010 	ldrh.w	r3, [sp, #16]
  pcb->snd_buf -= len;
 80050f2:	f8a4 a066 	strh.w	sl, [r4, #102]	; 0x66
  pcb->snd_queuelen = queuelen;
 80050f6:	f8a4 3068 	strh.w	r3, [r4, #104]	; 0x68
  if (seg != NULL && seg->tcphdr != NULL && ((apiflags & TCP_WRITE_FLAG_MORE)==0)) {
 80050fa:	f1bb 0f00 	cmp.w	fp, #0
 80050fe:	d00c      	beq.n	800511a <tcp_write+0x30a>
 8005100:	f8db 4010 	ldr.w	r4, [fp, #16]
 8005104:	b14c      	cbz	r4, 800511a <tcp_write+0x30a>
 8005106:	9b06      	ldr	r3, [sp, #24]
 8005108:	f013 0b02 	ands.w	fp, r3, #2
 800510c:	d105      	bne.n	800511a <tcp_write+0x30a>
    TCPH_SET_FLAG(seg->tcphdr, TCP_PSH);
 800510e:	2008      	movs	r0, #8
 8005110:	89a5      	ldrh	r5, [r4, #12]
 8005112:	f7fc fbeb 	bl	80018ec <lwip_htons>
 8005116:	4328      	orrs	r0, r5
 8005118:	81a0      	strh	r0, [r4, #12]
  return ERR_OK;
 800511a:	2000      	movs	r0, #0
 800511c:	e6a1      	b.n	8004e62 <tcp_write+0x52>
  struct pbuf *concat_p = NULL;
 800511e:	2600      	movs	r6, #0
 8005120:	e78e      	b.n	8005040 <tcp_write+0x230>
  LWIP_ERROR("tcp_write: arg == NULL (programmer violates API)", 
 8005122:	f06f 000d 	mvn.w	r0, #13
 8005126:	e69c      	b.n	8004e62 <tcp_write+0x52>
    return ERR_CONN;
 8005128:	f06f 000c 	mvn.w	r0, #12
 800512c:	e699      	b.n	8004e62 <tcp_write+0x52>
  if (oversize_used > 0) {
 800512e:	2f00      	cmp	r7, #0
 8005130:	d1b6      	bne.n	80050a0 <tcp_write+0x290>
  pcb->unsent_oversize = oversize;
 8005132:	f8bd 3036 	ldrh.w	r3, [sp, #54]	; 0x36
 8005136:	f8a4 306a 	strh.w	r3, [r4, #106]	; 0x6a
 800513a:	e729      	b.n	8004f90 <tcp_write+0x180>
    if ((pos < len) && (space > 0) && (last_unsent->len > 0)) {
 800513c:	f1ba 0f00 	cmp.w	sl, #0
 8005140:	f47f af29 	bne.w	8004f96 <tcp_write+0x186>
  struct tcp_seg *last_unsent = NULL, *seg = NULL, *prev_seg = NULL, *queue = NULL;
 8005144:	46d3      	mov	fp, sl
 8005146:	e7f4      	b.n	8005132 <tcp_write+0x322>

08005148 <tcp_enqueue_flags>:

  LWIP_ASSERT("tcp_enqueue_flags: need either TCP_SYN or TCP_FIN in flags (programmer violates API)",
              (flags & (TCP_SYN | TCP_FIN)) != 0);

  /* check for configured max queuelen and possible overflow */
  if ((pcb->snd_queuelen >= TCP_SND_QUEUELEN) || (pcb->snd_queuelen > TCP_SNDQUEUELEN_OVERFLOW)) {
 8005148:	f8b0 3068 	ldrh.w	r3, [r0, #104]	; 0x68
 800514c:	2b07      	cmp	r3, #7
{
 800514e:	b5f7      	push	{r0, r1, r2, r4, r5, r6, r7, lr}
 8005150:	4604      	mov	r4, r0
 8005152:	460d      	mov	r5, r1
 8005154:	f001 0603 	and.w	r6, r1, #3
  if ((pcb->snd_queuelen >= TCP_SND_QUEUELEN) || (pcb->snd_queuelen > TCP_SNDQUEUELEN_OVERFLOW)) {
 8005158:	d906      	bls.n	8005168 <tcp_enqueue_flags+0x20>
  LWIP_ASSERT("tcp_enqueue_flags: check that first pbuf can hold optlen",
              (p->len >= optlen));

  /* Allocate memory for tcp_seg, and fill in fields. */
  if ((seg = tcp_create_segment(pcb, p, flags, pcb->snd_lbb, optflags)) == NULL) {
    pcb->flags |= TF_NAGLEMEMERR;
 800515a:	7fa3      	ldrb	r3, [r4, #30]
 800515c:	f063 037f 	orn	r3, r3, #127	; 0x7f
 8005160:	77a3      	strb	r3, [r4, #30]
    return ERR_MEM;
 8005162:	f04f 30ff 	mov.w	r0, #4294967295
 8005166:	e038      	b.n	80051da <tcp_enqueue_flags+0x92>
 8005168:	f001 0302 	and.w	r3, r1, #2
  if (flags & TCP_SYN) {
 800516c:	2b00      	cmp	r3, #0
  if (pcb->snd_buf == 0) {
 800516e:	f8b0 3066 	ldrh.w	r3, [r0, #102]	; 0x66
  u8_t optflags = 0;
 8005172:	bf15      	itete	ne
 8005174:	2701      	movne	r7, #1
 8005176:	2700      	moveq	r7, #0
  optlen = LWIP_TCP_OPT_LENGTH(optflags);
 8005178:	2104      	movne	r1, #4
 800517a:	2100      	moveq	r1, #0
  if (pcb->snd_buf == 0) {
 800517c:	2b00      	cmp	r3, #0
 800517e:	d0f0      	beq.n	8005162 <tcp_enqueue_flags+0x1a>
  if ((p = pbuf_alloc(PBUF_TRANSPORT, optlen, PBUF_RAM)) == NULL) {
 8005180:	2200      	movs	r2, #0
 8005182:	4610      	mov	r0, r2
 8005184:	f7fe f868 	bl	8003258 <pbuf_alloc>
 8005188:	4601      	mov	r1, r0
 800518a:	2800      	cmp	r0, #0
 800518c:	d0e5      	beq.n	800515a <tcp_enqueue_flags+0x12>
  if ((seg = tcp_create_segment(pcb, p, flags, pcb->snd_lbb, optflags)) == NULL) {
 800518e:	9700      	str	r7, [sp, #0]
 8005190:	6de3      	ldr	r3, [r4, #92]	; 0x5c
 8005192:	462a      	mov	r2, r5
 8005194:	4620      	mov	r0, r4
 8005196:	f7ff fdaf 	bl	8004cf8 <tcp_create_segment>
 800519a:	2800      	cmp	r0, #0
 800519c:	d0dd      	beq.n	800515a <tcp_enqueue_flags+0x12>
               ntohl(seg->tcphdr->seqno),
               ntohl(seg->tcphdr->seqno) + TCP_TCPLEN(seg),
               (u16_t)flags));

  /* Now append seg to pcb->unsent queue */
  if (pcb->unsent == NULL) {
 800519e:	6ee3      	ldr	r3, [r4, #108]	; 0x6c
 80051a0:	b9f3      	cbnz	r3, 80051e0 <tcp_enqueue_flags+0x98>
    pcb->unsent = seg;
 80051a2:	66e0      	str	r0, [r4, #108]	; 0x6c
    for (useg = pcb->unsent; useg->next != NULL; useg = useg->next);
    useg->next = seg;
  }
#if TCP_OVERSIZE
  /* The new unsent tail has no space */
  pcb->unsent_oversize = 0;
 80051a4:	2300      	movs	r3, #0
 80051a6:	f8a4 306a 	strh.w	r3, [r4, #106]	; 0x6a
#endif /* TCP_OVERSIZE */

  /* SYN and FIN bump the sequence number */
  if ((flags & TCP_SYN) || (flags & TCP_FIN)) {
 80051aa:	b13e      	cbz	r6, 80051bc <tcp_enqueue_flags+0x74>
    pcb->snd_lbb++;
 80051ac:	6de3      	ldr	r3, [r4, #92]	; 0x5c
 80051ae:	3301      	adds	r3, #1
 80051b0:	65e3      	str	r3, [r4, #92]	; 0x5c
    /* optlen does not influence snd_buf */
    pcb->snd_buf--;
 80051b2:	f8b4 3066 	ldrh.w	r3, [r4, #102]	; 0x66
 80051b6:	3b01      	subs	r3, #1
 80051b8:	f8a4 3066 	strh.w	r3, [r4, #102]	; 0x66
  }
  if (flags & TCP_FIN) {
 80051bc:	07eb      	lsls	r3, r5, #31
    pcb->flags |= TF_FIN;
 80051be:	bf42      	ittt	mi
 80051c0:	7fa3      	ldrbmi	r3, [r4, #30]
 80051c2:	f043 0320 	orrmi.w	r3, r3, #32
 80051c6:	77a3      	strbmi	r3, [r4, #30]
  }

  /* update number of segments on the queues */
  pcb->snd_queuelen += pbuf_clen(seg->p);
 80051c8:	6840      	ldr	r0, [r0, #4]
 80051ca:	f7fe f8ee 	bl	80033aa <pbuf_clen>
 80051ce:	f8b4 3068 	ldrh.w	r3, [r4, #104]	; 0x68
 80051d2:	4418      	add	r0, r3
 80051d4:	f8a4 0068 	strh.w	r0, [r4, #104]	; 0x68
  if (pcb->snd_queuelen != 0) {
    LWIP_ASSERT("tcp_enqueue_flags: invalid queue length",
      pcb->unacked != NULL || pcb->unsent != NULL);
  }

  return ERR_OK;
 80051d8:	2000      	movs	r0, #0
}
 80051da:	b003      	add	sp, #12
 80051dc:	bdf0      	pop	{r4, r5, r6, r7, pc}
 80051de:	4613      	mov	r3, r2
    for (useg = pcb->unsent; useg->next != NULL; useg = useg->next);
 80051e0:	681a      	ldr	r2, [r3, #0]
 80051e2:	2a00      	cmp	r2, #0
 80051e4:	d1fb      	bne.n	80051de <tcp_enqueue_flags+0x96>
    useg->next = seg;
 80051e6:	6018      	str	r0, [r3, #0]
 80051e8:	e7dc      	b.n	80051a4 <tcp_enqueue_flags+0x5c>

080051ea <tcp_send_fin>:
{
 80051ea:	b5f8      	push	{r3, r4, r5, r6, r7, lr}
  if (pcb->unsent != NULL) {
 80051ec:	6ec4      	ldr	r4, [r0, #108]	; 0x6c
{
 80051ee:	4605      	mov	r5, r0
  if (pcb->unsent != NULL) {
 80051f0:	b934      	cbnz	r4, 8005200 <tcp_send_fin+0x16>
  return tcp_enqueue_flags(pcb, TCP_FIN);
 80051f2:	4628      	mov	r0, r5
 80051f4:	2101      	movs	r1, #1
}
 80051f6:	e8bd 40f8 	ldmia.w	sp!, {r3, r4, r5, r6, r7, lr}
  return tcp_enqueue_flags(pcb, TCP_FIN);
 80051fa:	f7ff bfa5 	b.w	8005148 <tcp_enqueue_flags>
 80051fe:	461c      	mov	r4, r3
    for (last_unsent = pcb->unsent; last_unsent->next != NULL;
 8005200:	6823      	ldr	r3, [r4, #0]
 8005202:	2b00      	cmp	r3, #0
 8005204:	d1fb      	bne.n	80051fe <tcp_send_fin+0x14>
    if ((TCPH_FLAGS(last_unsent->tcphdr) & (TCP_SYN | TCP_FIN | TCP_RST)) == 0) {
 8005206:	6923      	ldr	r3, [r4, #16]
 8005208:	8998      	ldrh	r0, [r3, #12]
 800520a:	f7fc fb72 	bl	80018f2 <lwip_ntohs>
 800520e:	f010 0707 	ands.w	r7, r0, #7
 8005212:	d1ee      	bne.n	80051f2 <tcp_send_fin+0x8>
      TCPH_SET_FLAG(last_unsent->tcphdr, TCP_FIN);
 8005214:	6926      	ldr	r6, [r4, #16]
 8005216:	2001      	movs	r0, #1
 8005218:	89b4      	ldrh	r4, [r6, #12]
 800521a:	f7fc fb67 	bl	80018ec <lwip_htons>
 800521e:	4320      	orrs	r0, r4
 8005220:	81b0      	strh	r0, [r6, #12]
      pcb->flags |= TF_FIN;
 8005222:	7fab      	ldrb	r3, [r5, #30]
 8005224:	f043 0320 	orr.w	r3, r3, #32
 8005228:	77ab      	strb	r3, [r5, #30]
}
 800522a:	4638      	mov	r0, r7
 800522c:	bdf8      	pop	{r3, r4, r5, r6, r7, pc}

0800522e <tcp_send_empty_ack>:
 *
 * @param pcb Protocol control block for the TCP connection to send the ACK
 */
err_t
tcp_send_empty_ack(struct tcp_pcb *pcb)
{
 800522e:	b5f7      	push	{r0, r1, r2, r4, r5, r6, r7, lr}
 8005230:	4604      	mov	r4, r0
  if (pcb->flags & TF_TIMESTAMP) {
    optlen = LWIP_TCP_OPT_LENGTH(TF_SEG_OPTS_TS);
  }
#endif

  p = tcp_output_alloc_header(pcb, optlen, 0, htonl(pcb->snd_nxt));
 8005232:	6d00      	ldr	r0, [r0, #80]	; 0x50
 8005234:	f7fc fb60 	bl	80018f8 <lwip_htonl>
 8005238:	2100      	movs	r1, #0
 800523a:	4602      	mov	r2, r0
 800523c:	4620      	mov	r0, r4
 800523e:	f7ff fdba 	bl	8004db6 <tcp_output_alloc_header.constprop.0>
  if (p == NULL) {
 8005242:	4605      	mov	r5, r0
 8005244:	b1e8      	cbz	r0, 8005282 <tcp_send_empty_ack+0x54>
  }
  tcphdr = (struct tcp_hdr *)p->payload;
  LWIP_DEBUGF(TCP_OUTPUT_DEBUG, 
              ("tcp_output: sending ACK for %"U32_F"\n", pcb->rcv_nxt));
  /* remove ACK flags from the PCB, as we send an empty ACK now */
  pcb->flags &= ~(TF_ACK_DELAY | TF_ACK_NOW);
 8005246:	7fa3      	ldrb	r3, [r4, #30]
  tcphdr = (struct tcp_hdr *)p->payload;
 8005248:	6847      	ldr	r7, [r0, #4]
  pcb->flags &= ~(TF_ACK_DELAY | TF_ACK_NOW);
 800524a:	f023 0303 	bic.w	r3, r3, #3
 800524e:	77a3      	strb	r3, [r4, #30]
    tcp_build_timestamp_option(pcb, (u32_t *)(tcphdr + 1));
  }
#endif 

#if CHECKSUM_GEN_TCP
  tcphdr->chksum = inet_chksum_pseudo(p, &(pcb->local_ip), &(pcb->remote_ip),
 8005250:	8903      	ldrh	r3, [r0, #8]
 8005252:	9300      	str	r3, [sp, #0]
 8005254:	1d26      	adds	r6, r4, #4
 8005256:	2306      	movs	r3, #6
 8005258:	4632      	mov	r2, r6
 800525a:	4621      	mov	r1, r4
 800525c:	f7fd f8b4 	bl	80023c8 <inet_chksum_pseudo>
#endif
#if LWIP_NETIF_HWADDRHINT
  ip_output_hinted(p, &(pcb->local_ip), &(pcb->remote_ip), pcb->ttl, pcb->tos,
      IP_PROTO_TCP, &(pcb->addr_hint));
#else /* LWIP_NETIF_HWADDRHINT*/
  ip_output(p, &(pcb->local_ip), &(pcb->remote_ip), pcb->ttl, pcb->tos,
 8005260:	2206      	movs	r2, #6
  tcphdr->chksum = inet_chksum_pseudo(p, &(pcb->local_ip), &(pcb->remote_ip),
 8005262:	8238      	strh	r0, [r7, #16]
  ip_output(p, &(pcb->local_ip), &(pcb->remote_ip), pcb->ttl, pcb->tos,
 8005264:	9201      	str	r2, [sp, #4]
 8005266:	7a62      	ldrb	r2, [r4, #9]
 8005268:	7aa3      	ldrb	r3, [r4, #10]
 800526a:	9200      	str	r2, [sp, #0]
 800526c:	4621      	mov	r1, r4
 800526e:	4632      	mov	r2, r6
 8005270:	4628      	mov	r0, r5
 8005272:	f7fd fa6d 	bl	8002750 <ip_output>
      IP_PROTO_TCP);
#endif /* LWIP_NETIF_HWADDRHINT*/
  pbuf_free(p);
 8005276:	4628      	mov	r0, r5
 8005278:	f7fd ffc7 	bl	800320a <pbuf_free>

  return ERR_OK;
 800527c:	2000      	movs	r0, #0
}
 800527e:	b003      	add	sp, #12
 8005280:	bdf0      	pop	{r4, r5, r6, r7, pc}
    return ERR_BUF;
 8005282:	f06f 0001 	mvn.w	r0, #1
 8005286:	e7fa      	b.n	800527e <tcp_send_empty_ack+0x50>

08005288 <tcp_output>:

  /* First, check if we are invoked by the TCP input processing
     code. If so, we do not output anything. Instead, we rely on the
     input processing code to call us when input processing is done
     with. */
  if (tcp_input_pcb == pcb) {
 8005288:	4b9b      	ldr	r3, [pc, #620]	; (80054f8 <tcp_output+0x270>)
 800528a:	681b      	ldr	r3, [r3, #0]
 800528c:	4298      	cmp	r0, r3
{
 800528e:	e92d 4ff7 	stmdb	sp!, {r0, r1, r2, r4, r5, r6, r7, r8, r9, sl, fp, lr}
 8005292:	4604      	mov	r4, r0
  if (tcp_input_pcb == pcb) {
 8005294:	d02b      	beq.n	80052ee <tcp_output+0x66>
    return ERR_OK;
  }

  wnd = LWIP_MIN(pcb->snd_wnd, pcb->cwnd);
 8005296:	f8b0 304c 	ldrh.w	r3, [r0, #76]	; 0x4c
 800529a:	f8b0 7060 	ldrh.w	r7, [r0, #96]	; 0x60

  seg = pcb->unsent;
 800529e:	6ec5      	ldr	r5, [r0, #108]	; 0x6c
  wnd = LWIP_MIN(pcb->snd_wnd, pcb->cwnd);
 80052a0:	429f      	cmp	r7, r3
 80052a2:	bf28      	it	cs
 80052a4:	461f      	movcs	r7, r3
   * because the ->unsent queue is empty or because the window does
   * not allow it), construct an empty ACK segment and send it.
   *
   * If data is to be sent, we will just piggyback the ACK (see below).
   */
  if (pcb->flags & TF_ACK_NOW &&
 80052a6:	7f83      	ldrb	r3, [r0, #30]
 80052a8:	079a      	lsls	r2, r3, #30
 80052aa:	d510      	bpl.n	80052ce <tcp_output+0x46>
 80052ac:	b92d      	cbnz	r5, 80052ba <tcp_output+0x32>
     (seg == NULL ||
      ntohl(seg->tcphdr->seqno) - pcb->lastack + seg->len > wnd)) {
     return tcp_send_empty_ack(pcb);
 80052ae:	4620      	mov	r0, r4
  }
#endif /* TCP_OVERSIZE */

  pcb->flags &= ~TF_NAGLEMEMERR;
  return ERR_OK;
}
 80052b0:	b003      	add	sp, #12
 80052b2:	e8bd 4ff0 	ldmia.w	sp!, {r4, r5, r6, r7, r8, r9, sl, fp, lr}
     return tcp_send_empty_ack(pcb);
 80052b6:	f7ff bfba 	b.w	800522e <tcp_send_empty_ack>
      ntohl(seg->tcphdr->seqno) - pcb->lastack + seg->len > wnd)) {
 80052ba:	692b      	ldr	r3, [r5, #16]
 80052bc:	6858      	ldr	r0, [r3, #4]
 80052be:	f7fc fb1d 	bl	80018fc <lwip_ntohl>
 80052c2:	892b      	ldrh	r3, [r5, #8]
 80052c4:	6ca2      	ldr	r2, [r4, #72]	; 0x48
 80052c6:	1a9b      	subs	r3, r3, r2
 80052c8:	4418      	add	r0, r3
     (seg == NULL ||
 80052ca:	4287      	cmp	r7, r0
 80052cc:	d3ef      	bcc.n	80052ae <tcp_output+0x26>
  useg = pcb->unacked;
 80052ce:	6f26      	ldr	r6, [r4, #112]	; 0x70
  if (useg != NULL) {
 80052d0:	b996      	cbnz	r6, 80052f8 <tcp_output+0x70>
    }
    ip_addr_copy(pcb->local_ip, netif->ip_addr);
  }

  if (pcb->rttest == 0) {
    pcb->rttest = tcp_ticks;
 80052d2:	f8df 9228 	ldr.w	r9, [pc, #552]	; 80054fc <tcp_output+0x274>
 80052d6:	f104 0804 	add.w	r8, r4, #4
  while (seg != NULL &&
 80052da:	2d00      	cmp	r5, #0
 80052dc:	d13f      	bne.n	800535e <tcp_output+0xd6>
  if (pcb->unsent == NULL) {
 80052de:	6ee3      	ldr	r3, [r4, #108]	; 0x6c
 80052e0:	b90b      	cbnz	r3, 80052e6 <tcp_output+0x5e>
    pcb->unsent_oversize = 0;
 80052e2:	f8a4 306a 	strh.w	r3, [r4, #106]	; 0x6a
  pcb->flags &= ~TF_NAGLEMEMERR;
 80052e6:	7fa3      	ldrb	r3, [r4, #30]
 80052e8:	f003 037f 	and.w	r3, r3, #127	; 0x7f
 80052ec:	77a3      	strb	r3, [r4, #30]
}
 80052ee:	2000      	movs	r0, #0
 80052f0:	b003      	add	sp, #12
 80052f2:	e8bd 8ff0 	ldmia.w	sp!, {r4, r5, r6, r7, r8, r9, sl, fp, pc}
 80052f6:	461e      	mov	r6, r3
    for (; useg->next != NULL; useg = useg->next);
 80052f8:	6833      	ldr	r3, [r6, #0]
 80052fa:	2b00      	cmp	r3, #0
 80052fc:	d1fb      	bne.n	80052f6 <tcp_output+0x6e>
 80052fe:	e7e8      	b.n	80052d2 <tcp_output+0x4a>
        if (TCP_SEQ_LT(ntohl(seg->tcphdr->seqno), ntohl(useg->tcphdr->seqno))) {
 8005300:	692b      	ldr	r3, [r5, #16]
 8005302:	6858      	ldr	r0, [r3, #4]
 8005304:	f7fc fafa 	bl	80018fc <lwip_ntohl>
 8005308:	6933      	ldr	r3, [r6, #16]
 800530a:	4682      	mov	sl, r0
 800530c:	6858      	ldr	r0, [r3, #4]
 800530e:	f7fc faf5 	bl	80018fc <lwip_ntohl>
 8005312:	ebaa 0000 	sub.w	r0, sl, r0
 8005316:	2800      	cmp	r0, #0
 8005318:	da1b      	bge.n	8005352 <tcp_output+0xca>
          struct tcp_seg **cur_seg = &(pcb->unacked);
 800531a:	f104 0a70 	add.w	sl, r4, #112	; 0x70
          while (*cur_seg &&
 800531e:	f8da 3000 	ldr.w	r3, [sl]
 8005322:	b933      	cbnz	r3, 8005332 <tcp_output+0xaa>
          seg->next = (*cur_seg);
 8005324:	f8da 3000 	ldr.w	r3, [sl]
 8005328:	602b      	str	r3, [r5, #0]
          (*cur_seg) = seg;
 800532a:	f8ca 5000 	str.w	r5, [sl]
    seg = pcb->unsent;
 800532e:	6ee5      	ldr	r5, [r4, #108]	; 0x6c
 8005330:	e7d3      	b.n	80052da <tcp_output+0x52>
            TCP_SEQ_LT(ntohl((*cur_seg)->tcphdr->seqno), ntohl(seg->tcphdr->seqno))) {
 8005332:	691b      	ldr	r3, [r3, #16]
 8005334:	6858      	ldr	r0, [r3, #4]
 8005336:	f7fc fae1 	bl	80018fc <lwip_ntohl>
 800533a:	692b      	ldr	r3, [r5, #16]
 800533c:	4683      	mov	fp, r0
 800533e:	6858      	ldr	r0, [r3, #4]
 8005340:	f7fc fadc 	bl	80018fc <lwip_ntohl>
 8005344:	ebab 0000 	sub.w	r0, fp, r0
          while (*cur_seg &&
 8005348:	2800      	cmp	r0, #0
 800534a:	daeb      	bge.n	8005324 <tcp_output+0x9c>
              cur_seg = &((*cur_seg)->next );
 800534c:	f8da a000 	ldr.w	sl, [sl]
 8005350:	e7e5      	b.n	800531e <tcp_output+0x96>
          useg->next = seg;
 8005352:	6035      	str	r5, [r6, #0]
 8005354:	e0c8      	b.n	80054e8 <tcp_output+0x260>
      tcp_seg_free(seg);
 8005356:	4628      	mov	r0, r5
 8005358:	f7fe f9f4 	bl	8003744 <tcp_seg_free>
 800535c:	e7e7      	b.n	800532e <tcp_output+0xa6>
         ntohl(seg->tcphdr->seqno) - pcb->lastack + seg->len <= wnd) {
 800535e:	692b      	ldr	r3, [r5, #16]
 8005360:	6858      	ldr	r0, [r3, #4]
 8005362:	f7fc facb 	bl	80018fc <lwip_ntohl>
 8005366:	892b      	ldrh	r3, [r5, #8]
 8005368:	6ca2      	ldr	r2, [r4, #72]	; 0x48
 800536a:	1a9b      	subs	r3, r3, r2
 800536c:	4418      	add	r0, r3
  while (seg != NULL &&
 800536e:	4287      	cmp	r7, r0
 8005370:	d3b5      	bcc.n	80052de <tcp_output+0x56>
    LWIP_ASSERT("RST not expected here!", 
 8005372:	692b      	ldr	r3, [r5, #16]
 8005374:	8998      	ldrh	r0, [r3, #12]
 8005376:	f7fc fabc 	bl	80018f2 <lwip_ntohs>
    if((tcp_do_output_nagle(pcb) == 0) &&
 800537a:	6f23      	ldr	r3, [r4, #112]	; 0x70
 800537c:	b19b      	cbz	r3, 80053a6 <tcp_output+0x11e>
 800537e:	7fa2      	ldrb	r2, [r4, #30]
 8005380:	f012 0f44 	tst.w	r2, #68	; 0x44
 8005384:	d10f      	bne.n	80053a6 <tcp_output+0x11e>
 8005386:	6ee3      	ldr	r3, [r4, #108]	; 0x6c
 8005388:	b12b      	cbz	r3, 8005396 <tcp_output+0x10e>
 800538a:	6819      	ldr	r1, [r3, #0]
 800538c:	b959      	cbnz	r1, 80053a6 <tcp_output+0x11e>
 800538e:	8919      	ldrh	r1, [r3, #8]
 8005390:	8ee3      	ldrh	r3, [r4, #54]	; 0x36
 8005392:	4299      	cmp	r1, r3
 8005394:	d207      	bcs.n	80053a6 <tcp_output+0x11e>
 8005396:	f8b4 3066 	ldrh.w	r3, [r4, #102]	; 0x66
 800539a:	b123      	cbz	r3, 80053a6 <tcp_output+0x11e>
 800539c:	f8b4 3068 	ldrh.w	r3, [r4, #104]	; 0x68
 80053a0:	2b07      	cmp	r3, #7
 80053a2:	f240 80a3 	bls.w	80054ec <tcp_output+0x264>
    pcb->unsent = seg->next;
 80053a6:	682b      	ldr	r3, [r5, #0]
 80053a8:	66e3      	str	r3, [r4, #108]	; 0x6c
    if (pcb->state != SYN_SENT) {
 80053aa:	7e23      	ldrb	r3, [r4, #24]
 80053ac:	2b02      	cmp	r3, #2
 80053ae:	d00e      	beq.n	80053ce <tcp_output+0x146>
      TCPH_SET_FLAG(seg->tcphdr, TCP_ACK);
 80053b0:	f8d5 b010 	ldr.w	fp, [r5, #16]
 80053b4:	2010      	movs	r0, #16
 80053b6:	f8bb a00c 	ldrh.w	sl, [fp, #12]
 80053ba:	f7fc fa97 	bl	80018ec <lwip_htons>
 80053be:	ea4a 0000 	orr.w	r0, sl, r0
 80053c2:	f8ab 000c 	strh.w	r0, [fp, #12]
      pcb->flags &= ~(TF_ACK_DELAY | TF_ACK_NOW);
 80053c6:	7fa3      	ldrb	r3, [r4, #30]
 80053c8:	f023 0303 	bic.w	r3, r3, #3
 80053cc:	77a3      	strb	r3, [r4, #30]
  seg->tcphdr->ackno = htonl(pcb->rcv_nxt);
 80053ce:	6aa0      	ldr	r0, [r4, #40]	; 0x28
 80053d0:	f8d5 a010 	ldr.w	sl, [r5, #16]
 80053d4:	f7fc fa90 	bl	80018f8 <lwip_htonl>
 80053d8:	f8ca 0008 	str.w	r0, [sl, #8]
  seg->tcphdr->wnd = htons(pcb->rcv_ann_wnd);
 80053dc:	8de0      	ldrh	r0, [r4, #46]	; 0x2e
 80053de:	f8d5 a010 	ldr.w	sl, [r5, #16]
 80053e2:	f7fc fa83 	bl	80018ec <lwip_htons>
  pcb->rcv_ann_right_edge = pcb->rcv_nxt + pcb->rcv_ann_wnd;
 80053e6:	8de2      	ldrh	r2, [r4, #46]	; 0x2e
 80053e8:	6aa3      	ldr	r3, [r4, #40]	; 0x28
  seg->tcphdr->wnd = htons(pcb->rcv_ann_wnd);
 80053ea:	f8aa 000e 	strh.w	r0, [sl, #14]
  pcb->rcv_ann_right_edge = pcb->rcv_nxt + pcb->rcv_ann_wnd;
 80053ee:	4413      	add	r3, r2
 80053f0:	6323      	str	r3, [r4, #48]	; 0x30
  if (seg->flags & TF_SEG_OPTS_MSS) {
 80053f2:	7b2b      	ldrb	r3, [r5, #12]
 80053f4:	07db      	lsls	r3, r3, #31
 80053f6:	d50c      	bpl.n	8005412 <tcp_output+0x18a>
    mss = tcp_eff_send_mss(TCP_MSS, &pcb->remote_ip);
 80053f8:	4641      	mov	r1, r8
 80053fa:	f240 50b4 	movw	r0, #1460	; 0x5b4
  opts = (u32_t *)(void *)(seg->tcphdr + 1);
 80053fe:	f8d5 a010 	ldr.w	sl, [r5, #16]
    mss = tcp_eff_send_mss(TCP_MSS, &pcb->remote_ip);
 8005402:	f7fe fd94 	bl	8003f2e <tcp_eff_send_mss>
    *opts = TCP_BUILD_MSS_OPTION(mss);
 8005406:	f040 7001 	orr.w	r0, r0, #33816576	; 0x2040000
 800540a:	f7fc fa75 	bl	80018f8 <lwip_htonl>
 800540e:	f8ca 0014 	str.w	r0, [sl, #20]
  if (pcb->rtime == -1) {
 8005412:	f9b4 3034 	ldrsh.w	r3, [r4, #52]	; 0x34
 8005416:	3301      	adds	r3, #1
    pcb->rtime = 0;
 8005418:	bf04      	itt	eq
 800541a:	2300      	moveq	r3, #0
 800541c:	86a3      	strheq	r3, [r4, #52]	; 0x34
  if (ip_addr_isany(&(pcb->local_ip))) {
 800541e:	6823      	ldr	r3, [r4, #0]
 8005420:	b933      	cbnz	r3, 8005430 <tcp_output+0x1a8>
    netif = ip_route(&(pcb->remote_ip));
 8005422:	4640      	mov	r0, r8
 8005424:	f7fd f83c 	bl	80024a0 <ip_route>
    if (netif == NULL) {
 8005428:	2800      	cmp	r0, #0
 800542a:	d032      	beq.n	8005492 <tcp_output+0x20a>
    ip_addr_copy(pcb->local_ip, netif->ip_addr);
 800542c:	6843      	ldr	r3, [r0, #4]
 800542e:	6023      	str	r3, [r4, #0]
  if (pcb->rttest == 0) {
 8005430:	6ba3      	ldr	r3, [r4, #56]	; 0x38
 8005432:	b93b      	cbnz	r3, 8005444 <tcp_output+0x1bc>
    pcb->rttest = tcp_ticks;
 8005434:	f8d9 3000 	ldr.w	r3, [r9]
 8005438:	63a3      	str	r3, [r4, #56]	; 0x38
    pcb->rtseq = ntohl(seg->tcphdr->seqno);
 800543a:	692b      	ldr	r3, [r5, #16]
 800543c:	6858      	ldr	r0, [r3, #4]
 800543e:	f7fc fa5d 	bl	80018fc <lwip_ntohl>
 8005442:	63e0      	str	r0, [r4, #60]	; 0x3c
  }
  LWIP_DEBUGF(TCP_OUTPUT_DEBUG, ("tcp_output_segment: %"U32_F":%"U32_F"\n",
          htonl(seg->tcphdr->seqno), htonl(seg->tcphdr->seqno) +
          seg->len));

  len = (u16_t)((u8_t *)seg->tcphdr - (u8_t *)seg->p->payload);
 8005444:	6868      	ldr	r0, [r5, #4]
 8005446:	f8d5 a010 	ldr.w	sl, [r5, #16]
 800544a:	6843      	ldr	r3, [r0, #4]

  seg->p->len -= len;
  seg->p->tot_len -= len;

  seg->p->payload = seg->tcphdr;
 800544c:	f8c0 a004 	str.w	sl, [r0, #4]
  len = (u16_t)((u8_t *)seg->tcphdr - (u8_t *)seg->p->payload);
 8005450:	ebaa 0303 	sub.w	r3, sl, r3
 8005454:	b29a      	uxth	r2, r3
  seg->p->len -= len;
 8005456:	8943      	ldrh	r3, [r0, #10]
 8005458:	1a9b      	subs	r3, r3, r2
 800545a:	8143      	strh	r3, [r0, #10]
  seg->p->tot_len -= len;
 800545c:	8903      	ldrh	r3, [r0, #8]
 800545e:	1a9b      	subs	r3, r3, r2
 8005460:	b29b      	uxth	r3, r3

  seg->tcphdr->chksum = 0;
 8005462:	2200      	movs	r2, #0
  seg->p->tot_len -= len;
 8005464:	8103      	strh	r3, [r0, #8]
      seg->tcphdr->chksum = chksum_slow;
    }
#endif /* TCP_CHECKSUM_ON_COPY_SANITY_CHECK */
  }
#else /* TCP_CHECKSUM_ON_COPY */
  seg->tcphdr->chksum = inet_chksum_pseudo(seg->p, &(pcb->local_ip),
 8005466:	4621      	mov	r1, r4
  seg->tcphdr->chksum = 0;
 8005468:	f88a 2010 	strb.w	r2, [sl, #16]
 800546c:	f88a 2011 	strb.w	r2, [sl, #17]
  seg->tcphdr->chksum = inet_chksum_pseudo(seg->p, &(pcb->local_ip),
 8005470:	9300      	str	r3, [sp, #0]
 8005472:	4642      	mov	r2, r8
 8005474:	2306      	movs	r3, #6
 8005476:	f7fc ffa7 	bl	80023c8 <inet_chksum_pseudo>

#if LWIP_NETIF_HWADDRHINT
  ip_output_hinted(seg->p, &(pcb->local_ip), &(pcb->remote_ip), pcb->ttl, pcb->tos,
      IP_PROTO_TCP, &(pcb->addr_hint));
#else /* LWIP_NETIF_HWADDRHINT*/
  ip_output(seg->p, &(pcb->local_ip), &(pcb->remote_ip), pcb->ttl, pcb->tos,
 800547a:	2206      	movs	r2, #6
  seg->tcphdr->chksum = inet_chksum_pseudo(seg->p, &(pcb->local_ip),
 800547c:	f8aa 0010 	strh.w	r0, [sl, #16]
  ip_output(seg->p, &(pcb->local_ip), &(pcb->remote_ip), pcb->ttl, pcb->tos,
 8005480:	9201      	str	r2, [sp, #4]
 8005482:	7a62      	ldrb	r2, [r4, #9]
 8005484:	9200      	str	r2, [sp, #0]
 8005486:	7aa3      	ldrb	r3, [r4, #10]
 8005488:	6868      	ldr	r0, [r5, #4]
 800548a:	4642      	mov	r2, r8
 800548c:	4621      	mov	r1, r4
 800548e:	f7fd f95f 	bl	8002750 <ip_output>
    snd_nxt = ntohl(seg->tcphdr->seqno) + TCP_TCPLEN(seg);
 8005492:	692b      	ldr	r3, [r5, #16]
 8005494:	6858      	ldr	r0, [r3, #4]
 8005496:	f7fc fa31 	bl	80018fc <lwip_ntohl>
 800549a:	692b      	ldr	r3, [r5, #16]
 800549c:	f8b5 b008 	ldrh.w	fp, [r5, #8]
 80054a0:	4682      	mov	sl, r0
 80054a2:	8998      	ldrh	r0, [r3, #12]
 80054a4:	f7fc fa25 	bl	80018f2 <lwip_ntohs>
 80054a8:	f010 0003 	ands.w	r0, r0, #3
 80054ac:	bf18      	it	ne
 80054ae:	2001      	movne	r0, #1
    if (TCP_SEQ_LT(pcb->snd_nxt, snd_nxt)) {
 80054b0:	6d23      	ldr	r3, [r4, #80]	; 0x50
    snd_nxt = ntohl(seg->tcphdr->seqno) + TCP_TCPLEN(seg);
 80054b2:	4458      	add	r0, fp
 80054b4:	4450      	add	r0, sl
    if (TCP_SEQ_LT(pcb->snd_nxt, snd_nxt)) {
 80054b6:	1a1b      	subs	r3, r3, r0
 80054b8:	2b00      	cmp	r3, #0
    if (TCP_TCPLEN(seg) > 0) {
 80054ba:	692b      	ldr	r3, [r5, #16]
      pcb->snd_nxt = snd_nxt;
 80054bc:	bfb8      	it	lt
 80054be:	6520      	strlt	r0, [r4, #80]	; 0x50
    if (TCP_TCPLEN(seg) > 0) {
 80054c0:	8998      	ldrh	r0, [r3, #12]
 80054c2:	f8b5 a008 	ldrh.w	sl, [r5, #8]
 80054c6:	f7fc fa14 	bl	80018f2 <lwip_ntohs>
 80054ca:	f010 0003 	ands.w	r0, r0, #3
 80054ce:	bf18      	it	ne
 80054d0:	2001      	movne	r0, #1
 80054d2:	eb10 0f0a 	cmn.w	r0, sl
 80054d6:	f43f af3e 	beq.w	8005356 <tcp_output+0xce>
      seg->next = NULL;
 80054da:	2300      	movs	r3, #0
 80054dc:	602b      	str	r3, [r5, #0]
      if (pcb->unacked == NULL) {
 80054de:	6f23      	ldr	r3, [r4, #112]	; 0x70
 80054e0:	2b00      	cmp	r3, #0
 80054e2:	f47f af0d 	bne.w	8005300 <tcp_output+0x78>
        pcb->unacked = seg;
 80054e6:	6725      	str	r5, [r4, #112]	; 0x70
          useg->next = seg;
 80054e8:	462e      	mov	r6, r5
 80054ea:	e720      	b.n	800532e <tcp_output+0xa6>
    if((tcp_do_output_nagle(pcb) == 0) &&
 80054ec:	f012 0fa0 	tst.w	r2, #160	; 0xa0
 80054f0:	f47f af59 	bne.w	80053a6 <tcp_output+0x11e>
 80054f4:	e6f3      	b.n	80052de <tcp_output+0x56>
 80054f6:	bf00      	nop
 80054f8:	20004e74 	.word	0x20004e74
 80054fc:	20004e60 	.word	0x20004e60

08005500 <tcp_rst>:
 */
void
tcp_rst(u32_t seqno, u32_t ackno,
  ip_addr_t *local_ip, ip_addr_t *remote_ip,
  u16_t local_port, u16_t remote_port)
{
 8005500:	e92d 4ff7 	stmdb	sp!, {r0, r1, r2, r4, r5, r6, r7, r8, r9, sl, fp, lr}
 8005504:	4681      	mov	r9, r0
 8005506:	460e      	mov	r6, r1
 8005508:	4617      	mov	r7, r2
  struct pbuf *p;
  struct tcp_hdr *tcphdr;
  p = pbuf_alloc(PBUF_IP, TCP_HLEN, PBUF_RAM);
 800550a:	2114      	movs	r1, #20
 800550c:	2200      	movs	r2, #0
 800550e:	2001      	movs	r0, #1
{
 8005510:	4698      	mov	r8, r3
 8005512:	f8bd b030 	ldrh.w	fp, [sp, #48]	; 0x30
 8005516:	f8bd a034 	ldrh.w	sl, [sp, #52]	; 0x34
  p = pbuf_alloc(PBUF_IP, TCP_HLEN, PBUF_RAM);
 800551a:	f7fd fe9d 	bl	8003258 <pbuf_alloc>
  if (p == NULL) {
 800551e:	4605      	mov	r5, r0
 8005520:	b3b0      	cbz	r0, 8005590 <tcp_rst+0x90>
      return;
  }
  LWIP_ASSERT("check that first pbuf can hold struct tcp_hdr",
              (p->len >= sizeof(struct tcp_hdr)));

  tcphdr = (struct tcp_hdr *)p->payload;
 8005522:	6844      	ldr	r4, [r0, #4]
  tcphdr->src = htons(local_port);
 8005524:	4658      	mov	r0, fp
 8005526:	f7fc f9e1 	bl	80018ec <lwip_htons>
 800552a:	8020      	strh	r0, [r4, #0]
  tcphdr->dest = htons(remote_port);
 800552c:	4650      	mov	r0, sl
 800552e:	f7fc f9dd 	bl	80018ec <lwip_htons>
 8005532:	8060      	strh	r0, [r4, #2]
  tcphdr->seqno = htonl(seqno);
 8005534:	4648      	mov	r0, r9
 8005536:	f7fc f9df 	bl	80018f8 <lwip_htonl>
 800553a:	6060      	str	r0, [r4, #4]
  tcphdr->ackno = htonl(ackno);
 800553c:	4630      	mov	r0, r6
 800553e:	f7fc f9db 	bl	80018f8 <lwip_htonl>
 8005542:	60a0      	str	r0, [r4, #8]
  TCPH_HDRLEN_FLAGS_SET(tcphdr, TCP_HLEN/4, TCP_RST | TCP_ACK);
 8005544:	f245 0014 	movw	r0, #20500	; 0x5014
 8005548:	f7fc f9d0 	bl	80018ec <lwip_htons>
  tcphdr->wnd = PP_HTONS(TCP_WND);
 800554c:	230b      	movs	r3, #11
 800554e:	73a3      	strb	r3, [r4, #14]
 8005550:	2368      	movs	r3, #104	; 0x68
 8005552:	2600      	movs	r6, #0
 8005554:	73e3      	strb	r3, [r4, #15]
  tcphdr->chksum = 0;
  tcphdr->urgp = 0;

#if CHECKSUM_GEN_TCP
  tcphdr->chksum = inet_chksum_pseudo(p, local_ip, remote_ip,
 8005556:	892b      	ldrh	r3, [r5, #8]
  TCPH_HDRLEN_FLAGS_SET(tcphdr, TCP_HLEN/4, TCP_RST | TCP_ACK);
 8005558:	81a0      	strh	r0, [r4, #12]
  tcphdr->chksum = 0;
 800555a:	7426      	strb	r6, [r4, #16]
 800555c:	7466      	strb	r6, [r4, #17]
  tcphdr->urgp = 0;
 800555e:	74a6      	strb	r6, [r4, #18]
 8005560:	74e6      	strb	r6, [r4, #19]
  tcphdr->chksum = inet_chksum_pseudo(p, local_ip, remote_ip,
 8005562:	4642      	mov	r2, r8
 8005564:	9300      	str	r3, [sp, #0]
 8005566:	4639      	mov	r1, r7
 8005568:	2306      	movs	r3, #6
 800556a:	4628      	mov	r0, r5
 800556c:	f7fc ff2c 	bl	80023c8 <inet_chksum_pseudo>
              IP_PROTO_TCP, p->tot_len);
#endif
  TCP_STATS_INC(tcp.xmit);
  snmp_inc_tcpoutrsts();
   /* Send output with hardcoded TTL since we have no access to the pcb */
  ip_output(p, local_ip, remote_ip, TCP_TTL, 0, IP_PROTO_TCP);
 8005570:	2306      	movs	r3, #6
  tcphdr->chksum = inet_chksum_pseudo(p, local_ip, remote_ip,
 8005572:	8220      	strh	r0, [r4, #16]
  ip_output(p, local_ip, remote_ip, TCP_TTL, 0, IP_PROTO_TCP);
 8005574:	4642      	mov	r2, r8
 8005576:	9301      	str	r3, [sp, #4]
 8005578:	9600      	str	r6, [sp, #0]
 800557a:	23ff      	movs	r3, #255	; 0xff
 800557c:	4639      	mov	r1, r7
 800557e:	4628      	mov	r0, r5
 8005580:	f7fd f8e6 	bl	8002750 <ip_output>
  pbuf_free(p);
 8005584:	4628      	mov	r0, r5
  LWIP_DEBUGF(TCP_RST_DEBUG, ("tcp_rst: seqno %"U32_F" ackno %"U32_F".\n", seqno, ackno));
}
 8005586:	b003      	add	sp, #12
 8005588:	e8bd 4ff0 	ldmia.w	sp!, {r4, r5, r6, r7, r8, r9, sl, fp, lr}
  pbuf_free(p);
 800558c:	f7fd be3d 	b.w	800320a <pbuf_free>
}
 8005590:	b003      	add	sp, #12
 8005592:	e8bd 8ff0 	ldmia.w	sp!, {r4, r5, r6, r7, r8, r9, sl, fp, pc}

08005596 <tcp_rexmit_rto>:
void
tcp_rexmit_rto(struct tcp_pcb *pcb)
{
  struct tcp_seg *seg;

  if (pcb->unacked == NULL) {
 8005596:	6f02      	ldr	r2, [r0, #112]	; 0x70
{
 8005598:	b410      	push	{r4}
  if (pcb->unacked == NULL) {
 800559a:	b192      	cbz	r2, 80055c2 <tcp_rexmit_rto+0x2c>
 800559c:	4611      	mov	r1, r2
    return;
  }

  /* Move all unacked segments to the head of the unsent queue */
  for (seg = pcb->unacked; seg->next != NULL; seg = seg->next);
 800559e:	680b      	ldr	r3, [r1, #0]
 80055a0:	b96b      	cbnz	r3, 80055be <tcp_rexmit_rto+0x28>
  /* concatenate unsent queue after unacked queue */
  seg->next = pcb->unsent;
 80055a2:	6ec4      	ldr	r4, [r0, #108]	; 0x6c
 80055a4:	600c      	str	r4, [r1, #0]
  /* unsent queue is the concatenated queue (of unacked, unsent) */
  pcb->unsent = pcb->unacked;
 80055a6:	66c2      	str	r2, [r0, #108]	; 0x6c
  /* unacked queue is now empty */
  pcb->unacked = NULL;
  /* last unsent hasn't changed, no need to reset unsent_oversize */

  /* increment number of retransmissions */
  ++pcb->nrtx;
 80055a8:	f890 2046 	ldrb.w	r2, [r0, #70]	; 0x46
  pcb->unacked = NULL;
 80055ac:	6703      	str	r3, [r0, #112]	; 0x70
  ++pcb->nrtx;
 80055ae:	3201      	adds	r2, #1
 80055b0:	f880 2046 	strb.w	r2, [r0, #70]	; 0x46

  /* Don't take any RTT measurements after retransmitting. */
  pcb->rttest = 0;
 80055b4:	6383      	str	r3, [r0, #56]	; 0x38

  /* Do the actual retransmission */
  tcp_output(pcb);
}
 80055b6:	f85d 4b04 	ldr.w	r4, [sp], #4
  tcp_output(pcb);
 80055ba:	f7ff be65 	b.w	8005288 <tcp_output>
 80055be:	4619      	mov	r1, r3
 80055c0:	e7ed      	b.n	800559e <tcp_rexmit_rto+0x8>
}
 80055c2:	f85d 4b04 	ldr.w	r4, [sp], #4
 80055c6:	4770      	bx	lr

080055c8 <tcp_rexmit>:
 *
 * @param pcb the tcp_pcb for which to retransmit the first unacked segment
 */
void
tcp_rexmit(struct tcp_pcb *pcb)
{
 80055c8:	b5f8      	push	{r3, r4, r5, r6, r7, lr}
  struct tcp_seg *seg;
  struct tcp_seg **cur_seg;

  if (pcb->unacked == NULL) {
 80055ca:	6f05      	ldr	r5, [r0, #112]	; 0x70
{
 80055cc:	4604      	mov	r4, r0
  if (pcb->unacked == NULL) {
 80055ce:	b19d      	cbz	r5, 80055f8 <tcp_rexmit+0x30>
  }

  /* Move the first unacked segment to the unsent queue */
  /* Keep the unsent queue sorted. */
  seg = pcb->unacked;
  pcb->unacked = seg->next;
 80055d0:	682b      	ldr	r3, [r5, #0]
 80055d2:	6703      	str	r3, [r0, #112]	; 0x70

  cur_seg = &(pcb->unsent);
 80055d4:	f100 066c 	add.w	r6, r0, #108	; 0x6c
  while (*cur_seg &&
 80055d8:	6833      	ldr	r3, [r6, #0]
 80055da:	b973      	cbnz	r3, 80055fa <tcp_rexmit+0x32>
    TCP_SEQ_LT(ntohl((*cur_seg)->tcphdr->seqno), ntohl(seg->tcphdr->seqno))) {
      cur_seg = &((*cur_seg)->next );
  }
  seg->next = *cur_seg;
 80055dc:	6833      	ldr	r3, [r6, #0]
 80055de:	602b      	str	r3, [r5, #0]
  *cur_seg = seg;
 80055e0:	6035      	str	r5, [r6, #0]
#if TCP_OVERSIZE
  if (seg->next == NULL) {
 80055e2:	682b      	ldr	r3, [r5, #0]
 80055e4:	b90b      	cbnz	r3, 80055ea <tcp_rexmit+0x22>
    /* the retransmitted segment is last in unsent, so reset unsent_oversize */
    pcb->unsent_oversize = 0;
 80055e6:	f8a4 306a 	strh.w	r3, [r4, #106]	; 0x6a
  }
#endif /* TCP_OVERSIZE */

  ++pcb->nrtx;
 80055ea:	f894 3046 	ldrb.w	r3, [r4, #70]	; 0x46
 80055ee:	3301      	adds	r3, #1
 80055f0:	f884 3046 	strb.w	r3, [r4, #70]	; 0x46

  /* Don't take any rtt measurements after retransmitting. */
  pcb->rttest = 0;
 80055f4:	2300      	movs	r3, #0
 80055f6:	63a3      	str	r3, [r4, #56]	; 0x38
 80055f8:	bdf8      	pop	{r3, r4, r5, r6, r7, pc}
    TCP_SEQ_LT(ntohl((*cur_seg)->tcphdr->seqno), ntohl(seg->tcphdr->seqno))) {
 80055fa:	691b      	ldr	r3, [r3, #16]
 80055fc:	6858      	ldr	r0, [r3, #4]
 80055fe:	f7fc f97d 	bl	80018fc <lwip_ntohl>
 8005602:	692b      	ldr	r3, [r5, #16]
 8005604:	4607      	mov	r7, r0
 8005606:	6858      	ldr	r0, [r3, #4]
 8005608:	f7fc f978 	bl	80018fc <lwip_ntohl>
 800560c:	1a38      	subs	r0, r7, r0
  while (*cur_seg &&
 800560e:	2800      	cmp	r0, #0
 8005610:	dae4      	bge.n	80055dc <tcp_rexmit+0x14>
      cur_seg = &((*cur_seg)->next );
 8005612:	6836      	ldr	r6, [r6, #0]
 8005614:	e7e0      	b.n	80055d8 <tcp_rexmit+0x10>

08005616 <tcp_rexmit_fast>:
 * @param pcb the tcp_pcb for which to retransmit the first unacked segment
 */
void 
tcp_rexmit_fast(struct tcp_pcb *pcb)
{
  if (pcb->unacked != NULL && !(pcb->flags & TF_INFR)) {
 8005616:	6f03      	ldr	r3, [r0, #112]	; 0x70
{
 8005618:	b510      	push	{r4, lr}
 800561a:	4604      	mov	r4, r0
  if (pcb->unacked != NULL && !(pcb->flags & TF_INFR)) {
 800561c:	b313      	cbz	r3, 8005664 <tcp_rexmit_fast+0x4e>
 800561e:	7f83      	ldrb	r3, [r0, #30]
 8005620:	075b      	lsls	r3, r3, #29
 8005622:	d41f      	bmi.n	8005664 <tcp_rexmit_fast+0x4e>
    LWIP_DEBUGF(TCP_FR_DEBUG, 
                ("tcp_receive: dupacks %"U16_F" (%"U32_F
                 "), fast retransmit %"U32_F"\n",
                 (u16_t)pcb->dupacks, pcb->lastack,
                 ntohl(pcb->unacked->tcphdr->seqno)));
    tcp_rexmit(pcb);
 8005624:	f7ff ffd0 	bl	80055c8 <tcp_rexmit>

    /* Set ssthresh to half of the minimum of the current
     * cwnd and the advertised window */
    if (pcb->cwnd > pcb->snd_wnd) {
 8005628:	f8b4 304c 	ldrh.w	r3, [r4, #76]	; 0x4c
 800562c:	f8b4 2060 	ldrh.w	r2, [r4, #96]	; 0x60
 8005630:	4293      	cmp	r3, r2
      pcb->ssthresh = pcb->snd_wnd / 2;
 8005632:	bf8b      	itete	hi
 8005634:	0852      	lsrhi	r2, r2, #1
    } else {
      pcb->ssthresh = pcb->cwnd / 2;
 8005636:	085b      	lsrls	r3, r3, #1
      pcb->ssthresh = pcb->snd_wnd / 2;
 8005638:	f8a4 204e 	strhhi.w	r2, [r4, #78]	; 0x4e
      pcb->ssthresh = pcb->cwnd / 2;
 800563c:	f8a4 304e 	strhls.w	r3, [r4, #78]	; 0x4e
    }
    
    /* The minimum value for ssthresh should be 2 MSS */
    if (pcb->ssthresh < 2*pcb->mss) {
 8005640:	8ee3      	ldrh	r3, [r4, #54]	; 0x36
 8005642:	f8b4 104e 	ldrh.w	r1, [r4, #78]	; 0x4e
 8005646:	005a      	lsls	r2, r3, #1
 8005648:	4291      	cmp	r1, r2
      LWIP_DEBUGF(TCP_FR_DEBUG, 
                  ("tcp_receive: The minimum value for ssthresh %"U16_F
                   " should be min 2 mss %"U16_F"...\n",
                   pcb->ssthresh, 2*pcb->mss));
      pcb->ssthresh = 2*pcb->mss;
 800564a:	bfb8      	it	lt
 800564c:	f8a4 204e 	strhlt.w	r2, [r4, #78]	; 0x4e
    }
    
    pcb->cwnd = pcb->ssthresh + 3 * pcb->mss;
 8005650:	4413      	add	r3, r2
 8005652:	f8b4 204e 	ldrh.w	r2, [r4, #78]	; 0x4e
 8005656:	4413      	add	r3, r2
 8005658:	f8a4 304c 	strh.w	r3, [r4, #76]	; 0x4c
    pcb->flags |= TF_INFR;
 800565c:	7fa3      	ldrb	r3, [r4, #30]
 800565e:	f043 0304 	orr.w	r3, r3, #4
 8005662:	77a3      	strb	r3, [r4, #30]
 8005664:	bd10      	pop	{r4, pc}

08005666 <tcp_keepalive>:
 *
 * @param pcb the tcp_pcb for which to send a keepalive packet
 */
void
tcp_keepalive(struct tcp_pcb *pcb)
{
 8005666:	b5f7      	push	{r0, r1, r2, r4, r5, r6, r7, lr}
 8005668:	4604      	mov	r4, r0
                          ip4_addr3_16(&pcb->remote_ip), ip4_addr4_16(&pcb->remote_ip)));

  LWIP_DEBUGF(TCP_DEBUG, ("tcp_keepalive: tcp_ticks %"U32_F"   pcb->tmr %"U32_F" pcb->keep_cnt_sent %"U16_F"\n", 
                          tcp_ticks, pcb->tmr, pcb->keep_cnt_sent));
   
  p = tcp_output_alloc_header(pcb, 0, 0, htonl(pcb->snd_nxt - 1));
 800566a:	6d00      	ldr	r0, [r0, #80]	; 0x50
 800566c:	3801      	subs	r0, #1
 800566e:	f7fc f943 	bl	80018f8 <lwip_htonl>
 8005672:	2100      	movs	r1, #0
 8005674:	4602      	mov	r2, r0
 8005676:	4620      	mov	r0, r4
 8005678:	f7ff fb9d 	bl	8004db6 <tcp_output_alloc_header.constprop.0>
  if(p == NULL) {
 800567c:	4605      	mov	r5, r0
 800567e:	b1c8      	cbz	r0, 80056b4 <tcp_keepalive+0x4e>
    return;
  }
  tcphdr = (struct tcp_hdr *)p->payload;

#if CHECKSUM_GEN_TCP
  tcphdr->chksum = inet_chksum_pseudo(p, &pcb->local_ip, &pcb->remote_ip,
 8005680:	1d26      	adds	r6, r4, #4
 8005682:	8903      	ldrh	r3, [r0, #8]
  tcphdr = (struct tcp_hdr *)p->payload;
 8005684:	6847      	ldr	r7, [r0, #4]
  tcphdr->chksum = inet_chksum_pseudo(p, &pcb->local_ip, &pcb->remote_ip,
 8005686:	9300      	str	r3, [sp, #0]
 8005688:	4632      	mov	r2, r6
 800568a:	4621      	mov	r1, r4
 800568c:	2306      	movs	r3, #6
 800568e:	f7fc fe9b 	bl	80023c8 <inet_chksum_pseudo>
  /* Send output to IP */
#if LWIP_NETIF_HWADDRHINT
  ip_output_hinted(p, &pcb->local_ip, &pcb->remote_ip, pcb->ttl, 0, IP_PROTO_TCP,
    &(pcb->addr_hint));
#else /* LWIP_NETIF_HWADDRHINT*/
  ip_output(p, &pcb->local_ip, &pcb->remote_ip, pcb->ttl, 0, IP_PROTO_TCP);
 8005692:	2100      	movs	r1, #0
  tcphdr->chksum = inet_chksum_pseudo(p, &pcb->local_ip, &pcb->remote_ip,
 8005694:	8238      	strh	r0, [r7, #16]
  ip_output(p, &pcb->local_ip, &pcb->remote_ip, pcb->ttl, 0, IP_PROTO_TCP);
 8005696:	2206      	movs	r2, #6
 8005698:	e88d 0006 	stmia.w	sp, {r1, r2}
 800569c:	7aa3      	ldrb	r3, [r4, #10]
 800569e:	4632      	mov	r2, r6
 80056a0:	4621      	mov	r1, r4
 80056a2:	4628      	mov	r0, r5
 80056a4:	f7fd f854 	bl	8002750 <ip_output>
#endif /* LWIP_NETIF_HWADDRHINT*/

  pbuf_free(p);
 80056a8:	4628      	mov	r0, r5

  LWIP_DEBUGF(TCP_DEBUG, ("tcp_keepalive: seqno %"U32_F" ackno %"U32_F".\n",
                          pcb->snd_nxt - 1, pcb->rcv_nxt));
}
 80056aa:	b003      	add	sp, #12
 80056ac:	e8bd 40f0 	ldmia.w	sp!, {r4, r5, r6, r7, lr}
  pbuf_free(p);
 80056b0:	f7fd bdab 	b.w	800320a <pbuf_free>
}
 80056b4:	b003      	add	sp, #12
 80056b6:	bdf0      	pop	{r4, r5, r6, r7, pc}

080056b8 <tcp_zero_window_probe>:
 *
 * @param pcb the tcp_pcb for which to send a zero-window probe packet
 */
void
tcp_zero_window_probe(struct tcp_pcb *pcb)
{
 80056b8:	e92d 41f3 	stmdb	sp!, {r0, r1, r4, r5, r6, r7, r8, lr}
  LWIP_DEBUGF(TCP_DEBUG, 
              ("tcp_zero_window_probe: tcp_ticks %"U32_F
               "   pcb->tmr %"U32_F" pcb->keep_cnt_sent %"U16_F"\n", 
               tcp_ticks, pcb->tmr, pcb->keep_cnt_sent));

  seg = pcb->unacked;
 80056bc:	6f05      	ldr	r5, [r0, #112]	; 0x70
{
 80056be:	4606      	mov	r6, r0

  if(seg == NULL) {
 80056c0:	b915      	cbnz	r5, 80056c8 <tcp_zero_window_probe+0x10>
    seg = pcb->unsent;
 80056c2:	6ec5      	ldr	r5, [r0, #108]	; 0x6c
  }
  if(seg == NULL) {
 80056c4:	2d00      	cmp	r5, #0
 80056c6:	d047      	beq.n	8005758 <tcp_zero_window_probe+0xa0>
    return;
  }

  is_fin = ((TCPH_FLAGS(seg->tcphdr) & TCP_FIN) != 0) && (seg->len == 0);
 80056c8:	692b      	ldr	r3, [r5, #16]
 80056ca:	8998      	ldrh	r0, [r3, #12]
 80056cc:	f7fc f911 	bl	80018f2 <lwip_ntohs>
 80056d0:	f010 0401 	ands.w	r4, r0, #1
 80056d4:	bf18      	it	ne
 80056d6:	892c      	ldrhne	r4, [r5, #8]
  /* we want to send one seqno: either FIN or data (no options) */
  len = is_fin ? 0 : 1;

  p = tcp_output_alloc_header(pcb, 0, len, seg->tcphdr->seqno);
 80056d8:	692b      	ldr	r3, [r5, #16]
  is_fin = ((TCPH_FLAGS(seg->tcphdr) & TCP_FIN) != 0) && (seg->len == 0);
 80056da:	bf1c      	itt	ne
 80056dc:	fab4 f484 	clzne	r4, r4
 80056e0:	0964      	lsrne	r4, r4, #5
  p = tcp_output_alloc_header(pcb, 0, len, seg->tcphdr->seqno);
 80056e2:	685a      	ldr	r2, [r3, #4]
 80056e4:	f084 0101 	eor.w	r1, r4, #1
 80056e8:	4630      	mov	r0, r6
 80056ea:	f7ff fb64 	bl	8004db6 <tcp_output_alloc_header.constprop.0>
  if(p == NULL) {
 80056ee:	4607      	mov	r7, r0
 80056f0:	b390      	cbz	r0, 8005758 <tcp_zero_window_probe+0xa0>
    LWIP_DEBUGF(TCP_DEBUG, ("tcp_zero_window_probe: no memory for pbuf\n"));
    return;
  }
  tcphdr = (struct tcp_hdr *)p->payload;
 80056f2:	f8d0 8004 	ldr.w	r8, [r0, #4]

  if (is_fin) {
 80056f6:	b324      	cbz	r4, 8005742 <tcp_zero_window_probe+0x8a>
    /* FIN segment, no data */
    TCPH_FLAGS_SET(tcphdr, TCP_ACK | TCP_FIN);
 80056f8:	2011      	movs	r0, #17
 80056fa:	f9b8 400c 	ldrsh.w	r4, [r8, #12]
 80056fe:	f7fc f8f5 	bl	80018ec <lwip_htons>
 8005702:	f424 547c 	bic.w	r4, r4, #16128	; 0x3f00
 8005706:	4320      	orrs	r0, r4
 8005708:	f8a8 000c 	strh.w	r0, [r8, #12]
       Ensure we copy the first TCP data byte: */
    pbuf_copy_partial(seg->p, d, 1, seg->p->tot_len - seg->len);
  }

#if CHECKSUM_GEN_TCP
  tcphdr->chksum = inet_chksum_pseudo(p, &pcb->local_ip, &pcb->remote_ip,
 800570c:	893b      	ldrh	r3, [r7, #8]
 800570e:	9300      	str	r3, [sp, #0]
 8005710:	1d34      	adds	r4, r6, #4
 8005712:	4622      	mov	r2, r4
 8005714:	4631      	mov	r1, r6
 8005716:	2306      	movs	r3, #6
 8005718:	4638      	mov	r0, r7
 800571a:	f7fc fe55 	bl	80023c8 <inet_chksum_pseudo>
  /* Send output to IP */
#if LWIP_NETIF_HWADDRHINT
  ip_output_hinted(p, &pcb->local_ip, &pcb->remote_ip, pcb->ttl, 0, IP_PROTO_TCP,
    &(pcb->addr_hint));
#else /* LWIP_NETIF_HWADDRHINT*/
  ip_output(p, &pcb->local_ip, &pcb->remote_ip, pcb->ttl, 0, IP_PROTO_TCP);
 800571e:	2100      	movs	r1, #0
  tcphdr->chksum = inet_chksum_pseudo(p, &pcb->local_ip, &pcb->remote_ip,
 8005720:	f8a8 0010 	strh.w	r0, [r8, #16]
  ip_output(p, &pcb->local_ip, &pcb->remote_ip, pcb->ttl, 0, IP_PROTO_TCP);
 8005724:	2206      	movs	r2, #6
 8005726:	e88d 0006 	stmia.w	sp, {r1, r2}
 800572a:	7ab3      	ldrb	r3, [r6, #10]
 800572c:	4622      	mov	r2, r4
 800572e:	4631      	mov	r1, r6
 8005730:	4638      	mov	r0, r7
 8005732:	f7fd f80d 	bl	8002750 <ip_output>
#endif /* LWIP_NETIF_HWADDRHINT*/

  pbuf_free(p);
 8005736:	4638      	mov	r0, r7

  LWIP_DEBUGF(TCP_DEBUG, ("tcp_zero_window_probe: seqno %"U32_F
                          " ackno %"U32_F".\n",
                          pcb->snd_nxt - 1, pcb->rcv_nxt));
}
 8005738:	b002      	add	sp, #8
 800573a:	e8bd 41f0 	ldmia.w	sp!, {r4, r5, r6, r7, r8, lr}
  pbuf_free(p);
 800573e:	f7fd bd64 	b.w	800320a <pbuf_free>
    pbuf_copy_partial(seg->p, d, 1, seg->p->tot_len - seg->len);
 8005742:	6868      	ldr	r0, [r5, #4]
 8005744:	892a      	ldrh	r2, [r5, #8]
 8005746:	8903      	ldrh	r3, [r0, #8]
 8005748:	1a9b      	subs	r3, r3, r2
 800574a:	b29b      	uxth	r3, r3
 800574c:	2201      	movs	r2, #1
 800574e:	f108 0114 	add.w	r1, r8, #20
 8005752:	f7fd fe9b 	bl	800348c <pbuf_copy_partial>
 8005756:	e7d9      	b.n	800570c <tcp_zero_window_probe+0x54>
}
 8005758:	b002      	add	sp, #8
 800575a:	e8bd 81f0 	ldmia.w	sp!, {r4, r5, r6, r7, r8, pc}
	...

08005760 <sys_timeout>:
sys_timeout_debug(u32_t msecs, sys_timeout_handler handler, void *arg, const char* handler_name)
#else /* LWIP_DEBUG_TIMERNAMES */
void
sys_timeout(u32_t msecs, sys_timeout_handler handler, void *arg)
#endif /* LWIP_DEBUG_TIMERNAMES */
{
 8005760:	b570      	push	{r4, r5, r6, lr}
 8005762:	4604      	mov	r4, r0
  struct sys_timeo *timeout, *t;

  timeout = (struct sys_timeo *)memp_malloc(MEMP_SYS_TIMEOUT);
 8005764:	2007      	movs	r0, #7
{
 8005766:	460e      	mov	r6, r1
 8005768:	4615      	mov	r5, r2
  timeout = (struct sys_timeo *)memp_malloc(MEMP_SYS_TIMEOUT);
 800576a:	f7fd fc25 	bl	8002fb8 <memp_malloc>
  if (timeout == NULL) {
 800576e:	b308      	cbz	r0, 80057b4 <sys_timeout+0x54>
  timeout->handler_name = handler_name;
  LWIP_DEBUGF(TIMERS_DEBUG, ("sys_timeout: %p msecs=%"U32_F" handler=%s arg=%p\n",
    (void *)timeout, msecs, handler_name, (void *)arg));
#endif /* LWIP_DEBUG_TIMERNAMES */

  if (next_timeout == NULL) {
 8005770:	4911      	ldr	r1, [pc, #68]	; (80057b8 <sys_timeout+0x58>)
  timeout->h = handler;
 8005772:	6086      	str	r6, [r0, #8]
  timeout->next = NULL;
 8005774:	2300      	movs	r3, #0
 8005776:	6003      	str	r3, [r0, #0]
  if (next_timeout == NULL) {
 8005778:	680b      	ldr	r3, [r1, #0]
  timeout->arg = arg;
 800577a:	60c5      	str	r5, [r0, #12]
  timeout->time = msecs;
 800577c:	6044      	str	r4, [r0, #4]
  if (next_timeout == NULL) {
 800577e:	b90b      	cbnz	r3, 8005784 <sys_timeout+0x24>
  }

  if (next_timeout->time > msecs) {
    next_timeout->time -= msecs;
    timeout->next = next_timeout;
    next_timeout = timeout;
 8005780:	6008      	str	r0, [r1, #0]
 8005782:	bd70      	pop	{r4, r5, r6, pc}
  if (next_timeout->time > msecs) {
 8005784:	685a      	ldr	r2, [r3, #4]
 8005786:	4294      	cmp	r4, r2
 8005788:	d207      	bcs.n	800579a <sys_timeout+0x3a>
    next_timeout->time -= msecs;
 800578a:	1b12      	subs	r2, r2, r4
 800578c:	605a      	str	r2, [r3, #4]
    timeout->next = next_timeout;
 800578e:	6003      	str	r3, [r0, #0]
 8005790:	e7f6      	b.n	8005780 <sys_timeout+0x20>
  } else {
    for(t = next_timeout; t != NULL; t = t->next) {
      timeout->time -= t->time;
      if (t->next == NULL || t->next->time > timeout->time) {
 8005792:	6854      	ldr	r4, [r2, #4]
 8005794:	42a1      	cmp	r1, r4
 8005796:	d30a      	bcc.n	80057ae <sys_timeout+0x4e>
 8005798:	4613      	mov	r3, r2
      timeout->time -= t->time;
 800579a:	685a      	ldr	r2, [r3, #4]
 800579c:	6841      	ldr	r1, [r0, #4]
 800579e:	1a89      	subs	r1, r1, r2
      if (t->next == NULL || t->next->time > timeout->time) {
 80057a0:	681a      	ldr	r2, [r3, #0]
      timeout->time -= t->time;
 80057a2:	6041      	str	r1, [r0, #4]
      if (t->next == NULL || t->next->time > timeout->time) {
 80057a4:	2a00      	cmp	r2, #0
 80057a6:	d1f4      	bne.n	8005792 <sys_timeout+0x32>
        if (t->next != NULL) {
          t->next->time -= timeout->time;
        }
        timeout->next = t->next;
 80057a8:	6002      	str	r2, [r0, #0]
        t->next = timeout;
 80057aa:	6018      	str	r0, [r3, #0]
        break;
 80057ac:	bd70      	pop	{r4, r5, r6, pc}
          t->next->time -= timeout->time;
 80057ae:	1a61      	subs	r1, r4, r1
 80057b0:	6051      	str	r1, [r2, #4]
 80057b2:	e7f9      	b.n	80057a8 <sys_timeout+0x48>
 80057b4:	bd70      	pop	{r4, r5, r6, pc}
 80057b6:	bf00      	nop
 80057b8:	20002548 	.word	0x20002548

080057bc <tcp_timer_needed>:
  if (!tcpip_tcp_timer_active && (tcp_active_pcbs || tcp_tw_pcbs)) {
 80057bc:	4b08      	ldr	r3, [pc, #32]	; (80057e0 <tcp_timer_needed+0x24>)
 80057be:	681a      	ldr	r2, [r3, #0]
 80057c0:	b962      	cbnz	r2, 80057dc <tcp_timer_needed+0x20>
 80057c2:	4a08      	ldr	r2, [pc, #32]	; (80057e4 <tcp_timer_needed+0x28>)
 80057c4:	6812      	ldr	r2, [r2, #0]
 80057c6:	b912      	cbnz	r2, 80057ce <tcp_timer_needed+0x12>
 80057c8:	4a07      	ldr	r2, [pc, #28]	; (80057e8 <tcp_timer_needed+0x2c>)
 80057ca:	6812      	ldr	r2, [r2, #0]
 80057cc:	b132      	cbz	r2, 80057dc <tcp_timer_needed+0x20>
    tcpip_tcp_timer_active = 1;
 80057ce:	2201      	movs	r2, #1
 80057d0:	601a      	str	r2, [r3, #0]
    sys_timeout(TCP_TMR_INTERVAL, tcpip_tcp_timer, NULL);
 80057d2:	4906      	ldr	r1, [pc, #24]	; (80057ec <tcp_timer_needed+0x30>)
 80057d4:	2200      	movs	r2, #0
 80057d6:	20fa      	movs	r0, #250	; 0xfa
 80057d8:	f7ff bfc2 	b.w	8005760 <sys_timeout>
 80057dc:	4770      	bx	lr
 80057de:	bf00      	nop
 80057e0:	2000254c 	.word	0x2000254c
 80057e4:	20004e5c 	.word	0x20004e5c
 80057e8:	20004e70 	.word	0x20004e70
 80057ec:	080057f1 	.word	0x080057f1

080057f0 <tcpip_tcp_timer>:
{
 80057f0:	b508      	push	{r3, lr}
  tcp_tmr();
 80057f2:	f7fe faa7 	bl	8003d44 <tcp_tmr>
  if (tcp_active_pcbs || tcp_tw_pcbs) {
 80057f6:	4b08      	ldr	r3, [pc, #32]	; (8005818 <tcpip_tcp_timer+0x28>)
 80057f8:	681b      	ldr	r3, [r3, #0]
 80057fa:	b913      	cbnz	r3, 8005802 <tcpip_tcp_timer+0x12>
 80057fc:	4b07      	ldr	r3, [pc, #28]	; (800581c <tcpip_tcp_timer+0x2c>)
 80057fe:	681b      	ldr	r3, [r3, #0]
 8005800:	b133      	cbz	r3, 8005810 <tcpip_tcp_timer+0x20>
    sys_timeout(TCP_TMR_INTERVAL, tcpip_tcp_timer, NULL);
 8005802:	2200      	movs	r2, #0
 8005804:	4906      	ldr	r1, [pc, #24]	; (8005820 <tcpip_tcp_timer+0x30>)
 8005806:	20fa      	movs	r0, #250	; 0xfa
}
 8005808:	e8bd 4008 	ldmia.w	sp!, {r3, lr}
    sys_timeout(TCP_TMR_INTERVAL, tcpip_tcp_timer, NULL);
 800580c:	f7ff bfa8 	b.w	8005760 <sys_timeout>
    tcpip_tcp_timer_active = 0;
 8005810:	4a04      	ldr	r2, [pc, #16]	; (8005824 <tcpip_tcp_timer+0x34>)
 8005812:	6013      	str	r3, [r2, #0]
 8005814:	bd08      	pop	{r3, pc}
 8005816:	bf00      	nop
 8005818:	20004e5c 	.word	0x20004e5c
 800581c:	20004e70 	.word	0x20004e70
 8005820:	080057f1 	.word	0x080057f1
 8005824:	2000254c 	.word	0x2000254c

08005828 <sys_timeouts_init>:
{
 8005828:	b508      	push	{r3, lr}
  sys_timeout(IP_TMR_INTERVAL, ip_reass_timer, NULL);
 800582a:	2200      	movs	r2, #0
 800582c:	490d      	ldr	r1, [pc, #52]	; (8005864 <sys_timeouts_init+0x3c>)
 800582e:	f44f 707a 	mov.w	r0, #1000	; 0x3e8
 8005832:	f7ff ff95 	bl	8005760 <sys_timeout>
  sys_timeout(ARP_TMR_INTERVAL, arp_timer, NULL);
 8005836:	2200      	movs	r2, #0
 8005838:	490b      	ldr	r1, [pc, #44]	; (8005868 <sys_timeouts_init+0x40>)
 800583a:	f241 3088 	movw	r0, #5000	; 0x1388
 800583e:	f7ff ff8f 	bl	8005760 <sys_timeout>
  sys_timeout(DHCP_COARSE_TIMER_MSECS, dhcp_timer_coarse, NULL);
 8005842:	2200      	movs	r2, #0
 8005844:	4909      	ldr	r1, [pc, #36]	; (800586c <sys_timeouts_init+0x44>)
 8005846:	f64e 2060 	movw	r0, #60000	; 0xea60
 800584a:	f7ff ff89 	bl	8005760 <sys_timeout>
  sys_timeout(DHCP_FINE_TIMER_MSECS, dhcp_timer_fine, NULL);
 800584e:	2200      	movs	r2, #0
 8005850:	4907      	ldr	r1, [pc, #28]	; (8005870 <sys_timeouts_init+0x48>)
 8005852:	f44f 70fa 	mov.w	r0, #500	; 0x1f4
 8005856:	f7ff ff83 	bl	8005760 <sys_timeout>
  timeouts_last_time = sys_now();
 800585a:	f001 f957 	bl	8006b0c <sys_now>
 800585e:	4b05      	ldr	r3, [pc, #20]	; (8005874 <sys_timeouts_init+0x4c>)
 8005860:	6018      	str	r0, [r3, #0]
 8005862:	bd08      	pop	{r3, pc}
 8005864:	080058cd 	.word	0x080058cd
 8005868:	080058b1 	.word	0x080058b1
 800586c:	08005895 	.word	0x08005895
 8005870:	08005879 	.word	0x08005879
 8005874:	20002550 	.word	0x20002550

08005878 <dhcp_timer_fine>:
{
 8005878:	b508      	push	{r3, lr}
  dhcp_fine_tmr();
 800587a:	f7fc fc41 	bl	8002100 <dhcp_fine_tmr>
  sys_timeout(DHCP_FINE_TIMER_MSECS, dhcp_timer_fine, NULL);
 800587e:	2200      	movs	r2, #0
 8005880:	4903      	ldr	r1, [pc, #12]	; (8005890 <dhcp_timer_fine+0x18>)
 8005882:	f44f 70fa 	mov.w	r0, #500	; 0x1f4
}
 8005886:	e8bd 4008 	ldmia.w	sp!, {r3, lr}
  sys_timeout(DHCP_FINE_TIMER_MSECS, dhcp_timer_fine, NULL);
 800588a:	f7ff bf69 	b.w	8005760 <sys_timeout>
 800588e:	bf00      	nop
 8005890:	08005879 	.word	0x08005879

08005894 <dhcp_timer_coarse>:
{
 8005894:	b508      	push	{r3, lr}
  dhcp_coarse_tmr();
 8005896:	f7fc fbb5 	bl	8002004 <dhcp_coarse_tmr>
  sys_timeout(DHCP_COARSE_TIMER_MSECS, dhcp_timer_coarse, NULL);
 800589a:	2200      	movs	r2, #0
 800589c:	4903      	ldr	r1, [pc, #12]	; (80058ac <dhcp_timer_coarse+0x18>)
 800589e:	f64e 2060 	movw	r0, #60000	; 0xea60
}
 80058a2:	e8bd 4008 	ldmia.w	sp!, {r3, lr}
  sys_timeout(DHCP_COARSE_TIMER_MSECS, dhcp_timer_coarse, NULL);
 80058a6:	f7ff bf5b 	b.w	8005760 <sys_timeout>
 80058aa:	bf00      	nop
 80058ac:	08005895 	.word	0x08005895

080058b0 <arp_timer>:
{
 80058b0:	b508      	push	{r3, lr}
  etharp_tmr();
 80058b2:	f000 fa57 	bl	8005d64 <etharp_tmr>
  sys_timeout(ARP_TMR_INTERVAL, arp_timer, NULL);
 80058b6:	2200      	movs	r2, #0
 80058b8:	4903      	ldr	r1, [pc, #12]	; (80058c8 <arp_timer+0x18>)
 80058ba:	f241 3088 	movw	r0, #5000	; 0x1388
}
 80058be:	e8bd 4008 	ldmia.w	sp!, {r3, lr}
  sys_timeout(ARP_TMR_INTERVAL, arp_timer, NULL);
 80058c2:	f7ff bf4d 	b.w	8005760 <sys_timeout>
 80058c6:	bf00      	nop
 80058c8:	080058b1 	.word	0x080058b1

080058cc <ip_reass_timer>:
{
 80058cc:	b508      	push	{r3, lr}
  ip_reass_tmr();
 80058ce:	f7fd f803 	bl	80028d8 <ip_reass_tmr>
  sys_timeout(IP_TMR_INTERVAL, ip_reass_timer, NULL);
 80058d2:	2200      	movs	r2, #0
 80058d4:	4903      	ldr	r1, [pc, #12]	; (80058e4 <ip_reass_timer+0x18>)
 80058d6:	f44f 707a 	mov.w	r0, #1000	; 0x3e8
}
 80058da:	e8bd 4008 	ldmia.w	sp!, {r3, lr}
  sys_timeout(IP_TMR_INTERVAL, ip_reass_timer, NULL);
 80058de:	f7ff bf3f 	b.w	8005760 <sys_timeout>
 80058e2:	bf00      	nop
 80058e4:	080058cd 	.word	0x080058cd

080058e8 <sys_check_timeouts>:
 *
 * Must be called periodically from your main loop.
 */
void
sys_check_timeouts(void)
{
 80058e8:	e92d 43f8 	stmdb	sp!, {r3, r4, r5, r6, r7, r8, r9, lr}
  if (next_timeout) {
 80058ec:	4d10      	ldr	r5, [pc, #64]	; (8005930 <sys_check_timeouts+0x48>)
 80058ee:	682b      	ldr	r3, [r5, #0]
 80058f0:	b1db      	cbz	r3, 800592a <sys_check_timeouts+0x42>
    sys_timeout_handler handler;
    void *arg;
    u8_t had_one;
    u32_t now;

    now = sys_now();
 80058f2:	f001 f90b 	bl	8006b0c <sys_now>
    /* this cares for wraparounds */
    diff = now - timeouts_last_time;
 80058f6:	4b0f      	ldr	r3, [pc, #60]	; (8005934 <sys_check_timeouts+0x4c>)
 80058f8:	681c      	ldr	r4, [r3, #0]
    now = sys_now();
 80058fa:	4607      	mov	r7, r0
    diff = now - timeouts_last_time;
 80058fc:	1b04      	subs	r4, r0, r4
 80058fe:	4698      	mov	r8, r3
    {
#if PBUF_POOL_FREE_OOSEQ
      PBUF_CHECK_FREE_OOSEQ();
#endif /* PBUF_POOL_FREE_OOSEQ */
      had_one = 0;
      tmptimeout = next_timeout;
 8005900:	6829      	ldr	r1, [r5, #0]
      if (tmptimeout && (tmptimeout->time <= diff)) {
 8005902:	b191      	cbz	r1, 800592a <sys_check_timeouts+0x42>
 8005904:	684b      	ldr	r3, [r1, #4]
 8005906:	429c      	cmp	r4, r3
 8005908:	d30f      	bcc.n	800592a <sys_check_timeouts+0x42>
        /* timeout has expired */
        had_one = 1;
        timeouts_last_time = now;
        diff -= tmptimeout->time;
        next_timeout = tmptimeout->next;
        handler = tmptimeout->h;
 800590a:	688e      	ldr	r6, [r1, #8]
        timeouts_last_time = now;
 800590c:	f8c8 7000 	str.w	r7, [r8]
        diff -= tmptimeout->time;
 8005910:	1ae4      	subs	r4, r4, r3
        if (handler != NULL) {
          LWIP_DEBUGF(TIMERS_DEBUG, ("sct calling h=%s arg=%p\n",
            tmptimeout->handler_name, arg));
        }
#endif /* LWIP_DEBUG_TIMERNAMES */
        memp_free(MEMP_SYS_TIMEOUT, tmptimeout);
 8005912:	2007      	movs	r0, #7
        next_timeout = tmptimeout->next;
 8005914:	680b      	ldr	r3, [r1, #0]
 8005916:	602b      	str	r3, [r5, #0]
        arg = tmptimeout->arg;
 8005918:	f8d1 900c 	ldr.w	r9, [r1, #12]
        memp_free(MEMP_SYS_TIMEOUT, tmptimeout);
 800591c:	f7fd fb5c 	bl	8002fd8 <memp_free>
        if (handler != NULL) {
 8005920:	2e00      	cmp	r6, #0
 8005922:	d0ed      	beq.n	8005900 <sys_check_timeouts+0x18>
          handler(arg);
 8005924:	4648      	mov	r0, r9
 8005926:	47b0      	blx	r6
 8005928:	e7ea      	b.n	8005900 <sys_check_timeouts+0x18>
 800592a:	e8bd 83f8 	ldmia.w	sp!, {r3, r4, r5, r6, r7, r8, r9, pc}
 800592e:	bf00      	nop
 8005930:	20002548 	.word	0x20002548
 8005934:	20002550 	.word	0x20002550

08005938 <udp_init>:
/**
 * Initialize this module.
 */
void
udp_init(void)
{
 8005938:	4770      	bx	lr
	...

0800593c <udp_input>:
 * @param inp network interface on which the datagram was received.
 *
 */
void
udp_input(struct pbuf *p, struct netif *inp)
{
 800593c:	e92d 4ff0 	stmdb	sp!, {r4, r5, r6, r7, r8, r9, sl, fp, lr}

  PERF_START;

  UDP_STATS_INC(udp.recv);

  iphdr = (struct ip_hdr *)p->payload;
 8005940:	f8d0 a004 	ldr.w	sl, [r0, #4]

  /* Check minimum length (IP header + UDP header)
   * and move payload pointer to UDP header */
  if (p->tot_len < (IPH_HL(iphdr) * 4 + UDP_HLEN) || pbuf_header(p, -(s16_t)(IPH_HL(iphdr) * 4))) {
 8005944:	8903      	ldrh	r3, [r0, #8]
{
 8005946:	468b      	mov	fp, r1
 8005948:	f89a 1000 	ldrb.w	r1, [sl]
 800594c:	f001 010f 	and.w	r1, r1, #15
  if (p->tot_len < (IPH_HL(iphdr) * 4 + UDP_HLEN) || pbuf_header(p, -(s16_t)(IPH_HL(iphdr) * 4))) {
 8005950:	1c8a      	adds	r2, r1, #2
 8005952:	ebb3 0f82 	cmp.w	r3, r2, lsl #2
{
 8005956:	b085      	sub	sp, #20
 8005958:	4605      	mov	r5, r0
  if (p->tot_len < (IPH_HL(iphdr) * 4 + UDP_HLEN) || pbuf_header(p, -(s16_t)(IPH_HL(iphdr) * 4))) {
 800595a:	db05      	blt.n	8005968 <udp_input+0x2c>
 800595c:	0089      	lsls	r1, r1, #2
 800595e:	4249      	negs	r1, r1
 8005960:	f7fd fc28 	bl	80031b4 <pbuf_header>
 8005964:	4606      	mov	r6, r0
 8005966:	b128      	cbz	r0, 8005974 <udp_input+0x38>
    LWIP_DEBUGF(UDP_DEBUG,
                ("udp_input: short UDP datagram (%"U16_F" bytes) discarded\n", p->tot_len));
    UDP_STATS_INC(udp.lenerr);
    UDP_STATS_INC(udp.drop);
    snmp_inc_udpinerrors();
    pbuf_free(p);
 8005968:	4628      	mov	r0, r5
  } else {
    pbuf_free(p);
  }
end:
  PERF_STOP("udp_input");
}
 800596a:	b005      	add	sp, #20
 800596c:	e8bd 4ff0 	ldmia.w	sp!, {r4, r5, r6, r7, r8, r9, sl, fp, lr}
    pbuf_free(p);
 8005970:	f7fd bc4b 	b.w	800320a <pbuf_free>
  broadcast = ip_addr_isbroadcast(&current_iphdr_dest, inp);
 8005974:	4c4f      	ldr	r4, [pc, #316]	; (8005ab4 <udp_input+0x178>)
  udphdr = (struct udp_hdr *)p->payload;
 8005976:	686f      	ldr	r7, [r5, #4]
  broadcast = ip_addr_isbroadcast(&current_iphdr_dest, inp);
 8005978:	6820      	ldr	r0, [r4, #0]
 800597a:	4659      	mov	r1, fp
 800597c:	f7fc ff04 	bl	8002788 <ip4_addr_isbroadcast>
 8005980:	4680      	mov	r8, r0
  src = ntohs(udphdr->src);
 8005982:	8838      	ldrh	r0, [r7, #0]
 8005984:	f7fb ffb5 	bl	80018f2 <lwip_ntohs>
 8005988:	4681      	mov	r9, r0
  dest = ntohs(udphdr->dest);
 800598a:	8878      	ldrh	r0, [r7, #2]
 800598c:	f7fb ffb1 	bl	80018f2 <lwip_ntohs>
  if (dest == DHCP_CLIENT_PORT) {
 8005990:	2844      	cmp	r0, #68	; 0x44
 8005992:	d131      	bne.n	80059f8 <udp_input+0xbc>
    if (src == DHCP_SERVER_PORT) {
 8005994:	f1b9 0f43 	cmp.w	r9, #67	; 0x43
 8005998:	d13b      	bne.n	8005a12 <udp_input+0xd6>
      if ((inp->dhcp != NULL) && (inp->dhcp->pcb != NULL)) {
 800599a:	f8db 3024 	ldr.w	r3, [fp, #36]	; 0x24
 800599e:	2b00      	cmp	r3, #0
 80059a0:	d037      	beq.n	8005a12 <udp_input+0xd6>
 80059a2:	685c      	ldr	r4, [r3, #4]
 80059a4:	2c00      	cmp	r4, #0
 80059a6:	d034      	beq.n	8005a12 <udp_input+0xd6>
        if ((ip_addr_isany(&inp->dhcp->pcb->remote_ip) ||
 80059a8:	6863      	ldr	r3, [r4, #4]
 80059aa:	b11b      	cbz	r3, 80059b4 <udp_input+0x78>
           ip_addr_cmp(&(inp->dhcp->pcb->remote_ip), &current_iphdr_src))) {
 80059ac:	4a42      	ldr	r2, [pc, #264]	; (8005ab8 <udp_input+0x17c>)
        if ((ip_addr_isany(&inp->dhcp->pcb->remote_ip) ||
 80059ae:	6812      	ldr	r2, [r2, #0]
 80059b0:	4293      	cmp	r3, r2
 80059b2:	d12e      	bne.n	8005a12 <udp_input+0xd6>
      if (udphdr->chksum != 0) {
 80059b4:	88fb      	ldrh	r3, [r7, #6]
 80059b6:	b14b      	cbz	r3, 80059cc <udp_input+0x90>
        if (inet_chksum_pseudo(p, ip_current_src_addr(), ip_current_dest_addr(),
 80059b8:	892b      	ldrh	r3, [r5, #8]
 80059ba:	9300      	str	r3, [sp, #0]
 80059bc:	4a3d      	ldr	r2, [pc, #244]	; (8005ab4 <udp_input+0x178>)
 80059be:	493e      	ldr	r1, [pc, #248]	; (8005ab8 <udp_input+0x17c>)
 80059c0:	2311      	movs	r3, #17
 80059c2:	4628      	mov	r0, r5
 80059c4:	f7fc fd00 	bl	80023c8 <inet_chksum_pseudo>
 80059c8:	2800      	cmp	r0, #0
 80059ca:	d1cd      	bne.n	8005968 <udp_input+0x2c>
    if(pbuf_header(p, -UDP_HLEN)) {
 80059cc:	f06f 0107 	mvn.w	r1, #7
 80059d0:	4628      	mov	r0, r5
 80059d2:	f7fd fbef 	bl	80031b4 <pbuf_header>
 80059d6:	2800      	cmp	r0, #0
 80059d8:	d1c6      	bne.n	8005968 <udp_input+0x2c>
    if (pcb != NULL) {
 80059da:	2c00      	cmp	r4, #0
 80059dc:	d051      	beq.n	8005a82 <udp_input+0x146>
      if (pcb->recv != NULL) {
 80059de:	69a6      	ldr	r6, [r4, #24]
 80059e0:	2e00      	cmp	r6, #0
 80059e2:	d0c1      	beq.n	8005968 <udp_input+0x2c>
        pcb->recv(pcb->recv_arg, pcb, p, ip_current_src_addr(), src);
 80059e4:	f8cd 9000 	str.w	r9, [sp]
 80059e8:	4b33      	ldr	r3, [pc, #204]	; (8005ab8 <udp_input+0x17c>)
 80059ea:	69e0      	ldr	r0, [r4, #28]
 80059ec:	462a      	mov	r2, r5
 80059ee:	4621      	mov	r1, r4
 80059f0:	47b0      	blx	r6
}
 80059f2:	b005      	add	sp, #20
 80059f4:	e8bd 8ff0 	ldmia.w	sp!, {r4, r5, r6, r7, r8, r9, sl, fp, pc}
    for (pcb = udp_pcbs; pcb != NULL; pcb = pcb->next) {
 80059f8:	4b30      	ldr	r3, [pc, #192]	; (8005abc <udp_input+0x180>)
           ip_addr_cmp(&(pcb->local_ip), &current_iphdr_dest) ||
 80059fa:	f8d4 c000 	ldr.w	ip, [r4]
    for (pcb = udp_pcbs; pcb != NULL; pcb = pcb->next) {
 80059fe:	681b      	ldr	r3, [r3, #0]
 8005a00:	9303      	str	r3, [sp, #12]
           ip_addr_cmp(&(pcb->remote_ip), &current_iphdr_src))) {
 8005a02:	4b2d      	ldr	r3, [pc, #180]	; (8005ab8 <udp_input+0x17c>)
    for (pcb = udp_pcbs; pcb != NULL; pcb = pcb->next) {
 8005a04:	9c03      	ldr	r4, [sp, #12]
           ip_addr_cmp(&(pcb->remote_ip), &current_iphdr_src))) {
 8005a06:	f8d3 e000 	ldr.w	lr, [r3]
    uncon_pcb = NULL;
 8005a0a:	4633      	mov	r3, r6
    for (pcb = udp_pcbs; pcb != NULL; pcb = pcb->next) {
 8005a0c:	b94c      	cbnz	r4, 8005a22 <udp_input+0xe6>
  if (pcb != NULL || ip_addr_cmp(&inp->ip_addr, &current_iphdr_dest)) {
 8005a0e:	2b00      	cmp	r3, #0
 8005a10:	d135      	bne.n	8005a7e <udp_input+0x142>
 8005a12:	4b28      	ldr	r3, [pc, #160]	; (8005ab4 <udp_input+0x178>)
 8005a14:	f8db 2004 	ldr.w	r2, [fp, #4]
 8005a18:	681b      	ldr	r3, [r3, #0]
 8005a1a:	429a      	cmp	r2, r3
 8005a1c:	d1a4      	bne.n	8005968 <udp_input+0x2c>
 8005a1e:	2400      	movs	r4, #0
 8005a20:	e7c8      	b.n	80059b4 <udp_input+0x78>
      if (pcb->local_port == dest) {
 8005a22:	8a62      	ldrh	r2, [r4, #18]
 8005a24:	4282      	cmp	r2, r0
 8005a26:	d127      	bne.n	8005a78 <udp_input+0x13c>
 8005a28:	6822      	ldr	r2, [r4, #0]
        if (
 8005a2a:	f1b8 0f00 	cmp.w	r8, #0
 8005a2e:	d100      	bne.n	8005a32 <udp_input+0xf6>
           (!broadcast && ip_addr_isany(&pcb->local_ip)) ||
 8005a30:	b162      	cbz	r2, 8005a4c <udp_input+0x110>
 8005a32:	4562      	cmp	r2, ip
 8005a34:	d00a      	beq.n	8005a4c <udp_input+0x110>
           ip_addr_cmp(&(pcb->local_ip), &current_iphdr_dest) ||
 8005a36:	f1b8 0f00 	cmp.w	r8, #0
 8005a3a:	d01d      	beq.n	8005a78 <udp_input+0x13c>
             (ip_addr_isany(&pcb->local_ip) ||
 8005a3c:	b132      	cbz	r2, 8005a4c <udp_input+0x110>
              ip_addr_netcmp(&pcb->local_ip, ip_current_dest_addr(), &inp->netmask)))) {
 8005a3e:	ea82 020c 	eor.w	r2, r2, ip
 8005a42:	4611      	mov	r1, r2
             (ip_addr_isany(&pcb->local_ip) ||
 8005a44:	f8db 2008 	ldr.w	r2, [fp, #8]
 8005a48:	4211      	tst	r1, r2
 8005a4a:	d115      	bne.n	8005a78 <udp_input+0x13c>
          if ((uncon_pcb == NULL) && 
 8005a4c:	b923      	cbnz	r3, 8005a58 <udp_input+0x11c>
 8005a4e:	7c22      	ldrb	r2, [r4, #16]
 8005a50:	f012 0f04 	tst.w	r2, #4
 8005a54:	bf08      	it	eq
 8005a56:	4623      	moveq	r3, r4
      if ((local_match != 0) &&
 8005a58:	8aa2      	ldrh	r2, [r4, #20]
 8005a5a:	454a      	cmp	r2, r9
 8005a5c:	d10c      	bne.n	8005a78 <udp_input+0x13c>
          (ip_addr_isany(&pcb->remote_ip) ||
 8005a5e:	6862      	ldr	r2, [r4, #4]
 8005a60:	b942      	cbnz	r2, 8005a74 <udp_input+0x138>
        if (prev != NULL) {
 8005a62:	2e00      	cmp	r6, #0
 8005a64:	d0a6      	beq.n	80059b4 <udp_input+0x78>
          prev->next = pcb->next;
 8005a66:	68e3      	ldr	r3, [r4, #12]
 8005a68:	60f3      	str	r3, [r6, #12]
          pcb->next = udp_pcbs;
 8005a6a:	9b03      	ldr	r3, [sp, #12]
 8005a6c:	60e3      	str	r3, [r4, #12]
          udp_pcbs = pcb;
 8005a6e:	4b13      	ldr	r3, [pc, #76]	; (8005abc <udp_input+0x180>)
 8005a70:	601c      	str	r4, [r3, #0]
 8005a72:	e79f      	b.n	80059b4 <udp_input+0x78>
          (ip_addr_isany(&pcb->remote_ip) ||
 8005a74:	4572      	cmp	r2, lr
 8005a76:	d0f4      	beq.n	8005a62 <udp_input+0x126>
    for (pcb = udp_pcbs; pcb != NULL; pcb = pcb->next) {
 8005a78:	4626      	mov	r6, r4
 8005a7a:	68e4      	ldr	r4, [r4, #12]
 8005a7c:	e7c6      	b.n	8005a0c <udp_input+0xd0>
 8005a7e:	461c      	mov	r4, r3
 8005a80:	e798      	b.n	80059b4 <udp_input+0x78>
      if (!broadcast &&
 8005a82:	f1b8 0f00 	cmp.w	r8, #0
 8005a86:	f47f af6f 	bne.w	8005968 <udp_input+0x2c>
          !ip_addr_ismulticast(&current_iphdr_dest)) {
 8005a8a:	4b0a      	ldr	r3, [pc, #40]	; (8005ab4 <udp_input+0x178>)
 8005a8c:	681b      	ldr	r3, [r3, #0]
 8005a8e:	f003 03f0 	and.w	r3, r3, #240	; 0xf0
      if (!broadcast &&
 8005a92:	2be0      	cmp	r3, #224	; 0xe0
 8005a94:	f43f af68 	beq.w	8005968 <udp_input+0x2c>
        pbuf_header(p, (IPH_HL(iphdr) * 4) + UDP_HLEN);
 8005a98:	f89a 1000 	ldrb.w	r1, [sl]
 8005a9c:	f001 010f 	and.w	r1, r1, #15
 8005aa0:	3102      	adds	r1, #2
 8005aa2:	0089      	lsls	r1, r1, #2
 8005aa4:	4628      	mov	r0, r5
 8005aa6:	f7fd fb85 	bl	80031b4 <pbuf_header>
        icmp_dest_unreach(p, ICMP_DUR_PORT);
 8005aaa:	2103      	movs	r1, #3
 8005aac:	4628      	mov	r0, r5
 8005aae:	f7fc fc51 	bl	8002354 <icmp_dest_unreach>
 8005ab2:	e759      	b.n	8005968 <udp_input+0x2c>
 8005ab4:	20002634 	.word	0x20002634
 8005ab8:	2000262c 	.word	0x2000262c
 8005abc:	20004e78 	.word	0x20004e78

08005ac0 <udp_bind>:
 *
 * @see udp_disconnect()
 */
err_t
udp_bind(struct udp_pcb *pcb, ip_addr_t *ipaddr, u16_t port)
{
 8005ac0:	b5f0      	push	{r4, r5, r6, r7, lr}
  ip_addr_debug_print(UDP_DEBUG, ipaddr);
  LWIP_DEBUGF(UDP_DEBUG | LWIP_DBG_TRACE, (", port = %"U16_F")\n", port));

  rebind = 0;
  /* Check for double bind and rebind of the same pcb */
  for (ipcb = udp_pcbs; ipcb != NULL; ipcb = ipcb->next) {
 8005ac2:	4e23      	ldr	r6, [pc, #140]	; (8005b50 <udp_bind+0x90>)
 8005ac4:	6837      	ldr	r7, [r6, #0]
  rebind = 0;
 8005ac6:	2300      	movs	r3, #0
  for (ipcb = udp_pcbs; ipcb != NULL; ipcb = ipcb->next) {
 8005ac8:	463c      	mov	r4, r7
 8005aca:	b9d4      	cbnz	r4, 8005b02 <udp_bind+0x42>
        return ERR_USE;
      }
    }
  }

  ip_addr_set(&pcb->local_ip, ipaddr);
 8005acc:	b101      	cbz	r1, 8005ad0 <udp_bind+0x10>
 8005ace:	6809      	ldr	r1, [r1, #0]
 8005ad0:	6001      	str	r1, [r0, #0]

  /* no port specified? */
  if (port == 0) {
 8005ad2:	b982      	cbnz	r2, 8005af6 <udp_bind+0x36>
 8005ad4:	4c1f      	ldr	r4, [pc, #124]	; (8005b54 <udp_bind+0x94>)
 8005ad6:	8821      	ldrh	r1, [r4, #0]
 8005ad8:	f44f 4580 	mov.w	r5, #16384	; 0x4000
  if (udp_port++ == UDP_LOCAL_PORT_RANGE_END) {
 8005adc:	f64f 7cff 	movw	ip, #65535	; 0xffff
 8005ae0:	4561      	cmp	r1, ip
 8005ae2:	bf1a      	itte	ne
 8005ae4:	1c4a      	addne	r2, r1, #1
 8005ae6:	b292      	uxthne	r2, r2
    udp_port = UDP_LOCAL_PORT_RANGE_START;
 8005ae8:	f44f 4240 	moveq.w	r2, #49152	; 0xc000
  for(pcb = udp_pcbs; pcb != NULL; pcb = pcb->next) {
 8005aec:	46be      	mov	lr, r7
 8005aee:	f1be 0f00 	cmp.w	lr, #0
 8005af2:	d11f      	bne.n	8005b34 <udp_bind+0x74>
 8005af4:	8022      	strh	r2, [r4, #0]
      /* no more ports available in local range */
      LWIP_DEBUGF(UDP_DEBUG, ("udp_bind: out of free UDP ports\n"));
      return ERR_USE;
    }
  }
  pcb->local_port = port;
 8005af6:	8242      	strh	r2, [r0, #18]
  snmp_insert_udpidx_tree(pcb);
  /* pcb not active yet? */
  if (rebind == 0) {
 8005af8:	b90b      	cbnz	r3, 8005afe <udp_bind+0x3e>
    /* place the PCB on the active list if not already there */
    pcb->next = udp_pcbs;
 8005afa:	60c7      	str	r7, [r0, #12]
    udp_pcbs = pcb;
 8005afc:	6030      	str	r0, [r6, #0]
  LWIP_DEBUGF(UDP_DEBUG | LWIP_DBG_TRACE | LWIP_DBG_STATE,
              ("udp_bind: bound to %"U16_F".%"U16_F".%"U16_F".%"U16_F", port %"U16_F"\n",
               ip4_addr1_16(&pcb->local_ip), ip4_addr2_16(&pcb->local_ip),
               ip4_addr3_16(&pcb->local_ip), ip4_addr4_16(&pcb->local_ip),
               pcb->local_port));
  return ERR_OK;
 8005afe:	2000      	movs	r0, #0
}
 8005b00:	bdf0      	pop	{r4, r5, r6, r7, pc}
    if (pcb == ipcb) {
 8005b02:	4284      	cmp	r4, r0
 8005b04:	d014      	beq.n	8005b30 <udp_bind+0x70>
      if ((ipcb->local_port == port) &&
 8005b06:	8a65      	ldrh	r5, [r4, #18]
 8005b08:	4295      	cmp	r5, r2
 8005b0a:	d10f      	bne.n	8005b2c <udp_bind+0x6c>
 8005b0c:	b914      	cbnz	r4, 8005b14 <udp_bind+0x54>
        return ERR_USE;
 8005b0e:	f06f 0007 	mvn.w	r0, #7
 8005b12:	bdf0      	pop	{r4, r5, r6, r7, pc}
          (ip_addr_isany(&(ipcb->local_ip)) ||
 8005b14:	f8d4 e000 	ldr.w	lr, [r4]
 8005b18:	f1be 0f00 	cmp.w	lr, #0
 8005b1c:	d0f7      	beq.n	8005b0e <udp_bind+0x4e>
 8005b1e:	2900      	cmp	r1, #0
 8005b20:	d0f5      	beq.n	8005b0e <udp_bind+0x4e>
           ip_addr_isany(ipaddr) ||
 8005b22:	680d      	ldr	r5, [r1, #0]
 8005b24:	2d00      	cmp	r5, #0
 8005b26:	d0f2      	beq.n	8005b0e <udp_bind+0x4e>
 8005b28:	45ae      	cmp	lr, r5
 8005b2a:	d0f0      	beq.n	8005b0e <udp_bind+0x4e>
  for (ipcb = udp_pcbs; ipcb != NULL; ipcb = ipcb->next) {
 8005b2c:	68e4      	ldr	r4, [r4, #12]
 8005b2e:	e7cc      	b.n	8005aca <udp_bind+0xa>
      rebind = 1;
 8005b30:	2301      	movs	r3, #1
 8005b32:	e7fb      	b.n	8005b2c <udp_bind+0x6c>
    if (pcb->local_port == udp_port) {
 8005b34:	f8be 1012 	ldrh.w	r1, [lr, #18]
 8005b38:	4291      	cmp	r1, r2
 8005b3a:	d105      	bne.n	8005b48 <udp_bind+0x88>
 8005b3c:	3d01      	subs	r5, #1
 8005b3e:	b2ad      	uxth	r5, r5
      if (++n > (UDP_LOCAL_PORT_RANGE_END - UDP_LOCAL_PORT_RANGE_START)) {
 8005b40:	2d00      	cmp	r5, #0
 8005b42:	d1cd      	bne.n	8005ae0 <udp_bind+0x20>
 8005b44:	8022      	strh	r2, [r4, #0]
 8005b46:	e7e2      	b.n	8005b0e <udp_bind+0x4e>
  for(pcb = udp_pcbs; pcb != NULL; pcb = pcb->next) {
 8005b48:	f8de e00c 	ldr.w	lr, [lr, #12]
 8005b4c:	e7cf      	b.n	8005aee <udp_bind+0x2e>
 8005b4e:	bf00      	nop
 8005b50:	20004e78 	.word	0x20004e78
 8005b54:	20000012 	.word	0x20000012

08005b58 <udp_sendto_if>:
{
 8005b58:	e92d 47ff 	stmdb	sp!, {r0, r1, r2, r3, r4, r5, r6, r7, r8, r9, sl, lr}
 8005b5c:	4692      	mov	sl, r2
  if (pcb->local_port == 0) {
 8005b5e:	8a42      	ldrh	r2, [r0, #18]
{
 8005b60:	f8dd 9030 	ldr.w	r9, [sp, #48]	; 0x30
 8005b64:	4605      	mov	r5, r0
 8005b66:	460f      	mov	r7, r1
 8005b68:	4698      	mov	r8, r3
  if (pcb->local_port == 0) {
 8005b6a:	2a00      	cmp	r2, #0
 8005b6c:	d03f      	beq.n	8005bee <udp_sendto_if+0x96>
  if (pbuf_header(p, UDP_HLEN)) {
 8005b6e:	2108      	movs	r1, #8
 8005b70:	4638      	mov	r0, r7
 8005b72:	f7fd fb1f 	bl	80031b4 <pbuf_header>
 8005b76:	2800      	cmp	r0, #0
 8005b78:	d143      	bne.n	8005c02 <udp_sendto_if+0xaa>
 8005b7a:	463c      	mov	r4, r7
  udphdr->src = htons(pcb->local_port);
 8005b7c:	8a68      	ldrh	r0, [r5, #18]
  udphdr = (struct udp_hdr *)q->payload;
 8005b7e:	6866      	ldr	r6, [r4, #4]
  udphdr->src = htons(pcb->local_port);
 8005b80:	f7fb feb4 	bl	80018ec <lwip_htons>
 8005b84:	8030      	strh	r0, [r6, #0]
  udphdr->dest = htons(dst_port);
 8005b86:	4640      	mov	r0, r8
 8005b88:	f7fb feb0 	bl	80018ec <lwip_htons>
  udphdr->chksum = 0x0000; 
 8005b8c:	2300      	movs	r3, #0
 8005b8e:	71b3      	strb	r3, [r6, #6]
 8005b90:	71f3      	strb	r3, [r6, #7]
  if (ip_addr_isany(&pcb->local_ip)) {
 8005b92:	682b      	ldr	r3, [r5, #0]
  udphdr->dest = htons(dst_port);
 8005b94:	8070      	strh	r0, [r6, #2]
  if (ip_addr_isany(&pcb->local_ip)) {
 8005b96:	2b00      	cmp	r3, #0
 8005b98:	d141      	bne.n	8005c1e <udp_sendto_if+0xc6>
    src_ip = &(netif->ip_addr);
 8005b9a:	f109 0804 	add.w	r8, r9, #4
    udphdr->len = htons(q->tot_len);
 8005b9e:	8920      	ldrh	r0, [r4, #8]
 8005ba0:	f7fb fea4 	bl	80018ec <lwip_htons>
 8005ba4:	80b0      	strh	r0, [r6, #4]
    if ((pcb->flags & UDP_FLAGS_NOCHKSUM) == 0) {
 8005ba6:	7c2b      	ldrb	r3, [r5, #16]
 8005ba8:	07db      	lsls	r3, r3, #31
 8005baa:	d40d      	bmi.n	8005bc8 <udp_sendto_if+0x70>
        udpchksum = inet_chksum_pseudo(q, src_ip, dst_ip, IP_PROTO_UDP, q->tot_len);
 8005bac:	8923      	ldrh	r3, [r4, #8]
 8005bae:	9300      	str	r3, [sp, #0]
 8005bb0:	4652      	mov	r2, sl
 8005bb2:	2311      	movs	r3, #17
 8005bb4:	4641      	mov	r1, r8
 8005bb6:	4620      	mov	r0, r4
 8005bb8:	f7fc fc06 	bl	80023c8 <inet_chksum_pseudo>
      udphdr->chksum = udpchksum;
 8005bbc:	f64f 73ff 	movw	r3, #65535	; 0xffff
 8005bc0:	2800      	cmp	r0, #0
 8005bc2:	bf08      	it	eq
 8005bc4:	4618      	moveq	r0, r3
 8005bc6:	80f0      	strh	r0, [r6, #6]
    err = ip_output_if(q, src_ip, dst_ip, pcb->ttl, pcb->tos, IP_PROTO_UDP, netif);
 8005bc8:	2211      	movs	r2, #17
 8005bca:	9201      	str	r2, [sp, #4]
 8005bcc:	7a6a      	ldrb	r2, [r5, #9]
 8005bce:	9200      	str	r2, [sp, #0]
 8005bd0:	7aab      	ldrb	r3, [r5, #10]
 8005bd2:	f8cd 9008 	str.w	r9, [sp, #8]
 8005bd6:	4652      	mov	r2, sl
 8005bd8:	4641      	mov	r1, r8
 8005bda:	4620      	mov	r0, r4
 8005bdc:	f7fc fd42 	bl	8002664 <ip_output_if>
  if (q != p) {
 8005be0:	42bc      	cmp	r4, r7
    err = ip_output_if(q, src_ip, dst_ip, pcb->ttl, pcb->tos, IP_PROTO_UDP, netif);
 8005be2:	4606      	mov	r6, r0
  if (q != p) {
 8005be4:	d009      	beq.n	8005bfa <udp_sendto_if+0xa2>
    pbuf_free(q);
 8005be6:	4620      	mov	r0, r4
 8005be8:	f7fd fb0f 	bl	800320a <pbuf_free>
 8005bec:	e005      	b.n	8005bfa <udp_sendto_if+0xa2>
    err = udp_bind(pcb, &pcb->local_ip, pcb->local_port);
 8005bee:	4601      	mov	r1, r0
 8005bf0:	f7ff ff66 	bl	8005ac0 <udp_bind>
    if (err != ERR_OK) {
 8005bf4:	4606      	mov	r6, r0
 8005bf6:	2800      	cmp	r0, #0
 8005bf8:	d0b9      	beq.n	8005b6e <udp_sendto_if+0x16>
}
 8005bfa:	4630      	mov	r0, r6
 8005bfc:	b004      	add	sp, #16
 8005bfe:	e8bd 87f0 	ldmia.w	sp!, {r4, r5, r6, r7, r8, r9, sl, pc}
    q = pbuf_alloc(PBUF_IP, UDP_HLEN, PBUF_RAM);
 8005c02:	2200      	movs	r2, #0
 8005c04:	2108      	movs	r1, #8
 8005c06:	2001      	movs	r0, #1
 8005c08:	f7fd fb26 	bl	8003258 <pbuf_alloc>
    if (q == NULL) {
 8005c0c:	4604      	mov	r4, r0
 8005c0e:	b1a0      	cbz	r0, 8005c3a <udp_sendto_if+0xe2>
    if (p->tot_len != 0) {
 8005c10:	893b      	ldrh	r3, [r7, #8]
 8005c12:	2b00      	cmp	r3, #0
 8005c14:	d0b2      	beq.n	8005b7c <udp_sendto_if+0x24>
      pbuf_chain(q, p);
 8005c16:	4639      	mov	r1, r7
 8005c18:	f7fd fbe2 	bl	80033e0 <pbuf_chain>
 8005c1c:	e7ae      	b.n	8005b7c <udp_sendto_if+0x24>
    if (!ip_addr_cmp(&(pcb->local_ip), &(netif->ip_addr))) {
 8005c1e:	f8d9 2004 	ldr.w	r2, [r9, #4]
 8005c22:	4293      	cmp	r3, r2
 8005c24:	d007      	beq.n	8005c36 <udp_sendto_if+0xde>
      if (q != p) {
 8005c26:	42bc      	cmp	r4, r7
 8005c28:	d002      	beq.n	8005c30 <udp_sendto_if+0xd8>
        pbuf_free(q);
 8005c2a:	4620      	mov	r0, r4
 8005c2c:	f7fd faed 	bl	800320a <pbuf_free>
      return ERR_VAL;
 8005c30:	f06f 0605 	mvn.w	r6, #5
 8005c34:	e7e1      	b.n	8005bfa <udp_sendto_if+0xa2>
  if (ip_addr_isany(&pcb->local_ip)) {
 8005c36:	46a8      	mov	r8, r5
 8005c38:	e7b1      	b.n	8005b9e <udp_sendto_if+0x46>
      return ERR_MEM;
 8005c3a:	f04f 36ff 	mov.w	r6, #4294967295
 8005c3e:	e7dc      	b.n	8005bfa <udp_sendto_if+0xa2>

08005c40 <etharp_free_entry>:
#endif /* ARP_QUEUEING */

/** Clean up ARP table entries */
static void
etharp_free_entry(int i)
{
 8005c40:	b570      	push	{r4, r5, r6, lr}
  /* remove from SNMP ARP index tree */
  snmp_delete_arpidx_tree(arp_table[i].netif, &arp_table[i].ipaddr);
  /* and empty packet queue */
  if (arp_table[i].q != NULL) {
 8005c42:	2614      	movs	r6, #20
 8005c44:	4d09      	ldr	r5, [pc, #36]	; (8005c6c <etharp_free_entry+0x2c>)
 8005c46:	4346      	muls	r6, r0
{
 8005c48:	4604      	mov	r4, r0
  if (arp_table[i].q != NULL) {
 8005c4a:	59a8      	ldr	r0, [r5, r6]
 8005c4c:	b118      	cbz	r0, 8005c56 <etharp_free_entry+0x16>
    /* remove all queued packets */
    LWIP_DEBUGF(ETHARP_DEBUG, ("etharp_free_entry: freeing entry %"U16_F", packet queue %p.\n", (u16_t)i, (void *)(arp_table[i].q)));
    free_etharp_q(arp_table[i].q);
 8005c4e:	f7fd fadc 	bl	800320a <pbuf_free>
    arp_table[i].q = NULL;
 8005c52:	2300      	movs	r3, #0
 8005c54:	51ab      	str	r3, [r5, r6]
  }
  /* recycle entry for re-use */
  arp_table[i].state = ETHARP_STATE_EMPTY;
 8005c56:	2014      	movs	r0, #20
 8005c58:	fb00 5004 	mla	r0, r0, r4, r5
 8005c5c:	2300      	movs	r3, #0
 8005c5e:	7483      	strb	r3, [r0, #18]
#ifdef LWIP_DEBUG
  /* for debugging, clean out the complete entry */
  arp_table[i].ctime = 0;
 8005c60:	74c3      	strb	r3, [r0, #19]
  arp_table[i].netif = NULL;
 8005c62:	6083      	str	r3, [r0, #8]
  ip_addr_set_zero(&arp_table[i].ipaddr);
 8005c64:	6043      	str	r3, [r0, #4]
  arp_table[i].ethaddr = ethzero;
 8005c66:	60c3      	str	r3, [r0, #12]
 8005c68:	8203      	strh	r3, [r0, #16]
 8005c6a:	bd70      	pop	{r4, r5, r6, pc}
 8005c6c:	20002554 	.word	0x20002554

08005c70 <etharp_find_entry>:
 * @return The ARP entry index that matched or is created, ERR_MEM if no
 * entry is found or could be recycled.
 */
static s8_t
etharp_find_entry(ip_addr_t *ipaddr, u8_t flags)
{
 8005c70:	e92d 4ff7 	stmdb	sp!, {r0, r1, r2, r4, r5, r6, r7, r8, r9, sl, fp, lr}
 8005c74:	4b31      	ldr	r3, [pc, #196]	; (8005d3c <etharp_find_entry+0xcc>)
 8005c76:	9101      	str	r1, [sp, #4]
  s8_t old_pending = ARP_TABLE_SIZE, old_stable = ARP_TABLE_SIZE;
  s8_t empty = ARP_TABLE_SIZE;
  u8_t i = 0, age_pending = 0, age_stable = 0;
  /* oldest entry with packets on queue */
  s8_t old_queue = ARP_TABLE_SIZE;
 8005c78:	220a      	movs	r2, #10
{
 8005c7a:	4605      	mov	r5, r0
 8005c7c:	2000      	movs	r0, #0
  /* its age */
  u8_t age_queue = 0;
 8005c7e:	4681      	mov	r9, r0
  u8_t i = 0, age_pending = 0, age_stable = 0;
 8005c80:	4684      	mov	ip, r0
 8005c82:	4683      	mov	fp, r0
  s8_t empty = ARP_TABLE_SIZE;
 8005c84:	4614      	mov	r4, r2
  s8_t old_pending = ARP_TABLE_SIZE, old_stable = ARP_TABLE_SIZE;
 8005c86:	4696      	mov	lr, r2
 8005c88:	4616      	mov	r6, r2
 8005c8a:	4698      	mov	r8, r3
   */

  for (i = 0; i < ARP_TABLE_SIZE; ++i) {
    u8_t state = arp_table[i].state;
    /* no empty entry found yet and now we do find one? */
    if ((empty == ARP_TABLE_SIZE) && (state == ETHARP_STATE_EMPTY)) {
 8005c8c:	2c0a      	cmp	r4, #10
    u8_t state = arp_table[i].state;
 8005c8e:	7c9f      	ldrb	r7, [r3, #18]
    if ((empty == ARP_TABLE_SIZE) && (state == ETHARP_STATE_EMPTY)) {
 8005c90:	d110      	bne.n	8005cb4 <etharp_find_entry+0x44>
 8005c92:	b98f      	cbnz	r7, 8005cb8 <etharp_find_entry+0x48>
      LWIP_DEBUGF(ETHARP_DEBUG, ("etharp_find_entry: found empty entry %"U16_F"\n", (u16_t)i));
      /* remember first empty entry */
      empty = i;
 8005c94:	b244      	sxtb	r4, r0
 8005c96:	3001      	adds	r0, #1
  for (i = 0; i < ARP_TABLE_SIZE; ++i) {
 8005c98:	280a      	cmp	r0, #10
 8005c9a:	f103 0314 	add.w	r3, r3, #20
 8005c9e:	d1f5      	bne.n	8005c8c <etharp_find_entry+0x1c>
    }
  }
  /* { we have no match } => try to create a new entry */
   
  /* don't create new entry, only search? */
  if (((flags & ETHARP_FLAG_FIND_ONLY) != 0) ||
 8005ca0:	9b01      	ldr	r3, [sp, #4]
 8005ca2:	0799      	lsls	r1, r3, #30
 8005ca4:	d403      	bmi.n	8005cae <etharp_find_entry+0x3e>
 8005ca6:	2c0a      	cmp	r4, #10
 8005ca8:	d11b      	bne.n	8005ce2 <etharp_find_entry+0x72>
      /* or no empty entry found and not allowed to recycle? */
      ((empty == ARP_TABLE_SIZE) && ((flags & ETHARP_FLAG_TRY_HARD) == 0))) {
 8005caa:	07db      	lsls	r3, r3, #31
 8005cac:	d428      	bmi.n	8005d00 <etharp_find_entry+0x90>
    LWIP_DEBUGF(ETHARP_DEBUG | LWIP_DBG_TRACE, ("etharp_find_entry: no empty entry found and not allowed to recycle\n"));
    return (s8_t)ERR_MEM;
 8005cae:	f04f 30ff 	mov.w	r0, #4294967295
 8005cb2:	e008      	b.n	8005cc6 <etharp_find_entry+0x56>
    } else if (state != ETHARP_STATE_EMPTY) {
 8005cb4:	2f00      	cmp	r7, #0
 8005cb6:	d0ee      	beq.n	8005c96 <etharp_find_entry+0x26>
      if (ipaddr && ip_addr_cmp(ipaddr, &arp_table[i].ipaddr)) {
 8005cb8:	b39d      	cbz	r5, 8005d22 <etharp_find_entry+0xb2>
 8005cba:	6829      	ldr	r1, [r5, #0]
 8005cbc:	468a      	mov	sl, r1
 8005cbe:	6859      	ldr	r1, [r3, #4]
 8005cc0:	458a      	cmp	sl, r1
 8005cc2:	d12e      	bne.n	8005d22 <etharp_find_entry+0xb2>
        return i;
 8005cc4:	b240      	sxtb	r0, r0
    /* set IP address */
    ip_addr_copy(arp_table[i].ipaddr, *ipaddr);
  }
  arp_table[i].ctime = 0;
  return (err_t)i;
}
 8005cc6:	b003      	add	sp, #12
 8005cc8:	e8bd 8ff0 	ldmia.w	sp!, {r4, r5, r6, r7, r8, r9, sl, fp, pc}
          if (arp_table[i].ctime >= age_pending) {
 8005ccc:	45da      	cmp	sl, fp
 8005cce:	d3e2      	bcc.n	8005c96 <etharp_find_entry+0x26>
            old_pending = i;
 8005cd0:	b246      	sxtb	r6, r0
 8005cd2:	46d3      	mov	fp, sl
 8005cd4:	e7df      	b.n	8005c96 <etharp_find_entry+0x26>
          if (arp_table[i].ctime >= age_stable) {
 8005cd6:	45e2      	cmp	sl, ip
            old_stable = i;
 8005cd8:	bf24      	itt	cs
 8005cda:	fa4f fe80 	sxtbcs.w	lr, r0
 8005cde:	46d4      	movcs	ip, sl
 8005ce0:	e7d9      	b.n	8005c96 <etharp_find_entry+0x26>
    i = empty;
 8005ce2:	b2e4      	uxtb	r4, r4
  if (ipaddr != NULL) {
 8005ce4:	b125      	cbz	r5, 8005cf0 <etharp_find_entry+0x80>
    ip_addr_copy(arp_table[i].ipaddr, *ipaddr);
 8005ce6:	2314      	movs	r3, #20
 8005ce8:	fb03 8304 	mla	r3, r3, r4, r8
 8005cec:	682a      	ldr	r2, [r5, #0]
 8005cee:	605a      	str	r2, [r3, #4]
  arp_table[i].ctime = 0;
 8005cf0:	2314      	movs	r3, #20
 8005cf2:	fb03 8804 	mla	r8, r3, r4, r8
 8005cf6:	2300      	movs	r3, #0
 8005cf8:	f888 3013 	strb.w	r3, [r8, #19]
  return (err_t)i;
 8005cfc:	b260      	sxtb	r0, r4
 8005cfe:	e7e2      	b.n	8005cc6 <etharp_find_entry+0x56>
    if (old_stable < ARP_TABLE_SIZE) {
 8005d00:	f1be 0f0a 	cmp.w	lr, #10
 8005d04:	d005      	beq.n	8005d12 <etharp_find_entry+0xa2>
      i = old_stable;
 8005d06:	fa5f f48e 	uxtb.w	r4, lr
    etharp_free_entry(i);
 8005d0a:	4620      	mov	r0, r4
 8005d0c:	f7ff ff98 	bl	8005c40 <etharp_free_entry>
 8005d10:	e7e8      	b.n	8005ce4 <etharp_find_entry+0x74>
    } else if (old_pending < ARP_TABLE_SIZE) {
 8005d12:	2e0a      	cmp	r6, #10
 8005d14:	d001      	beq.n	8005d1a <etharp_find_entry+0xaa>
      i = old_pending;
 8005d16:	b2f4      	uxtb	r4, r6
 8005d18:	e7f7      	b.n	8005d0a <etharp_find_entry+0x9a>
    } else if (old_queue < ARP_TABLE_SIZE) {
 8005d1a:	2a0a      	cmp	r2, #10
 8005d1c:	d0c7      	beq.n	8005cae <etharp_find_entry+0x3e>
      i = old_queue;
 8005d1e:	b2d4      	uxtb	r4, r2
 8005d20:	e7f3      	b.n	8005d0a <etharp_find_entry+0x9a>
      if (state == ETHARP_STATE_PENDING) {
 8005d22:	2f01      	cmp	r7, #1
 8005d24:	f893 a013 	ldrb.w	sl, [r3, #19]
 8005d28:	d1d5      	bne.n	8005cd6 <etharp_find_entry+0x66>
        if (arp_table[i].q != NULL) {
 8005d2a:	681f      	ldr	r7, [r3, #0]
 8005d2c:	2f00      	cmp	r7, #0
 8005d2e:	d0cd      	beq.n	8005ccc <etharp_find_entry+0x5c>
          if (arp_table[i].ctime >= age_queue) {
 8005d30:	45ca      	cmp	sl, r9
 8005d32:	d3b0      	bcc.n	8005c96 <etharp_find_entry+0x26>
            old_queue = i;
 8005d34:	b242      	sxtb	r2, r0
 8005d36:	46d1      	mov	r9, sl
 8005d38:	e7ad      	b.n	8005c96 <etharp_find_entry+0x26>
 8005d3a:	bf00      	nop
 8005d3c:	20002554 	.word	0x20002554

08005d40 <etharp_send_ip>:
 * @params dst the destination MAC address to be copied into the ethernet header
 * @return ERR_OK if the packet was sent, any other err_t on failure
 */
static err_t
etharp_send_ip(struct netif *netif, struct pbuf *p, struct eth_addr *src, struct eth_addr *dst)
{
 8005d40:	b430      	push	{r4, r5}
  struct eth_hdr *ethhdr = (struct eth_hdr *)p->payload;
 8005d42:	684c      	ldr	r4, [r1, #4]

  LWIP_ASSERT("netif->hwaddr_len must be the same as ETHARP_HWADDR_LEN for etharp!",
              (netif->hwaddr_len == ETHARP_HWADDR_LEN));
  ETHADDR32_COPY(&ethhdr->dest, dst);
 8005d44:	681d      	ldr	r5, [r3, #0]
 8005d46:	6025      	str	r5, [r4, #0]
 8005d48:	889b      	ldrh	r3, [r3, #4]
 8005d4a:	80a3      	strh	r3, [r4, #4]
  ETHADDR16_COPY(&ethhdr->src, src);
 8005d4c:	6813      	ldr	r3, [r2, #0]
 8005d4e:	f8c4 3006 	str.w	r3, [r4, #6]
 8005d52:	8893      	ldrh	r3, [r2, #4]
 8005d54:	8163      	strh	r3, [r4, #10]
  ethhdr->type = PP_HTONS(ETHTYPE_IP);
 8005d56:	2308      	movs	r3, #8
 8005d58:	7323      	strb	r3, [r4, #12]
 8005d5a:	2300      	movs	r3, #0
 8005d5c:	7363      	strb	r3, [r4, #13]
  LWIP_DEBUGF(ETHARP_DEBUG | LWIP_DBG_TRACE, ("etharp_send_ip: sending packet %p\n", (void *)p));
  /* send the packet */
  return netif->linkoutput(netif, p);
 8005d5e:	6983      	ldr	r3, [r0, #24]
}
 8005d60:	bc30      	pop	{r4, r5}
  return netif->linkoutput(netif, p);
 8005d62:	4718      	bx	r3

08005d64 <etharp_tmr>:
{
 8005d64:	b570      	push	{r4, r5, r6, lr}
 8005d66:	4c0e      	ldr	r4, [pc, #56]	; (8005da0 <etharp_tmr+0x3c>)
 8005d68:	2500      	movs	r5, #0
        arp_table[i].state = ETHARP_STATE_STABLE;
 8005d6a:	2602      	movs	r6, #2
    u8_t state = arp_table[i].state;
 8005d6c:	7ca2      	ldrb	r2, [r4, #18]
    if (state != ETHARP_STATE_EMPTY
 8005d6e:	b162      	cbz	r2, 8005d8a <etharp_tmr+0x26>
      arp_table[i].ctime++;
 8005d70:	7ce3      	ldrb	r3, [r4, #19]
 8005d72:	3301      	adds	r3, #1
 8005d74:	b2db      	uxtb	r3, r3
      if ((arp_table[i].ctime >= ARP_MAXAGE) ||
 8005d76:	2bef      	cmp	r3, #239	; 0xef
      arp_table[i].ctime++;
 8005d78:	74e3      	strb	r3, [r4, #19]
      if ((arp_table[i].ctime >= ARP_MAXAGE) ||
 8005d7a:	d803      	bhi.n	8005d84 <etharp_tmr+0x20>
 8005d7c:	2a01      	cmp	r2, #1
 8005d7e:	d10a      	bne.n	8005d96 <etharp_tmr+0x32>
          ((arp_table[i].state == ETHARP_STATE_PENDING)  &&
 8005d80:	2b01      	cmp	r3, #1
 8005d82:	d902      	bls.n	8005d8a <etharp_tmr+0x26>
        etharp_free_entry(i);
 8005d84:	4628      	mov	r0, r5
 8005d86:	f7ff ff5b 	bl	8005c40 <etharp_free_entry>
 8005d8a:	3501      	adds	r5, #1
  for (i = 0; i < ARP_TABLE_SIZE; ++i) {
 8005d8c:	2d0a      	cmp	r5, #10
 8005d8e:	f104 0414 	add.w	r4, r4, #20
 8005d92:	d1eb      	bne.n	8005d6c <etharp_tmr+0x8>
}
 8005d94:	bd70      	pop	{r4, r5, r6, pc}
      else if (arp_table[i].state == ETHARP_STATE_STABLE_REREQUESTING) {
 8005d96:	2a03      	cmp	r2, #3
        arp_table[i].state = ETHARP_STATE_STABLE;
 8005d98:	bf08      	it	eq
 8005d9a:	74a6      	strbeq	r6, [r4, #18]
 8005d9c:	e7f5      	b.n	8005d8a <etharp_tmr+0x26>
 8005d9e:	bf00      	nop
 8005da0:	20002554 	.word	0x20002554

08005da4 <etharp_cleanup_netif>:
 * Remove all ARP table entries of the specified netif.
 *
 * @param netif points to a network interface
 */
void etharp_cleanup_netif(struct netif *netif)
{
 8005da4:	b570      	push	{r4, r5, r6, lr}
 8005da6:	4d08      	ldr	r5, [pc, #32]	; (8005dc8 <etharp_cleanup_netif+0x24>)
 8005da8:	4606      	mov	r6, r0
 8005daa:	2400      	movs	r4, #0
  u8_t i;

  for (i = 0; i < ARP_TABLE_SIZE; ++i) {
    u8_t state = arp_table[i].state;
    if ((state != ETHARP_STATE_EMPTY) && (arp_table[i].netif == netif)) {
 8005dac:	7cab      	ldrb	r3, [r5, #18]
 8005dae:	b12b      	cbz	r3, 8005dbc <etharp_cleanup_netif+0x18>
 8005db0:	68ab      	ldr	r3, [r5, #8]
 8005db2:	42b3      	cmp	r3, r6
 8005db4:	d102      	bne.n	8005dbc <etharp_cleanup_netif+0x18>
      etharp_free_entry(i);
 8005db6:	4620      	mov	r0, r4
 8005db8:	f7ff ff42 	bl	8005c40 <etharp_free_entry>
 8005dbc:	3401      	adds	r4, #1
  for (i = 0; i < ARP_TABLE_SIZE; ++i) {
 8005dbe:	2c0a      	cmp	r4, #10
 8005dc0:	f105 0514 	add.w	r5, r5, #20
 8005dc4:	d1f2      	bne.n	8005dac <etharp_cleanup_netif+0x8>
    }
  }
}
 8005dc6:	bd70      	pop	{r4, r5, r6, pc}
 8005dc8:	20002554 	.word	0x20002554

08005dcc <etharp_request>:
 *         ERR_MEM if the ARP packet couldn't be allocated
 *         any other err_t on failure
 */
err_t
etharp_request(struct netif *netif, ip_addr_t *ipaddr)
{
 8005dcc:	e92d 41f0 	stmdb	sp!, {r4, r5, r6, r7, r8, lr}
  p = pbuf_alloc(PBUF_RAW, SIZEOF_ETHARP_PACKET, PBUF_RAM);
 8005dd0:	2200      	movs	r2, #0
{
 8005dd2:	4606      	mov	r6, r0
 8005dd4:	4688      	mov	r8, r1
  p = pbuf_alloc(PBUF_RAW, SIZEOF_ETHARP_PACKET, PBUF_RAM);
 8005dd6:	2003      	movs	r0, #3
 8005dd8:	212a      	movs	r1, #42	; 0x2a
 8005dda:	f7fd fa3d 	bl	8003258 <pbuf_alloc>
  if (p == NULL) {
 8005dde:	4605      	mov	r5, r0
 8005de0:	b3d0      	cbz	r0, 8005e58 <etharp_request+0x8c>
  ethhdr = (struct eth_hdr *)p->payload;
 8005de2:	6844      	ldr	r4, [r0, #4]
  hdr->opcode = htons(opcode);
 8005de4:	2001      	movs	r0, #1
 8005de6:	f7fb fd81 	bl	80018ec <lwip_htons>
 8005dea:	82a0      	strh	r0, [r4, #20]
  ETHADDR16_COPY(&hdr->shwaddr, hwsrc_addr);
 8005dec:	f8d6 302b 	ldr.w	r3, [r6, #43]	; 0x2b
 8005df0:	f8c4 3016 	str.w	r3, [r4, #22]
 8005df4:	f8b6 302f 	ldrh.w	r3, [r6, #47]	; 0x2f
 8005df8:	8363      	strh	r3, [r4, #26]
  ETHADDR16_COPY(&hdr->dhwaddr, hwdst_addr);
 8005dfa:	4b19      	ldr	r3, [pc, #100]	; (8005e60 <etharp_request+0x94>)
 8005dfc:	681a      	ldr	r2, [r3, #0]
 8005dfe:	889b      	ldrh	r3, [r3, #4]
 8005e00:	84a3      	strh	r3, [r4, #36]	; 0x24
  ETHADDR16_COPY(&ethhdr->dest, ethdst_addr);
 8005e02:	4b18      	ldr	r3, [pc, #96]	; (8005e64 <etharp_request+0x98>)
  ETHADDR16_COPY(&hdr->dhwaddr, hwdst_addr);
 8005e04:	6222      	str	r2, [r4, #32]
  ETHADDR16_COPY(&ethhdr->dest, ethdst_addr);
 8005e06:	681a      	ldr	r2, [r3, #0]
 8005e08:	889b      	ldrh	r3, [r3, #4]
 8005e0a:	6022      	str	r2, [r4, #0]
 8005e0c:	80a3      	strh	r3, [r4, #4]
  ETHADDR16_COPY(&ethhdr->src, ethsrc_addr);
 8005e0e:	f8d6 302b 	ldr.w	r3, [r6, #43]	; 0x2b
 8005e12:	f8c4 3006 	str.w	r3, [r4, #6]
 8005e16:	f8b6 302f 	ldrh.w	r3, [r6, #47]	; 0x2f
 8005e1a:	8163      	strh	r3, [r4, #10]
  IPADDR2_COPY(&hdr->sipaddr, ipsrc_addr);
 8005e1c:	6873      	ldr	r3, [r6, #4]
 8005e1e:	61e3      	str	r3, [r4, #28]
  IPADDR2_COPY(&hdr->dipaddr, ipdst_addr);
 8005e20:	f8d8 3000 	ldr.w	r3, [r8]
 8005e24:	f8c4 3026 	str.w	r3, [r4, #38]	; 0x26
  hdr->hwtype = PP_HTONS(HWTYPE_ETHERNET);
 8005e28:	2300      	movs	r3, #0
 8005e2a:	73a3      	strb	r3, [r4, #14]
  hdr->proto = PP_HTONS(ETHTYPE_IP);
 8005e2c:	7463      	strb	r3, [r4, #17]
  hdr->hwtype = PP_HTONS(HWTYPE_ETHERNET);
 8005e2e:	2201      	movs	r2, #1
  hdr->hwlen = ETHARP_HWADDR_LEN;
 8005e30:	2306      	movs	r3, #6
  hdr->protolen = sizeof(ip_addr_t);
 8005e32:	2104      	movs	r1, #4
 8005e34:	74e1      	strb	r1, [r4, #19]
  hdr->hwtype = PP_HTONS(HWTYPE_ETHERNET);
 8005e36:	73e2      	strb	r2, [r4, #15]
  hdr->hwlen = ETHARP_HWADDR_LEN;
 8005e38:	74a3      	strb	r3, [r4, #18]
  hdr->proto = PP_HTONS(ETHTYPE_IP);
 8005e3a:	2208      	movs	r2, #8
  ethhdr->type = PP_HTONS(ETHTYPE_ARP);
 8005e3c:	7363      	strb	r3, [r4, #13]
  hdr->proto = PP_HTONS(ETHTYPE_IP);
 8005e3e:	7422      	strb	r2, [r4, #16]
  ethhdr->type = PP_HTONS(ETHTYPE_ARP);
 8005e40:	7322      	strb	r2, [r4, #12]
  result = netif->linkoutput(netif, p);
 8005e42:	69b3      	ldr	r3, [r6, #24]
 8005e44:	4629      	mov	r1, r5
 8005e46:	4630      	mov	r0, r6
 8005e48:	4798      	blx	r3
 8005e4a:	4604      	mov	r4, r0
  pbuf_free(p);
 8005e4c:	4628      	mov	r0, r5
 8005e4e:	f7fd f9dc 	bl	800320a <pbuf_free>
  LWIP_DEBUGF(ETHARP_DEBUG | LWIP_DBG_TRACE, ("etharp_request: sending ARP request.\n"));
  return etharp_raw(netif, (struct eth_addr *)netif->hwaddr, &ethbroadcast,
                    (struct eth_addr *)netif->hwaddr, &netif->ip_addr, &ethzero,
                    ipaddr, ARP_REQUEST);
}
 8005e52:	4620      	mov	r0, r4
 8005e54:	e8bd 81f0 	ldmia.w	sp!, {r4, r5, r6, r7, r8, pc}
    return ERR_MEM;
 8005e58:	f04f 34ff 	mov.w	r4, #4294967295
 8005e5c:	e7f9      	b.n	8005e52 <etharp_request+0x86>
 8005e5e:	bf00      	nop
 8005e60:	080074d1 	.word	0x080074d1
 8005e64:	080074cb 	.word	0x080074cb

08005e68 <etharp_output_to_arp_index>:
{
 8005e68:	e92d 41f0 	stmdb	sp!, {r4, r5, r6, r7, r8, lr}
  LWIP_ASSERT("arp_table[arp_idx].state >= ETHARP_STATE_STABLE",
 8005e6c:	4d11      	ldr	r5, [pc, #68]	; (8005eb4 <etharp_output_to_arp_index+0x4c>)
{
 8005e6e:	460f      	mov	r7, r1
  LWIP_ASSERT("arp_table[arp_idx].state >= ETHARP_STATE_STABLE",
 8005e70:	2114      	movs	r1, #20
 8005e72:	fb01 5802 	mla	r8, r1, r2, r5
{
 8005e76:	4614      	mov	r4, r2
  if ((arp_table[arp_idx].state == ETHARP_STATE_STABLE) && 
 8005e78:	f898 2012 	ldrb.w	r2, [r8, #18]
 8005e7c:	2a02      	cmp	r2, #2
{
 8005e7e:	4606      	mov	r6, r0
  if ((arp_table[arp_idx].state == ETHARP_STATE_STABLE) && 
 8005e80:	d10b      	bne.n	8005e9a <etharp_output_to_arp_index+0x32>
 8005e82:	f898 3013 	ldrb.w	r3, [r8, #19]
 8005e86:	2be3      	cmp	r3, #227	; 0xe3
 8005e88:	d907      	bls.n	8005e9a <etharp_output_to_arp_index+0x32>
    if (etharp_request(netif, &arp_table[arp_idx].ipaddr) == ERR_OK) {
 8005e8a:	4641      	mov	r1, r8
 8005e8c:	3104      	adds	r1, #4
 8005e8e:	f7ff ff9d 	bl	8005dcc <etharp_request>
 8005e92:	b910      	cbnz	r0, 8005e9a <etharp_output_to_arp_index+0x32>
      arp_table[arp_idx].state = ETHARP_STATE_STABLE_REREQUESTING;
 8005e94:	2303      	movs	r3, #3
 8005e96:	f888 3012 	strb.w	r3, [r8, #18]
  return etharp_send_ip(netif, q, (struct eth_addr*)(netif->hwaddr),
 8005e9a:	2314      	movs	r3, #20
 8005e9c:	fb03 5304 	mla	r3, r3, r4, r5
 8005ea0:	f106 022b 	add.w	r2, r6, #43	; 0x2b
 8005ea4:	4639      	mov	r1, r7
 8005ea6:	4630      	mov	r0, r6
 8005ea8:	330c      	adds	r3, #12
}
 8005eaa:	e8bd 41f0 	ldmia.w	sp!, {r4, r5, r6, r7, r8, lr}
  return etharp_send_ip(netif, q, (struct eth_addr*)(netif->hwaddr),
 8005eae:	f7ff bf47 	b.w	8005d40 <etharp_send_ip>
 8005eb2:	bf00      	nop
 8005eb4:	20002554 	.word	0x20002554

08005eb8 <etharp_query>:
{
 8005eb8:	e92d 41f0 	stmdb	sp!, {r4, r5, r6, r7, r8, lr}
 8005ebc:	4688      	mov	r8, r1
 8005ebe:	4607      	mov	r7, r0
  if (ip_addr_isbroadcast(ipaddr, netif) ||
 8005ec0:	4601      	mov	r1, r0
 8005ec2:	f8d8 0000 	ldr.w	r0, [r8]
{
 8005ec6:	4615      	mov	r5, r2
  if (ip_addr_isbroadcast(ipaddr, netif) ||
 8005ec8:	f7fc fc5e 	bl	8002788 <ip4_addr_isbroadcast>
 8005ecc:	2800      	cmp	r0, #0
 8005ece:	d153      	bne.n	8005f78 <etharp_query+0xc0>
      ip_addr_ismulticast(ipaddr) ||
 8005ed0:	f8d8 3000 	ldr.w	r3, [r8]
 8005ed4:	f003 02f0 	and.w	r2, r3, #240	; 0xf0
  if (ip_addr_isbroadcast(ipaddr, netif) ||
 8005ed8:	2ae0      	cmp	r2, #224	; 0xe0
 8005eda:	d04d      	beq.n	8005f78 <etharp_query+0xc0>
      ip_addr_isany(ipaddr)) {
 8005edc:	2b00      	cmp	r3, #0
 8005ede:	d04b      	beq.n	8005f78 <etharp_query+0xc0>
  i = etharp_find_entry(ipaddr, ETHARP_FLAG_TRY_HARD);
 8005ee0:	2101      	movs	r1, #1
 8005ee2:	4640      	mov	r0, r8
 8005ee4:	f7ff fec4 	bl	8005c70 <etharp_find_entry>
  if (i < 0) {
 8005ee8:	1e04      	subs	r4, r0, #0
 8005eea:	db49      	blt.n	8005f80 <etharp_query+0xc8>
  if (arp_table[i].state == ETHARP_STATE_EMPTY) {
 8005eec:	4e30      	ldr	r6, [pc, #192]	; (8005fb0 <etharp_query+0xf8>)
 8005eee:	2314      	movs	r3, #20
 8005ef0:	fb03 6204 	mla	r2, r3, r4, r6
 8005ef4:	7c91      	ldrb	r1, [r2, #18]
 8005ef6:	b909      	cbnz	r1, 8005efc <etharp_query+0x44>
    arp_table[i].state = ETHARP_STATE_PENDING;
 8005ef8:	2101      	movs	r1, #1
 8005efa:	7491      	strb	r1, [r2, #18]
  LWIP_ASSERT("arp_table[i].state == PENDING or STABLE",
 8005efc:	fb03 6304 	mla	r3, r3, r4, r6
  if ((arp_table[i].state == ETHARP_STATE_PENDING) || (q == NULL)) {
 8005f00:	7c9b      	ldrb	r3, [r3, #18]
 8005f02:	2b01      	cmp	r3, #1
 8005f04:	d000      	beq.n	8005f08 <etharp_query+0x50>
 8005f06:	b935      	cbnz	r5, 8005f16 <etharp_query+0x5e>
    result = etharp_request(netif, ipaddr);
 8005f08:	4641      	mov	r1, r8
 8005f0a:	4638      	mov	r0, r7
 8005f0c:	f7ff ff5e 	bl	8005dcc <etharp_request>
    if (q == NULL) {
 8005f10:	b91d      	cbnz	r5, 8005f1a <etharp_query+0x62>
 8005f12:	e8bd 81f0 	ldmia.w	sp!, {r4, r5, r6, r7, r8, pc}
  err_t result = ERR_MEM;
 8005f16:	f04f 30ff 	mov.w	r0, #4294967295
  if (arp_table[i].state >= ETHARP_STATE_STABLE) {
 8005f1a:	2314      	movs	r3, #20
 8005f1c:	fb03 6204 	mla	r2, r3, r4, r6
 8005f20:	7c92      	ldrb	r2, [r2, #18]
 8005f22:	2a01      	cmp	r2, #1
 8005f24:	d90d      	bls.n	8005f42 <etharp_query+0x8a>
    ETHARP_SET_HINT(netif, i);
 8005f26:	4a23      	ldr	r2, [pc, #140]	; (8005fb4 <etharp_query+0xfc>)
 8005f28:	7014      	strb	r4, [r2, #0]
    result = etharp_send_ip(netif, q, srcaddr, &(arp_table[i].ethaddr));
 8005f2a:	220c      	movs	r2, #12
 8005f2c:	fb13 2304 	smlabb	r3, r3, r4, r2
 8005f30:	4433      	add	r3, r6
 8005f32:	f107 022b 	add.w	r2, r7, #43	; 0x2b
 8005f36:	4629      	mov	r1, r5
 8005f38:	4638      	mov	r0, r7
}
 8005f3a:	e8bd 41f0 	ldmia.w	sp!, {r4, r5, r6, r7, r8, lr}
    result = etharp_send_ip(netif, q, srcaddr, &(arp_table[i].ethaddr));
 8005f3e:	f7ff beff 	b.w	8005d40 <etharp_send_ip>
  } else if (arp_table[i].state == ETHARP_STATE_PENDING) {
 8005f42:	d133      	bne.n	8005fac <etharp_query+0xf4>
 8005f44:	462b      	mov	r3, r5
    while (p) {
 8005f46:	b993      	cbnz	r3, 8005f6e <etharp_query+0xb6>
      pbuf_ref(p);
 8005f48:	4628      	mov	r0, r5
 8005f4a:	f7fd fa36 	bl	80033ba <pbuf_ref>
    if (p != NULL) {
 8005f4e:	b34d      	cbz	r5, 8005fa4 <etharp_query+0xec>
 8005f50:	462f      	mov	r7, r5
      if (arp_table[i].q != NULL) {
 8005f52:	2314      	movs	r3, #20
 8005f54:	fb03 f204 	mul.w	r2, r3, r4
 8005f58:	461d      	mov	r5, r3
 8005f5a:	58b0      	ldr	r0, [r6, r2]
 8005f5c:	b108      	cbz	r0, 8005f62 <etharp_query+0xaa>
        pbuf_free(arp_table[i].q);
 8005f5e:	f7fd f954 	bl	800320a <pbuf_free>
      arp_table[i].q = p;
 8005f62:	fb05 f304 	mul.w	r3, r5, r4
      result = ERR_OK;
 8005f66:	2000      	movs	r0, #0
      arp_table[i].q = p;
 8005f68:	50f7      	str	r7, [r6, r3]
 8005f6a:	e8bd 81f0 	ldmia.w	sp!, {r4, r5, r6, r7, r8, pc}
      if(p->type != PBUF_ROM) {
 8005f6e:	7b1a      	ldrb	r2, [r3, #12]
 8005f70:	2a01      	cmp	r2, #1
 8005f72:	d108      	bne.n	8005f86 <etharp_query+0xce>
      p = p->next;
 8005f74:	681b      	ldr	r3, [r3, #0]
 8005f76:	e7e6      	b.n	8005f46 <etharp_query+0x8e>
    return ERR_ARG;
 8005f78:	f06f 000d 	mvn.w	r0, #13
 8005f7c:	e8bd 81f0 	ldmia.w	sp!, {r4, r5, r6, r7, r8, pc}
 8005f80:	4620      	mov	r0, r4
 8005f82:	e8bd 81f0 	ldmia.w	sp!, {r4, r5, r6, r7, r8, pc}
      p = pbuf_alloc(PBUF_RAW, p->tot_len, PBUF_RAM);
 8005f86:	2200      	movs	r2, #0
 8005f88:	8919      	ldrh	r1, [r3, #8]
 8005f8a:	2003      	movs	r0, #3
 8005f8c:	f7fd f964 	bl	8003258 <pbuf_alloc>
      if(p != NULL) {
 8005f90:	4607      	mov	r7, r0
 8005f92:	b138      	cbz	r0, 8005fa4 <etharp_query+0xec>
        if (pbuf_copy(p, q) != ERR_OK) {
 8005f94:	4629      	mov	r1, r5
 8005f96:	f7fd fa2b 	bl	80033f0 <pbuf_copy>
 8005f9a:	2800      	cmp	r0, #0
 8005f9c:	d0d9      	beq.n	8005f52 <etharp_query+0x9a>
          pbuf_free(p);
 8005f9e:	4638      	mov	r0, r7
 8005fa0:	f7fd f933 	bl	800320a <pbuf_free>
      result = ERR_MEM;
 8005fa4:	f04f 30ff 	mov.w	r0, #4294967295
 8005fa8:	e8bd 81f0 	ldmia.w	sp!, {r4, r5, r6, r7, r8, pc}
}
 8005fac:	e8bd 81f0 	ldmia.w	sp!, {r4, r5, r6, r7, r8, pc}
 8005fb0:	20002554 	.word	0x20002554
 8005fb4:	2000261c 	.word	0x2000261c

08005fb8 <etharp_output>:
{
 8005fb8:	b5f7      	push	{r0, r1, r2, r4, r5, r6, r7, lr}
 8005fba:	460e      	mov	r6, r1
 8005fbc:	4604      	mov	r4, r0
  if (pbuf_header(q, sizeof(struct eth_hdr)) != 0) {
 8005fbe:	210e      	movs	r1, #14
 8005fc0:	4630      	mov	r0, r6
{
 8005fc2:	4615      	mov	r5, r2
  if (pbuf_header(q, sizeof(struct eth_hdr)) != 0) {
 8005fc4:	f7fd f8f6 	bl	80031b4 <pbuf_header>
 8005fc8:	2800      	cmp	r0, #0
 8005fca:	d160      	bne.n	800608e <etharp_output+0xd6>
  if (ip_addr_isbroadcast(ipaddr, netif)) {
 8005fcc:	4621      	mov	r1, r4
 8005fce:	6828      	ldr	r0, [r5, #0]
 8005fd0:	f7fc fbda 	bl	8002788 <ip4_addr_isbroadcast>
 8005fd4:	2800      	cmp	r0, #0
 8005fd6:	d158      	bne.n	800608a <etharp_output+0xd2>
  } else if (ip_addr_ismulticast(ipaddr)) {
 8005fd8:	682b      	ldr	r3, [r5, #0]
 8005fda:	f003 02f0 	and.w	r2, r3, #240	; 0xf0
 8005fde:	2ae0      	cmp	r2, #224	; 0xe0
 8005fe0:	d11a      	bne.n	8006018 <etharp_output+0x60>
    mcastaddr.addr[0] = LL_MULTICAST_ADDR_0;
 8005fe2:	2301      	movs	r3, #1
 8005fe4:	f88d 3000 	strb.w	r3, [sp]
    mcastaddr.addr[2] = LL_MULTICAST_ADDR_2;
 8005fe8:	235e      	movs	r3, #94	; 0x5e
 8005fea:	f88d 3002 	strb.w	r3, [sp, #2]
    mcastaddr.addr[3] = ip4_addr2(ipaddr) & 0x7f;
 8005fee:	786b      	ldrb	r3, [r5, #1]
    mcastaddr.addr[1] = LL_MULTICAST_ADDR_1;
 8005ff0:	f88d 0001 	strb.w	r0, [sp, #1]
    mcastaddr.addr[3] = ip4_addr2(ipaddr) & 0x7f;
 8005ff4:	f003 037f 	and.w	r3, r3, #127	; 0x7f
 8005ff8:	f88d 3003 	strb.w	r3, [sp, #3]
    mcastaddr.addr[4] = ip4_addr3(ipaddr);
 8005ffc:	78ab      	ldrb	r3, [r5, #2]
 8005ffe:	f88d 3004 	strb.w	r3, [sp, #4]
    mcastaddr.addr[5] = ip4_addr4(ipaddr);
 8006002:	78eb      	ldrb	r3, [r5, #3]
 8006004:	f88d 3005 	strb.w	r3, [sp, #5]
    dest = &mcastaddr;
 8006008:	466b      	mov	r3, sp
  return etharp_send_ip(netif, q, (struct eth_addr*)(netif->hwaddr), dest);
 800600a:	f104 022b 	add.w	r2, r4, #43	; 0x2b
 800600e:	4631      	mov	r1, r6
 8006010:	4620      	mov	r0, r4
 8006012:	f7ff fe95 	bl	8005d40 <etharp_send_ip>
 8006016:	e01f      	b.n	8006058 <etharp_output+0xa0>
    if (!ip_addr_netcmp(ipaddr, &(netif->ip_addr), &(netif->netmask)) &&
 8006018:	6862      	ldr	r2, [r4, #4]
 800601a:	68a1      	ldr	r1, [r4, #8]
 800601c:	405a      	eors	r2, r3
 800601e:	420a      	tst	r2, r1
 8006020:	d008      	beq.n	8006034 <etharp_output+0x7c>
        !ip_addr_islinklocal(ipaddr)) {
 8006022:	b29b      	uxth	r3, r3
    if (!ip_addr_netcmp(ipaddr, &(netif->ip_addr), &(netif->netmask)) &&
 8006024:	f64f 62a9 	movw	r2, #65193	; 0xfea9
 8006028:	4293      	cmp	r3, r2
 800602a:	d003      	beq.n	8006034 <etharp_output+0x7c>
        if (!ip_addr_isany(&netif->gw)) {
 800602c:	68e3      	ldr	r3, [r4, #12]
 800602e:	f104 050c 	add.w	r5, r4, #12
 8006032:	b37b      	cbz	r3, 8006094 <etharp_output+0xdc>
        if ((arp_table[etharp_cached_entry].state >= ETHARP_STATE_STABLE) &&
 8006034:	4b19      	ldr	r3, [pc, #100]	; (800609c <etharp_output+0xe4>)
 8006036:	491a      	ldr	r1, [pc, #104]	; (80060a0 <etharp_output+0xe8>)
 8006038:	781a      	ldrb	r2, [r3, #0]
 800603a:	2014      	movs	r0, #20
 800603c:	fb00 1002 	mla	r0, r0, r2, r1
 8006040:	7c81      	ldrb	r1, [r0, #18]
 8006042:	2901      	cmp	r1, #1
 8006044:	4619      	mov	r1, r3
 8006046:	d909      	bls.n	800605c <etharp_output+0xa4>
 8006048:	682f      	ldr	r7, [r5, #0]
 800604a:	6843      	ldr	r3, [r0, #4]
 800604c:	429f      	cmp	r7, r3
 800604e:	d105      	bne.n	800605c <etharp_output+0xa4>
        return etharp_output_to_arp_index(netif, q, i);
 8006050:	4631      	mov	r1, r6
 8006052:	4620      	mov	r0, r4
 8006054:	f7ff ff08 	bl	8005e68 <etharp_output_to_arp_index>
}
 8006058:	b003      	add	sp, #12
 800605a:	bdf0      	pop	{r4, r5, r6, r7, pc}
 800605c:	4b10      	ldr	r3, [pc, #64]	; (80060a0 <etharp_output+0xe8>)
{
 800605e:	2200      	movs	r2, #0
      if ((arp_table[i].state >= ETHARP_STATE_STABLE) &&
 8006060:	7c98      	ldrb	r0, [r3, #18]
 8006062:	2801      	cmp	r0, #1
 8006064:	d906      	bls.n	8006074 <etharp_output+0xbc>
 8006066:	682f      	ldr	r7, [r5, #0]
 8006068:	6858      	ldr	r0, [r3, #4]
 800606a:	4287      	cmp	r7, r0
 800606c:	d102      	bne.n	8006074 <etharp_output+0xbc>
        ETHARP_SET_HINT(netif, i);
 800606e:	b2d2      	uxtb	r2, r2
 8006070:	700a      	strb	r2, [r1, #0]
 8006072:	e7ed      	b.n	8006050 <etharp_output+0x98>
 8006074:	3201      	adds	r2, #1
    for (i = 0; i < ARP_TABLE_SIZE; i++) {
 8006076:	2a0a      	cmp	r2, #10
 8006078:	f103 0314 	add.w	r3, r3, #20
 800607c:	d1f0      	bne.n	8006060 <etharp_output+0xa8>
    return etharp_query(netif, dst_addr, q);
 800607e:	4632      	mov	r2, r6
 8006080:	4629      	mov	r1, r5
 8006082:	4620      	mov	r0, r4
 8006084:	f7ff ff18 	bl	8005eb8 <etharp_query>
 8006088:	e7e6      	b.n	8006058 <etharp_output+0xa0>
    dest = (struct eth_addr *)&ethbroadcast;
 800608a:	4b06      	ldr	r3, [pc, #24]	; (80060a4 <etharp_output+0xec>)
 800608c:	e7bd      	b.n	800600a <etharp_output+0x52>
    return ERR_BUF;
 800608e:	f06f 0001 	mvn.w	r0, #1
 8006092:	e7e1      	b.n	8006058 <etharp_output+0xa0>
          return ERR_RTE;
 8006094:	f06f 0003 	mvn.w	r0, #3
 8006098:	e7de      	b.n	8006058 <etharp_output+0xa0>
 800609a:	bf00      	nop
 800609c:	2000261c 	.word	0x2000261c
 80060a0:	20002554 	.word	0x20002554
 80060a4:	080074cb 	.word	0x080074cb

080060a8 <ethernet_input>:
 * @param p the recevied packet, p->payload pointing to the ethernet header
 * @param netif the network interface on which the packet was received
 */
err_t
ethernet_input(struct pbuf *p, struct netif *netif)
{
 80060a8:	e92d 4ff7 	stmdb	sp!, {r0, r1, r2, r4, r5, r6, r7, r8, r9, sl, fp, lr}
  u16_t type;
#if LWIP_ARP || ETHARP_SUPPORT_VLAN
  s16_t ip_hdr_offset = SIZEOF_ETH_HDR;
#endif /* LWIP_ARP || ETHARP_SUPPORT_VLAN */

  if (p->len <= SIZEOF_ETH_HDR) {
 80060ac:	8947      	ldrh	r7, [r0, #10]
 80060ae:	2f0e      	cmp	r7, #14
{
 80060b0:	4605      	mov	r5, r0
 80060b2:	460e      	mov	r6, r1
  if (p->len <= SIZEOF_ETH_HDR) {
 80060b4:	d916      	bls.n	80060e4 <ethernet_input+0x3c>
    ETHARP_STATS_INC(etharp.drop);
    goto free_and_return;
  }

  /* points to packet payload, which starts with an Ethernet header */
  ethhdr = (struct eth_hdr *)p->payload;
 80060b6:	6844      	ldr	r4, [r0, #4]

#if LWIP_ARP_FILTER_NETIF
  netif = LWIP_ARP_FILTER_NETIF_FN(p, netif, htons(type));
#endif /* LWIP_ARP_FILTER_NETIF*/

  if (ethhdr->dest.addr[0] & 1) {
 80060b8:	7823      	ldrb	r3, [r4, #0]
  type = ethhdr->type;
 80060ba:	f8b4 800c 	ldrh.w	r8, [r4, #12]
  if (ethhdr->dest.addr[0] & 1) {
 80060be:	07d8      	lsls	r0, r3, #31
 80060c0:	d50a      	bpl.n	80060d8 <ethernet_input+0x30>
    /* this might be a multicast or broadcast packet */
    if (ethhdr->dest.addr[0] == LL_MULTICAST_ADDR_0) {
 80060c2:	2b01      	cmp	r3, #1
 80060c4:	d112      	bne.n	80060ec <ethernet_input+0x44>
      if ((ethhdr->dest.addr[1] == LL_MULTICAST_ADDR_1) &&
 80060c6:	7863      	ldrb	r3, [r4, #1]
 80060c8:	b933      	cbnz	r3, 80060d8 <ethernet_input+0x30>
 80060ca:	78a3      	ldrb	r3, [r4, #2]
 80060cc:	2b5e      	cmp	r3, #94	; 0x5e
 80060ce:	d103      	bne.n	80060d8 <ethernet_input+0x30>
          (ethhdr->dest.addr[2] == LL_MULTICAST_ADDR_2)) {
        /* mark the pbuf as link-layer multicast */
        p->flags |= PBUF_FLAG_LLMCAST;
 80060d0:	7b6b      	ldrb	r3, [r5, #13]
 80060d2:	f043 0310 	orr.w	r3, r3, #16
      }
    } else if (eth_addr_cmp(&ethhdr->dest, &ethbroadcast)) {
      /* mark the pbuf as link-layer broadcast */
      p->flags |= PBUF_FLAG_LLBCAST;
 80060d6:	736b      	strb	r3, [r5, #13]
    }
  }

  switch (type) {
 80060d8:	f1b8 0f08 	cmp.w	r8, #8
 80060dc:	d011      	beq.n	8006102 <ethernet_input+0x5a>
 80060de:	f5b8 6fc1 	cmp.w	r8, #1544	; 0x608
 80060e2:	d021      	beq.n	8006128 <ethernet_input+0x80>
  /* This means the pbuf is freed or consumed,
     so the caller doesn't have to free it again */
  return ERR_OK;

free_and_return:
  pbuf_free(p);
 80060e4:	4628      	mov	r0, r5
 80060e6:	f7fd f890 	bl	800320a <pbuf_free>
  return ERR_OK;
 80060ea:	e019      	b.n	8006120 <ethernet_input+0x78>
    } else if (eth_addr_cmp(&ethhdr->dest, &ethbroadcast)) {
 80060ec:	2206      	movs	r2, #6
 80060ee:	495c      	ldr	r1, [pc, #368]	; (8006260 <ethernet_input+0x1b8>)
 80060f0:	4620      	mov	r0, r4
 80060f2:	f001 f991 	bl	8007418 <memcmp>
 80060f6:	2800      	cmp	r0, #0
 80060f8:	d1ee      	bne.n	80060d8 <ethernet_input+0x30>
      p->flags |= PBUF_FLAG_LLBCAST;
 80060fa:	7b6b      	ldrb	r3, [r5, #13]
 80060fc:	f043 0308 	orr.w	r3, r3, #8
 8006100:	e7e9      	b.n	80060d6 <ethernet_input+0x2e>
      if (!(netif->flags & NETIF_FLAG_ETHARP)) {
 8006102:	f896 3031 	ldrb.w	r3, [r6, #49]	; 0x31
 8006106:	0699      	lsls	r1, r3, #26
 8006108:	d5ec      	bpl.n	80060e4 <ethernet_input+0x3c>
      if(pbuf_header(p, -ip_hdr_offset)) {
 800610a:	f06f 010d 	mvn.w	r1, #13
 800610e:	4628      	mov	r0, r5
 8006110:	f7fd f850 	bl	80031b4 <pbuf_header>
 8006114:	2800      	cmp	r0, #0
 8006116:	d1e5      	bne.n	80060e4 <ethernet_input+0x3c>
        ip_input(p, netif);
 8006118:	4631      	mov	r1, r6
 800611a:	4628      	mov	r0, r5
 800611c:	f7fc f9de 	bl	80024dc <ip_input>
}
 8006120:	2000      	movs	r0, #0
 8006122:	b003      	add	sp, #12
 8006124:	e8bd 8ff0 	ldmia.w	sp!, {r4, r5, r6, r7, r8, r9, sl, fp, pc}
      if (!(netif->flags & NETIF_FLAG_ETHARP)) {
 8006128:	f896 3031 	ldrb.w	r3, [r6, #49]	; 0x31
 800612c:	069a      	lsls	r2, r3, #26
 800612e:	d5d9      	bpl.n	80060e4 <ethernet_input+0x3c>
  if (p->len < SIZEOF_ETHARP_PACKET) {
 8006130:	2f29      	cmp	r7, #41	; 0x29
 8006132:	d9d7      	bls.n	80060e4 <ethernet_input+0x3c>
  if ((hdr->hwtype != PP_HTONS(HWTYPE_ETHERNET)) ||
 8006134:	89e3      	ldrh	r3, [r4, #14]
 8006136:	f5b3 7f80 	cmp.w	r3, #256	; 0x100
 800613a:	d1d3      	bne.n	80060e4 <ethernet_input+0x3c>
 800613c:	7ca3      	ldrb	r3, [r4, #18]
 800613e:	2b06      	cmp	r3, #6
 8006140:	d1d0      	bne.n	80060e4 <ethernet_input+0x3c>
      (hdr->hwlen != ETHARP_HWADDR_LEN) ||
 8006142:	7ce3      	ldrb	r3, [r4, #19]
 8006144:	2b04      	cmp	r3, #4
 8006146:	d1cd      	bne.n	80060e4 <ethernet_input+0x3c>
      (hdr->protolen != sizeof(ip_addr_t)) ||
 8006148:	8a23      	ldrh	r3, [r4, #16]
 800614a:	2b08      	cmp	r3, #8
 800614c:	d1ca      	bne.n	80060e4 <ethernet_input+0x3c>
  if (ip_addr_isany(&netif->ip_addr)) {
 800614e:	6873      	ldr	r3, [r6, #4]
  IPADDR2_COPY(&sipaddr, &hdr->sipaddr);
 8006150:	69e0      	ldr	r0, [r4, #28]
 8006152:	9001      	str	r0, [sp, #4]
  IPADDR2_COPY(&dipaddr, &hdr->dipaddr);
 8006154:	f8d4 8026 	ldr.w	r8, [r4, #38]	; 0x26
  if (ip_addr_isany(&netif->ip_addr)) {
 8006158:	2b00      	cmp	r3, #0
 800615a:	d057      	beq.n	800620c <ethernet_input+0x164>
    for_us = (u8_t)ip_addr_cmp(&dipaddr, &(netif->ip_addr));
 800615c:	eba8 0303 	sub.w	r3, r8, r3
 8006160:	f1d3 0800 	rsbs	r8, r3, #0
 8006164:	eb48 0803 	adc.w	r8, r8, r3
  etharp_update_arp_entry(netif, &sipaddr, &(hdr->shwaddr),
 8006168:	f1b8 0f00 	cmp.w	r8, #0
 800616c:	f104 0716 	add.w	r7, r4, #22
 8006170:	bf14      	ite	ne
 8006172:	f04f 0a01 	movne.w	sl, #1
 8006176:	f04f 0a02 	moveq.w	sl, #2
      etharp_arp_input(netif, (struct eth_addr*)(netif->hwaddr), p);
 800617a:	f106 092b 	add.w	r9, r6, #43	; 0x2b
  if (ip_addr_isany(ipaddr) ||
 800617e:	b3c0      	cbz	r0, 80061f2 <ethernet_input+0x14a>
      ip_addr_isbroadcast(ipaddr, netif) ||
 8006180:	4631      	mov	r1, r6
 8006182:	f7fc fb01 	bl	8002788 <ip4_addr_isbroadcast>
  if (ip_addr_isany(ipaddr) ||
 8006186:	4683      	mov	fp, r0
 8006188:	bb98      	cbnz	r0, 80061f2 <ethernet_input+0x14a>
      ip_addr_ismulticast(ipaddr)) {
 800618a:	9b01      	ldr	r3, [sp, #4]
 800618c:	f003 03f0 	and.w	r3, r3, #240	; 0xf0
      ip_addr_isbroadcast(ipaddr, netif) ||
 8006190:	2be0      	cmp	r3, #224	; 0xe0
 8006192:	d02e      	beq.n	80061f2 <ethernet_input+0x14a>
  i = etharp_find_entry(ipaddr, flags);
 8006194:	4651      	mov	r1, sl
 8006196:	a801      	add	r0, sp, #4
 8006198:	f7ff fd6a 	bl	8005c70 <etharp_find_entry>
  if (i < 0) {
 800619c:	2800      	cmp	r0, #0
 800619e:	db28      	blt.n	80061f2 <ethernet_input+0x14a>
    arp_table[i].state = ETHARP_STATE_STABLE;
 80061a0:	4b30      	ldr	r3, [pc, #192]	; (8006264 <ethernet_input+0x1bc>)
 80061a2:	2214      	movs	r2, #20
 80061a4:	fb02 f100 	mul.w	r1, r2, r0
 80061a8:	eb03 0e01 	add.w	lr, r3, r1
 80061ac:	f04f 0c02 	mov.w	ip, #2
 80061b0:	f88e c012 	strb.w	ip, [lr, #18]
  ETHADDR32_COPY(&arp_table[i].ethaddr, ethaddr);
 80061b4:	f04f 0c0c 	mov.w	ip, #12
  arp_table[i].netif = netif;
 80061b8:	f8ce 6008 	str.w	r6, [lr, #8]
  ETHADDR32_COPY(&arp_table[i].ethaddr, ethaddr);
 80061bc:	fb12 c200 	smlabb	r2, r2, r0, ip
 80061c0:	6838      	ldr	r0, [r7, #0]
 80061c2:	5098      	str	r0, [r3, r2]
 80061c4:	eb03 0c02 	add.w	ip, r3, r2
 80061c8:	88ba      	ldrh	r2, [r7, #4]
 80061ca:	f8ac 2004 	strh.w	r2, [ip, #4]
  if (arp_table[i].q != NULL) {
 80061ce:	f853 a001 	ldr.w	sl, [r3, r1]
  arp_table[i].ctime = 0;
 80061d2:	f88e b013 	strb.w	fp, [lr, #19]
  if (arp_table[i].q != NULL) {
 80061d6:	f1ba 0f00 	cmp.w	sl, #0
 80061da:	d00a      	beq.n	80061f2 <ethernet_input+0x14a>
    arp_table[i].q = NULL;
 80061dc:	f843 b001 	str.w	fp, [r3, r1]
    etharp_send_ip(netif, p, (struct eth_addr*)(netif->hwaddr), ethaddr);
 80061e0:	464a      	mov	r2, r9
 80061e2:	463b      	mov	r3, r7
 80061e4:	4651      	mov	r1, sl
 80061e6:	4630      	mov	r0, r6
 80061e8:	f7ff fdaa 	bl	8005d40 <etharp_send_ip>
    pbuf_free(p);
 80061ec:	4650      	mov	r0, sl
 80061ee:	f7fd f80c 	bl	800320a <pbuf_free>
  switch (hdr->opcode) {
 80061f2:	8aa3      	ldrh	r3, [r4, #20]
 80061f4:	f5b3 7f80 	cmp.w	r3, #256	; 0x100
 80061f8:	d00a      	beq.n	8006210 <ethernet_input+0x168>
 80061fa:	f5b3 7f00 	cmp.w	r3, #512	; 0x200
 80061fe:	f47f af71 	bne.w	80060e4 <ethernet_input+0x3c>
    dhcp_arp_reply(netif, &sipaddr);
 8006202:	a901      	add	r1, sp, #4
 8006204:	4630      	mov	r0, r6
 8006206:	f7fb fe79 	bl	8001efc <dhcp_arp_reply>
 800620a:	e76b      	b.n	80060e4 <ethernet_input+0x3c>
  if (ip_addr_isany(&netif->ip_addr)) {
 800620c:	4698      	mov	r8, r3
 800620e:	e7ab      	b.n	8006168 <ethernet_input+0xc0>
    if (for_us) {
 8006210:	f1b8 0f00 	cmp.w	r8, #0
 8006214:	f43f af66 	beq.w	80060e4 <ethernet_input+0x3c>
      hdr->opcode = htons(ARP_REPLY);
 8006218:	2002      	movs	r0, #2
 800621a:	f7fb fb67 	bl	80018ec <lwip_htons>
      IPADDR2_COPY(&hdr->dipaddr, &hdr->sipaddr);
 800621e:	69e3      	ldr	r3, [r4, #28]
      hdr->opcode = htons(ARP_REPLY);
 8006220:	82a0      	strh	r0, [r4, #20]
      IPADDR2_COPY(&hdr->dipaddr, &hdr->sipaddr);
 8006222:	f8c4 3026 	str.w	r3, [r4, #38]	; 0x26
      IPADDR2_COPY(&hdr->sipaddr, &netif->ip_addr);
 8006226:	6873      	ldr	r3, [r6, #4]
 8006228:	61e3      	str	r3, [r4, #28]
      ETHADDR16_COPY(&hdr->dhwaddr, &hdr->shwaddr);
 800622a:	683b      	ldr	r3, [r7, #0]
 800622c:	6223      	str	r3, [r4, #32]
 800622e:	88bb      	ldrh	r3, [r7, #4]
 8006230:	84a3      	strh	r3, [r4, #36]	; 0x24
      ETHADDR16_COPY(&ethhdr->dest, &hdr->shwaddr);
 8006232:	683b      	ldr	r3, [r7, #0]
 8006234:	6023      	str	r3, [r4, #0]
 8006236:	88bb      	ldrh	r3, [r7, #4]
 8006238:	80a3      	strh	r3, [r4, #4]
      ETHADDR16_COPY(&hdr->shwaddr, ethaddr);
 800623a:	f8d9 3000 	ldr.w	r3, [r9]
 800623e:	f8c4 3016 	str.w	r3, [r4, #22]
 8006242:	f8b9 3004 	ldrh.w	r3, [r9, #4]
 8006246:	80bb      	strh	r3, [r7, #4]
      ETHADDR16_COPY(&ethhdr->src, ethaddr);
 8006248:	f8d9 3000 	ldr.w	r3, [r9]
 800624c:	f8c4 3006 	str.w	r3, [r4, #6]
 8006250:	f8b9 3004 	ldrh.w	r3, [r9, #4]
 8006254:	8163      	strh	r3, [r4, #10]
      netif->linkoutput(netif, p);
 8006256:	69b3      	ldr	r3, [r6, #24]
 8006258:	4629      	mov	r1, r5
 800625a:	4630      	mov	r0, r6
 800625c:	4798      	blx	r3
 800625e:	e741      	b.n	80060e4 <ethernet_input+0x3c>
 8006260:	080074cb 	.word	0x080074cb
 8006264:	20002554 	.word	0x20002554

08006268 <User_notification>:
  * @param  netif: the network interface
  * @retval None
  */
void User_notification(struct netif *netif)
{
  if (netif_is_up(netif))
 8006268:	f890 3031 	ldrb.w	r3, [r0, #49]	; 0x31
  }
  else
  {
    /* Turn On LED 4 (red) to indicate ETH and LwIP init error */
    //(LED4);
    HAL_GPIO_WritePin(GPIOD,GPIO_PIN_14,GPIO_PIN_SET);
 800626c:	4805      	ldr	r0, [pc, #20]	; (8006284 <User_notification+0x1c>)
  if (netif_is_up(netif))
 800626e:	07db      	lsls	r3, r3, #31
    HAL_GPIO_WritePin(GPIOD,GPIO_PIN_15,GPIO_PIN_SET);
 8006270:	f04f 0201 	mov.w	r2, #1
 8006274:	bf4c      	ite	mi
 8006276:	f44f 4100 	movmi.w	r1, #32768	; 0x8000
    HAL_GPIO_WritePin(GPIOD,GPIO_PIN_14,GPIO_PIN_SET);
 800627a:	f44f 4180 	movpl.w	r1, #16384	; 0x4000
 800627e:	f7fa baed 	b.w	800085c <HAL_GPIO_WritePin>
 8006282:	bf00      	nop
 8006284:	40020c00 	.word	0x40020c00

08006288 <ethernetif_notify_conn_changed>:
  * @brief  This function notify user about link status changement.
  * @param  netif: the network interface
  * @retval None
  */
void ethernetif_notify_conn_changed(struct netif *netif)
{
 8006288:	b530      	push	{r4, r5, lr}
  struct ip_addr ipaddr;
  struct ip_addr netmask;
  struct ip_addr gw;

  if(netif_is_link_up(netif))
 800628a:	f890 2031 	ldrb.w	r2, [r0, #49]	; 0x31
 800628e:	f012 0410 	ands.w	r4, r2, #16
{
 8006292:	b085      	sub	sp, #20
 8006294:	4605      	mov	r5, r0
  if(netif_is_link_up(netif))
 8006296:	d01d      	beq.n	80062d4 <ethernetif_notify_conn_changed+0x4c>
  {
    IP4_ADDR(&ipaddr, IP_ADDR0, IP_ADDR1, IP_ADDR2, IP_ADDR3);
 8006298:	4b14      	ldr	r3, [pc, #80]	; (80062ec <ethernetif_notify_conn_changed+0x64>)
 800629a:	9301      	str	r3, [sp, #4]
    IP4_ADDR(&netmask, NETMASK_ADDR0, NETMASK_ADDR1 , NETMASK_ADDR2, NETMASK_ADDR3);
 800629c:	f64f 73ff 	movw	r3, #65535	; 0xffff
 80062a0:	9302      	str	r3, [sp, #8]
    IP4_ADDR(&gw, GW_ADDR0, GW_ADDR1, GW_ADDR2, GW_ADDR3);
 80062a2:	ab04      	add	r3, sp, #16
 80062a4:	2400      	movs	r4, #0
 80062a6:	f843 4d04 	str.w	r4, [r3, #-4]!

    netif_set_addr(netif, &ipaddr , &netmask, &gw);
 80062aa:	aa02      	add	r2, sp, #8
 80062ac:	a901      	add	r1, sp, #4
 80062ae:	f7fc fec7 	bl	8003040 <netif_set_addr>

    /* When the netif is fully configured this function must be called.*/
    netif_set_up(netif);
 80062b2:	4628      	mov	r0, r5
 80062b4:	f7fc ff08 	bl	80030c8 <netif_set_up>

    //BSP_LED_Off(LED4);
    HAL_GPIO_WritePin(GPIOD,GPIO_PIN_14,GPIO_PIN_RESET);
 80062b8:	4622      	mov	r2, r4
 80062ba:	f44f 4180 	mov.w	r1, #16384	; 0x4000
 80062be:	480c      	ldr	r0, [pc, #48]	; (80062f0 <ethernetif_notify_conn_changed+0x68>)
 80062c0:	f7fa facc 	bl	800085c <HAL_GPIO_WritePin>

    //BSP_LED_On(LED3);
    HAL_GPIO_WritePin(GPIOA,GPIO_PIN_15,GPIO_PIN_SET);
 80062c4:	2201      	movs	r2, #1
 80062c6:	f44f 4100 	mov.w	r1, #32768	; 0x8000
    /*  When the netif link is down this function must be called.*/
    netif_set_down(netif);

    //BSP_LED_Off(LED3);
    HAL_GPIO_WritePin(GPIOA,GPIO_PIN_15,GPIO_PIN_RESET);
    HAL_GPIO_WritePin(GPIOA,GPIO_PIN_14,GPIO_PIN_SET);
 80062ca:	480a      	ldr	r0, [pc, #40]	; (80062f4 <ethernetif_notify_conn_changed+0x6c>)
 80062cc:	f7fa fac6 	bl	800085c <HAL_GPIO_WritePin>

  //  BSP_LED_On(LED4);
  }
}
 80062d0:	b005      	add	sp, #20
 80062d2:	bd30      	pop	{r4, r5, pc}
    netif_set_down(netif);
 80062d4:	f7fc ff09 	bl	80030ea <netif_set_down>
    HAL_GPIO_WritePin(GPIOA,GPIO_PIN_15,GPIO_PIN_RESET);
 80062d8:	4622      	mov	r2, r4
 80062da:	f44f 4100 	mov.w	r1, #32768	; 0x8000
 80062de:	4805      	ldr	r0, [pc, #20]	; (80062f4 <ethernetif_notify_conn_changed+0x6c>)
 80062e0:	f7fa fabc 	bl	800085c <HAL_GPIO_WritePin>
    HAL_GPIO_WritePin(GPIOA,GPIO_PIN_14,GPIO_PIN_SET);
 80062e4:	2201      	movs	r2, #1
 80062e6:	f44f 4180 	mov.w	r1, #16384	; 0x4000
 80062ea:	e7ee      	b.n	80062ca <ethernetif_notify_conn_changed+0x42>
 80062ec:	0cc1fea9 	.word	0x0cc1fea9
 80062f0:	40020c00 	.word	0x40020c00
 80062f4:	40020000 	.word	0x40020000

080062f8 <enc_wrgreg2>:
 * Assumptions:
 *
 ****************************************************************************/

static void enc_wrgreg2(uint8_t cmd, uint8_t wrdata)
{
 80062f8:	b507      	push	{r0, r1, r2, lr}

    /* Send the write command and data.  The sequence requires 16-clocks:
     * 8 to clock out the cmd + 8 to clock out the data.
     */

    ENC_SPI_SendBuf(cmdpdata, NULL, 2);
 80062fa:	2202      	movs	r2, #2
    cmdpdata[0] = cmd;
 80062fc:	f88d 0004 	strb.w	r0, [sp, #4]
    cmdpdata[1] = wrdata;
 8006300:	f88d 1005 	strb.w	r1, [sp, #5]
    ENC_SPI_SendBuf(cmdpdata, NULL, 2);
 8006304:	a801      	add	r0, sp, #4
 8006306:	2100      	movs	r1, #0
 8006308:	f000 fc6e 	bl	8006be8 <ENC_SPI_SendBuf>
}
 800630c:	b003      	add	sp, #12
 800630e:	f85d fb04 	ldr.w	pc, [sp], #4

08006312 <enc_rdgreg2>:
{
 8006312:	b507      	push	{r0, r1, r2, lr}
    cmdpdata[0] = cmd;
 8006314:	a902      	add	r1, sp, #8
  ENC_SPI_SendBuf(cmdpdata, cmdpdata, 2);
 8006316:	2202      	movs	r2, #2
    cmdpdata[0] = cmd;
 8006318:	f801 0d04 	strb.w	r0, [r1, #-4]!
  ENC_SPI_SendBuf(cmdpdata, cmdpdata, 2);
 800631c:	4608      	mov	r0, r1
 800631e:	f000 fc63 	bl	8006be8 <ENC_SPI_SendBuf>
}
 8006322:	f89d 0005 	ldrb.w	r0, [sp, #5]
 8006326:	b003      	add	sp, #12
 8006328:	f85d fb04 	ldr.w	pc, [sp], #4

0800632c <enc_rdbuffer>:
 *   Read pointer is set to the correct address
 *
 ****************************************************************************/

static void enc_rdbuffer(void *buffer, int16_t buflen)
{
 800632c:	b538      	push	{r3, r4, r5, lr}
 800632e:	4604      	mov	r4, r0
  /* Select ENC28J60 chip */

  ENC_SPI_Select(true);
 8006330:	2001      	movs	r0, #1
{
 8006332:	460d      	mov	r5, r1
  ENC_SPI_Select(true);
 8006334:	f000 fc96 	bl	8006c64 <ENC_SPI_Select>

  /* Send the read buffer memory command (ignoring the response) */

  ENC_SPI_SendWithoutSelection(ENC_RBM);
 8006338:	203a      	movs	r0, #58	; 0x3a
 800633a:	f000 fc11 	bl	8006b60 <ENC_SPI_SendWithoutSelection>

  /* Then read the buffer data */

  ENC_SPI_SendBuf(NULL, buffer, buflen);
 800633e:	b2aa      	uxth	r2, r5
 8006340:	4621      	mov	r1, r4
 8006342:	2000      	movs	r0, #0

  /* De-select ENC28J60 chip: done in ENC_SPI_SendBuf callback */
}
 8006344:	e8bd 4038 	ldmia.w	sp!, {r3, r4, r5, lr}
  ENC_SPI_SendBuf(NULL, buffer, buflen);
 8006348:	f000 bc4e 	b.w	8006be8 <ENC_SPI_SendBuf>

0800634c <up_udelay>:
{
 800634c:	b082      	sub	sp, #8
    for (i=0; i<us*iter_per_us; i++) {
 800634e:	2300      	movs	r3, #0
 8006350:	9301      	str	r3, [sp, #4]
 8006352:	4b06      	ldr	r3, [pc, #24]	; (800636c <up_udelay+0x20>)
 8006354:	681b      	ldr	r3, [r3, #0]
 8006356:	4358      	muls	r0, r3
 8006358:	9b01      	ldr	r3, [sp, #4]
 800635a:	4298      	cmp	r0, r3
 800635c:	d801      	bhi.n	8006362 <up_udelay+0x16>
}
 800635e:	b002      	add	sp, #8
 8006360:	4770      	bx	lr
    for (i=0; i<us*iter_per_us; i++) {
 8006362:	9b01      	ldr	r3, [sp, #4]
 8006364:	3301      	adds	r3, #1
 8006366:	9301      	str	r3, [sp, #4]
 8006368:	e7f6      	b.n	8006358 <up_udelay+0xc>
 800636a:	bf00      	nop
 800636c:	20002620 	.word	0x20002620

08006370 <enc_reset>:
void enc_reset(ENC_HandleTypeDef *handle) {
 8006370:	b510      	push	{r4, lr}
 8006372:	4604      	mov	r4, r0
  ENC_SPI_Send(ENC_SRC);
 8006374:	20ff      	movs	r0, #255	; 0xff
 8006376:	f000 fc07 	bl	8006b88 <ENC_SPI_Send>
  handle->bank = 0; /* Initialize the trace on the current selected bank */
 800637a:	2300      	movs	r3, #0
 800637c:	7423      	strb	r3, [r4, #16]
  HAL_Delay(2); /* >1000 s, conforms to errata #2 */
 800637e:	2002      	movs	r0, #2
}
 8006380:	e8bd 4010 	ldmia.w	sp!, {r4, lr}
  HAL_Delay(2); /* >1000 s, conforms to errata #2 */
 8006384:	f7fa b8f8 	b.w	8000578 <HAL_Delay>

08006388 <enc_setbank>:
void enc_setbank(ENC_HandleTypeDef *handle, uint8_t bank) {
 8006388:	b538      	push	{r3, r4, r5, lr}
  if (bank != handle->bank) {
 800638a:	7c03      	ldrb	r3, [r0, #16]
 800638c:	428b      	cmp	r3, r1
void enc_setbank(ENC_HandleTypeDef *handle, uint8_t bank) {
 800638e:	4605      	mov	r5, r0
 8006390:	460c      	mov	r4, r1
  if (bank != handle->bank) {
 8006392:	d009      	beq.n	80063a8 <enc_setbank+0x20>
      enc_bfcgreg(ENC_ECON1, ECON1_BSEL_MASK);
 8006394:	2103      	movs	r1, #3
 8006396:	20bf      	movs	r0, #191	; 0xbf
 8006398:	f7ff ffae 	bl	80062f8 <enc_wrgreg2>
      if (bank != 0)
 800639c:	b11c      	cbz	r4, 80063a6 <enc_setbank+0x1e>
          enc_bfsgreg(ENC_ECON1, (bank << ECON1_BSEL_SHIFT));
 800639e:	4621      	mov	r1, r4
 80063a0:	209f      	movs	r0, #159	; 0x9f
 80063a2:	f7ff ffa9 	bl	80062f8 <enc_wrgreg2>
      handle->bank = bank;
 80063a6:	742c      	strb	r4, [r5, #16]
 80063a8:	bd38      	pop	{r3, r4, r5, pc}

080063aa <enc_rdbreg>:
{
 80063aa:	b513      	push	{r0, r1, r4, lr}
 80063ac:	460c      	mov	r4, r1
  enc_setbank(handle, GETBANK(ctrlreg));
 80063ae:	f3c1 1141 	ubfx	r1, r1, #5, #2
 80063b2:	f7ff ffe9 	bl	8006388 <enc_setbank>
  data[0] = ENC_RCR | GETADDR(ctrlreg);
 80063b6:	a902      	add	r1, sp, #8
 80063b8:	f004 031f 	and.w	r3, r4, #31
 80063bc:	f801 3d04 	strb.w	r3, [r1, #-4]!
  ENC_SPI_SendBuf(data, data, (ISPHYMAC(ctrlreg))?3:2);
 80063c0:	b264      	sxtb	r4, r4
 80063c2:	2c00      	cmp	r4, #0
 80063c4:	4608      	mov	r0, r1
 80063c6:	bfb4      	ite	lt
 80063c8:	2203      	movlt	r2, #3
 80063ca:	2202      	movge	r2, #2
 80063cc:	f000 fc0c 	bl	8006be8 <ENC_SPI_SendBuf>
  return (ISPHYMAC(ctrlreg))?data[2]:data[1];
 80063d0:	2c00      	cmp	r4, #0
 80063d2:	bfb4      	ite	lt
 80063d4:	f89d 0006 	ldrblt.w	r0, [sp, #6]
 80063d8:	f89d 0005 	ldrbge.w	r0, [sp, #5]
}
 80063dc:	b002      	add	sp, #8
 80063de:	bd10      	pop	{r4, pc}

080063e0 <enc_waitbreg.constprop.2>:
static bool enc_waitbreg(ENC_HandleTypeDef *handle, uint8_t ctrlreg,
 80063e0:	b570      	push	{r4, r5, r6, lr}
 80063e2:	4606      	mov	r6, r0
  uint32_t start = HAL_GetTick();
 80063e4:	f7fa f8c2 	bl	800056c <HAL_GetTick>
 80063e8:	4605      	mov	r5, r0
      rddata  = enc_rdbreg(handle, ctrlreg);
 80063ea:	21ea      	movs	r1, #234	; 0xea
 80063ec:	4630      	mov	r0, r6
 80063ee:	f7ff ffdc 	bl	80063aa <enc_rdbreg>
 80063f2:	4604      	mov	r4, r0
      elapsed = HAL_GetTick() - start;
 80063f4:	f7fa f8ba 	bl	800056c <HAL_GetTick>
  while ((rddata & bits) != value && elapsed < ENC_POLLTIMEOUT);
 80063f8:	f014 0401 	ands.w	r4, r4, #1
      elapsed = HAL_GetTick() - start;
 80063fc:	eba0 0005 	sub.w	r0, r0, r5
  while ((rddata & bits) != value && elapsed < ENC_POLLTIMEOUT);
 8006400:	d002      	beq.n	8006408 <enc_waitbreg.constprop.2+0x28>
 8006402:	2831      	cmp	r0, #49	; 0x31
 8006404:	d9f1      	bls.n	80063ea <enc_waitbreg.constprop.2+0xa>
 8006406:	2401      	movs	r4, #1
}
 8006408:	f084 0001 	eor.w	r0, r4, #1
 800640c:	bd70      	pop	{r4, r5, r6, pc}

0800640e <enc_wrbreg>:
{
 800640e:	b537      	push	{r0, r1, r2, r4, r5, lr}
 8006410:	460c      	mov	r4, r1
  data[0] = ENC_WCR | GETADDR(ctrlreg);
 8006412:	f004 041f 	and.w	r4, r4, #31
  enc_setbank(handle, GETBANK(ctrlreg));
 8006416:	f3c1 1141 	ubfx	r1, r1, #5, #2
{
 800641a:	4615      	mov	r5, r2
  data[0] = ENC_WCR | GETADDR(ctrlreg);
 800641c:	f044 0440 	orr.w	r4, r4, #64	; 0x40
  enc_setbank(handle, GETBANK(ctrlreg));
 8006420:	f7ff ffb2 	bl	8006388 <enc_setbank>
  ENC_SPI_SendBuf(data, NULL, 2);
 8006424:	2202      	movs	r2, #2
 8006426:	2100      	movs	r1, #0
 8006428:	a801      	add	r0, sp, #4
  data[0] = ENC_WCR | GETADDR(ctrlreg);
 800642a:	f88d 4004 	strb.w	r4, [sp, #4]
  data[1] = wrdata;
 800642e:	f88d 5005 	strb.w	r5, [sp, #5]
  ENC_SPI_SendBuf(data, NULL, 2);
 8006432:	f000 fbd9 	bl	8006be8 <ENC_SPI_SendBuf>
}
 8006436:	b003      	add	sp, #12
 8006438:	bd30      	pop	{r4, r5, pc}

0800643a <enc_wrphy>:
{
 800643a:	b538      	push	{r3, r4, r5, lr}
 800643c:	4604      	mov	r4, r0
 800643e:	4615      	mov	r5, r2
  enc_wrbreg(handle, ENC_MIREGADR, phyaddr);
 8006440:	460a      	mov	r2, r1
 8006442:	21d4      	movs	r1, #212	; 0xd4
 8006444:	f7ff ffe3 	bl	800640e <enc_wrbreg>
  enc_wrbreg(handle, ENC_MIWRL, phydata);
 8006448:	b2ea      	uxtb	r2, r5
 800644a:	4620      	mov	r0, r4
 800644c:	21d6      	movs	r1, #214	; 0xd6
 800644e:	f7ff ffde 	bl	800640e <enc_wrbreg>
  enc_wrbreg(handle, ENC_MIWRH, phydata >> 8);
 8006452:	0a2a      	lsrs	r2, r5, #8
 8006454:	4620      	mov	r0, r4
 8006456:	21d7      	movs	r1, #215	; 0xd7
 8006458:	f7ff ffd9 	bl	800640e <enc_wrbreg>
  up_udelay(12);
 800645c:	200c      	movs	r0, #12
 800645e:	f7ff ff75 	bl	800634c <up_udelay>
  enc_waitbreg(handle, ENC_MISTAT, MISTAT_BUSY, 0x00);
 8006462:	4620      	mov	r0, r4
}
 8006464:	e8bd 4038 	ldmia.w	sp!, {r3, r4, r5, lr}
  enc_waitbreg(handle, ENC_MISTAT, MISTAT_BUSY, 0x00);
 8006468:	f7ff bfba 	b.w	80063e0 <enc_waitbreg.constprop.2>

0800646c <enc_rdphy>:
{
 800646c:	b538      	push	{r3, r4, r5, lr}
  enc_wrbreg(handle, ENC_MIREGADR, phyaddr);
 800646e:	460a      	mov	r2, r1
{
 8006470:	4605      	mov	r5, r0
  enc_wrbreg(handle, ENC_MIREGADR, phyaddr);
 8006472:	21d4      	movs	r1, #212	; 0xd4
 8006474:	f7ff ffcb 	bl	800640e <enc_wrbreg>
  enc_wrbreg(handle, ENC_MICMD, MICMD_MIIRD);
 8006478:	2201      	movs	r2, #1
 800647a:	21d2      	movs	r1, #210	; 0xd2
 800647c:	4628      	mov	r0, r5
 800647e:	f7ff ffc6 	bl	800640e <enc_wrbreg>
  up_udelay(12);
 8006482:	200c      	movs	r0, #12
 8006484:	f7ff ff62 	bl	800634c <up_udelay>
  if (enc_waitbreg(handle, ENC_MISTAT, MISTAT_BUSY, 0x00))
 8006488:	4628      	mov	r0, r5
 800648a:	f7ff ffa9 	bl	80063e0 <enc_waitbreg.constprop.2>
 800648e:	b180      	cbz	r0, 80064b2 <enc_rdphy+0x46>
      enc_wrbreg(handle, ENC_MICMD, 0x00);
 8006490:	2200      	movs	r2, #0
 8006492:	21d2      	movs	r1, #210	; 0xd2
 8006494:	4628      	mov	r0, r5
 8006496:	f7ff ffba 	bl	800640e <enc_wrbreg>
      data  = (uint16_t)enc_rdbreg(handle, ENC_MIRDL);
 800649a:	21d8      	movs	r1, #216	; 0xd8
 800649c:	4628      	mov	r0, r5
 800649e:	f7ff ff84 	bl	80063aa <enc_rdbreg>
      data |= (uint16_t)enc_rdbreg(handle, ENC_MIRDH) << 8;
 80064a2:	21d9      	movs	r1, #217	; 0xd9
      data  = (uint16_t)enc_rdbreg(handle, ENC_MIRDL);
 80064a4:	4604      	mov	r4, r0
      data |= (uint16_t)enc_rdbreg(handle, ENC_MIRDH) << 8;
 80064a6:	4628      	mov	r0, r5
 80064a8:	f7ff ff7f 	bl	80063aa <enc_rdbreg>
 80064ac:	ea44 2000 	orr.w	r0, r4, r0, lsl #8
 80064b0:	b280      	uxth	r0, r0
}
 80064b2:	bd38      	pop	{r3, r4, r5, pc}

080064b4 <ENC_Start>:
{
 80064b4:	b573      	push	{r0, r1, r4, r5, r6, lr}
    iter_per_us = 1000000;
 80064b6:	4d6e      	ldr	r5, [pc, #440]	; (8006670 <ENC_Start+0x1bc>)
 80064b8:	4b6e      	ldr	r3, [pc, #440]	; (8006674 <ENC_Start+0x1c0>)
 80064ba:	602b      	str	r3, [r5, #0]
{
 80064bc:	4604      	mov	r4, r0
    time = HAL_GetTick();
 80064be:	f7fa f855 	bl	800056c <HAL_GetTick>
 80064c2:	4606      	mov	r6, r0
    while (HAL_GetTick() == time) {
 80064c4:	f7fa f852 	bl	800056c <HAL_GetTick>
 80064c8:	4286      	cmp	r6, r0
 80064ca:	d0fb      	beq.n	80064c4 <ENC_Start+0x10>
    for (i=0; i<iter_per_us; i++) {
 80064cc:	2300      	movs	r3, #0
 80064ce:	682a      	ldr	r2, [r5, #0]
 80064d0:	9301      	str	r3, [sp, #4]
 80064d2:	9b01      	ldr	r3, [sp, #4]
 80064d4:	4293      	cmp	r3, r2
 80064d6:	f0c0 80ae 	bcc.w	8006636 <ENC_Start+0x182>
    iter_per_us /= ((HAL_GetTick()-time)*1000);
 80064da:	f7fa f847 	bl	800056c <HAL_GetTick>
 80064de:	f44f 737a 	mov.w	r3, #1000	; 0x3e8
 80064e2:	1b80      	subs	r0, r0, r6
 80064e4:	4358      	muls	r0, r3
 80064e6:	682b      	ldr	r3, [r5, #0]
 80064e8:	fbb3 f3f0 	udiv	r3, r3, r0
	enc_reset(handle);
 80064ec:	4620      	mov	r0, r4
    iter_per_us /= ((HAL_GetTick()-time)*1000);
 80064ee:	602b      	str	r3, [r5, #0]
	enc_reset(handle);
 80064f0:	f7ff ff3e 	bl	8006370 <enc_reset>
	enc_setbank(handle, 0);
 80064f4:	2100      	movs	r1, #0
 80064f6:	4620      	mov	r0, r4
 80064f8:	f7ff ff46 	bl	8006388 <enc_setbank>
    regval = enc_rdbreg(handle, ENC_EREVID);
 80064fc:	2172      	movs	r1, #114	; 0x72
 80064fe:	4620      	mov	r0, r4
 8006500:	f7ff ff53 	bl	80063aa <enc_rdbreg>
    if (regval == 0x00 || regval == 0xff) {
 8006504:	3801      	subs	r0, #1
 8006506:	b2c0      	uxtb	r0, r0
 8006508:	28fd      	cmp	r0, #253	; 0xfd
 800650a:	f04f 0500 	mov.w	r5, #0
 800650e:	f200 80ad 	bhi.w	800666c <ENC_Start+0x1b8>
    enc_wrgreg(ENC_ECON2, ECON2_AUTOINC /* | ECON2_VRPS*/);
 8006512:	2180      	movs	r1, #128	; 0x80
 8006514:	205e      	movs	r0, #94	; 0x5e
 8006516:	f7ff feef 	bl	80062f8 <enc_wrgreg2>
    enc_wrbreg(handle, ENC_ERXSTL, PKTMEM_RX_START & 0xff);
 800651a:	462a      	mov	r2, r5
 800651c:	2108      	movs	r1, #8
 800651e:	4620      	mov	r0, r4
    handle->nextpkt = PKTMEM_RX_START;
 8006520:	82a5      	strh	r5, [r4, #20]
    enc_wrbreg(handle, ENC_ERXSTL, PKTMEM_RX_START & 0xff);
 8006522:	f7ff ff74 	bl	800640e <enc_wrbreg>
    enc_wrbreg(handle, ENC_ERXSTH, PKTMEM_RX_START >> 8);
 8006526:	462a      	mov	r2, r5
 8006528:	2109      	movs	r1, #9
 800652a:	4620      	mov	r0, r4
 800652c:	f7ff ff6f 	bl	800640e <enc_wrbreg>
    enc_wrbreg(handle, ENC_ERXRDPTL, PKTMEM_RX_END & 0xff);
 8006530:	22ff      	movs	r2, #255	; 0xff
 8006532:	210c      	movs	r1, #12
 8006534:	4620      	mov	r0, r4
 8006536:	f7ff ff6a 	bl	800640e <enc_wrbreg>
    enc_wrbreg(handle, ENC_ERXRDPTH, PKTMEM_RX_END >> 8);
 800653a:	2219      	movs	r2, #25
 800653c:	210d      	movs	r1, #13
 800653e:	4620      	mov	r0, r4
 8006540:	f7ff ff65 	bl	800640e <enc_wrbreg>
    enc_wrbreg(handle, ENC_ERXNDL, PKTMEM_RX_END & 0xff);
 8006544:	22ff      	movs	r2, #255	; 0xff
 8006546:	210a      	movs	r1, #10
 8006548:	4620      	mov	r0, r4
 800654a:	f7ff ff60 	bl	800640e <enc_wrbreg>
    enc_wrbreg(handle, ENC_ERXNDH, PKTMEM_RX_END >> 8);
 800654e:	2219      	movs	r2, #25
 8006550:	210b      	movs	r1, #11
 8006552:	4620      	mov	r0, r4
 8006554:	f7ff ff5b 	bl	800640e <enc_wrbreg>
    enc_wrbreg(handle, ENC_ETXSTL, PKTMEM_TX_START & 0xff);
 8006558:	462a      	mov	r2, r5
 800655a:	2104      	movs	r1, #4
 800655c:	4620      	mov	r0, r4
    handle->transmitLength = 0;
 800655e:	8325      	strh	r5, [r4, #24]
    enc_wrbreg(handle, ENC_ETXSTL, PKTMEM_TX_START & 0xff);
 8006560:	f7ff ff55 	bl	800640e <enc_wrbreg>
    enc_wrbreg(handle, ENC_ETXSTH, PKTMEM_TX_START >> 8);
 8006564:	221a      	movs	r2, #26
 8006566:	2105      	movs	r1, #5
 8006568:	4620      	mov	r0, r4
 800656a:	f7ff ff50 	bl	800640e <enc_wrbreg>
    enc_wrbreg(handle, ENC_ERXFCON, ERXFCON_UCEN | ERXFCON_CRCEN | ERXFCON_BCEN);
 800656e:	22a1      	movs	r2, #161	; 0xa1
 8006570:	2138      	movs	r1, #56	; 0x38
 8006572:	4620      	mov	r0, r4
 8006574:	f7ff ff4b 	bl	800640e <enc_wrbreg>
		HAL_Delay(10); /* Wait for 10 ms to let the clock be ready */
 8006578:	200a      	movs	r0, #10
 800657a:	f7f9 fffd 	bl	8000578 <HAL_Delay>
		regval = enc_rdbreg(handle, ENC_ESTAT);
 800657e:	211d      	movs	r1, #29
 8006580:	4620      	mov	r0, r4
 8006582:	f7ff ff12 	bl	80063aa <enc_rdbreg>
	} while ((regval & ESTAT_CLKRDY) == 0);
 8006586:	07c2      	lsls	r2, r0, #31
 8006588:	d5f6      	bpl.n	8006578 <ENC_Start+0xc4>
    enc_wrbreg(handle, ENC_MACON1, MACON1_MARXEN | MACON1_TXPAUS | MACON1_RXPAUS);
 800658a:	220d      	movs	r2, #13
 800658c:	21c0      	movs	r1, #192	; 0xc0
 800658e:	4620      	mov	r0, r4
 8006590:	f7ff ff3d 	bl	800640e <enc_wrbreg>
    if (handle->Init.DuplexMode == ETH_MODE_HALFDUPLEX) {
 8006594:	6822      	ldr	r2, [r4, #0]
 8006596:	68a3      	ldr	r3, [r4, #8]
 8006598:	2a00      	cmp	r2, #0
 800659a:	d150      	bne.n	800663e <ENC_Start+0x18a>
      enc_wrbreg(handle, ENC_MACON3,
 800659c:	2b00      	cmp	r3, #0
 800659e:	bf0c      	ite	eq
 80065a0:	2232      	moveq	r2, #50	; 0x32
 80065a2:	2202      	movne	r2, #2
 80065a4:	21c2      	movs	r1, #194	; 0xc2
 80065a6:	4620      	mov	r0, r4
 80065a8:	f7ff ff31 	bl	800640e <enc_wrbreg>
      enc_wrbreg(handle, ENC_MACON4, MACON4_DEFER);        /* Defer transmission enable */
 80065ac:	2240      	movs	r2, #64	; 0x40
 80065ae:	21c3      	movs	r1, #195	; 0xc3
 80065b0:	4620      	mov	r0, r4
 80065b2:	f7ff ff2c 	bl	800640e <enc_wrbreg>
      enc_wrbreg(handle, ENC_MAIPGL, 0x12);
 80065b6:	2212      	movs	r2, #18
 80065b8:	21c6      	movs	r1, #198	; 0xc6
 80065ba:	4620      	mov	r0, r4
 80065bc:	f7ff ff27 	bl	800640e <enc_wrbreg>
      enc_wrbreg(handle, ENC_MAIPGH, 0x0c);
 80065c0:	220c      	movs	r2, #12
 80065c2:	21c7      	movs	r1, #199	; 0xc7
 80065c4:	4620      	mov	r0, r4
 80065c6:	f7ff ff22 	bl	800640e <enc_wrbreg>
      enc_wrbreg(handle, ENC_MABBIPG, 0x12);
 80065ca:	2212      	movs	r2, #18
      enc_wrbreg(handle, ENC_MABBIPG, 0x15);
 80065cc:	21c4      	movs	r1, #196	; 0xc4
 80065ce:	4620      	mov	r0, r4
 80065d0:	f7ff ff1d 	bl	800640e <enc_wrbreg>
    enc_wrbreg(handle, ENC_MAMXFLL, (CONFIG_NET_ETH_MTU+18) & 0xff);
 80065d4:	22ee      	movs	r2, #238	; 0xee
 80065d6:	21ca      	movs	r1, #202	; 0xca
 80065d8:	4620      	mov	r0, r4
 80065da:	f7ff ff18 	bl	800640e <enc_wrbreg>
    enc_wrbreg(handle, ENC_MAMXFLH, (CONFIG_NET_ETH_MTU+18) >> 8);
 80065de:	2205      	movs	r2, #5
 80065e0:	21cb      	movs	r1, #203	; 0xcb
 80065e2:	4620      	mov	r0, r4
 80065e4:	f7ff ff13 	bl	800640e <enc_wrbreg>
    if (handle->Init.DuplexMode == ETH_MODE_HALFDUPLEX) {
 80065e8:	6822      	ldr	r2, [r4, #0]
 80065ea:	2a00      	cmp	r2, #0
 80065ec:	d136      	bne.n	800665c <ENC_Start+0x1a8>
      enc_wrphy(handle, ENC_PHCON1, 0x00);
 80065ee:	4611      	mov	r1, r2
 80065f0:	4620      	mov	r0, r4
 80065f2:	f7ff ff22 	bl	800643a <enc_wrphy>
      enc_wrphy(handle, ENC_PHCON2, PHCON2_HDLDIS); /* errata 9 workaround */
 80065f6:	f44f 7280 	mov.w	r2, #256	; 0x100
      enc_wrphy(handle, ENC_PHCON2, 0x00);
 80065fa:	2110      	movs	r1, #16
 80065fc:	4620      	mov	r0, r4
 80065fe:	f7ff ff1c 	bl	800643a <enc_wrphy>
    if (handle->Init.InterruptEnableBits & EIE_LINKIE) {
 8006602:	7b23      	ldrb	r3, [r4, #12]
 8006604:	06db      	lsls	r3, r3, #27
 8006606:	d504      	bpl.n	8006612 <ENC_Start+0x15e>
      enc_wrphy(handle, ENC_PHIE, PHIE_PGEIE | PHIE_PLNKIE);
 8006608:	2212      	movs	r2, #18
 800660a:	4611      	mov	r1, r2
 800660c:	4620      	mov	r0, r4
 800660e:	f7ff ff14 	bl	800643a <enc_wrphy>
    enc_bfcgreg(ENC_EIR, EIR_ALLINTS);
 8006612:	213b      	movs	r1, #59	; 0x3b
 8006614:	20bc      	movs	r0, #188	; 0xbc
 8006616:	f7ff fe6f 	bl	80062f8 <enc_wrgreg2>
    regval = handle->Init.InterruptEnableBits;
 800661a:	7b21      	ldrb	r1, [r4, #12]
    if (regval) {
 800661c:	b109      	cbz	r1, 8006622 <ENC_Start+0x16e>
        regval |= EIE_INTIE;
 800661e:	f041 0180 	orr.w	r1, r1, #128	; 0x80
    enc_bfsgreg(ENC_EIE, regval);
 8006622:	209b      	movs	r0, #155	; 0x9b
 8006624:	f7ff fe68 	bl	80062f8 <enc_wrgreg2>
    enc_bfsgreg(ENC_ECON1, ECON1_RXEN);
 8006628:	209f      	movs	r0, #159	; 0x9f
 800662a:	2104      	movs	r1, #4
 800662c:	f7ff fe64 	bl	80062f8 <enc_wrgreg2>
    return true;
 8006630:	2001      	movs	r0, #1
}
 8006632:	b002      	add	sp, #8
 8006634:	bd70      	pop	{r4, r5, r6, pc}
    for (i=0; i<iter_per_us; i++) {
 8006636:	9b01      	ldr	r3, [sp, #4]
 8006638:	3301      	adds	r3, #1
 800663a:	9301      	str	r3, [sp, #4]
 800663c:	e749      	b.n	80064d2 <ENC_Start+0x1e>
      enc_wrbreg(handle, ENC_MACON3,
 800663e:	2b00      	cmp	r3, #0
 8006640:	bf0c      	ite	eq
 8006642:	2233      	moveq	r2, #51	; 0x33
 8006644:	2203      	movne	r2, #3
 8006646:	21c2      	movs	r1, #194	; 0xc2
 8006648:	4620      	mov	r0, r4
 800664a:	f7ff fee0 	bl	800640e <enc_wrbreg>
      enc_wrbreg(handle, ENC_MAIPGL, 0x12);
 800664e:	2212      	movs	r2, #18
 8006650:	21c6      	movs	r1, #198	; 0xc6
 8006652:	4620      	mov	r0, r4
 8006654:	f7ff fedb 	bl	800640e <enc_wrbreg>
      enc_wrbreg(handle, ENC_MABBIPG, 0x15);
 8006658:	2215      	movs	r2, #21
 800665a:	e7b7      	b.n	80065cc <ENC_Start+0x118>
      enc_wrphy(handle, ENC_PHCON1, PHCON1_PDPXMD); /* errata 10 workaround */
 800665c:	f44f 7280 	mov.w	r2, #256	; 0x100
 8006660:	2100      	movs	r1, #0
 8006662:	4620      	mov	r0, r4
 8006664:	f7ff fee9 	bl	800643a <enc_wrphy>
      enc_wrphy(handle, ENC_PHCON2, 0x00);
 8006668:	2200      	movs	r2, #0
 800666a:	e7c6      	b.n	80065fa <ENC_Start+0x146>
      return false;
 800666c:	4628      	mov	r0, r5
 800666e:	e7e0      	b.n	8006632 <ENC_Start+0x17e>
 8006670:	20002620 	.word	0x20002620
 8006674:	000f4240 	.word	0x000f4240

08006678 <ENC_SetMacAddr>:
{
 8006678:	b510      	push	{r4, lr}
  enc_wrbreg(handle, ENC_MAADR1, handle->Init.MACAddr[0]);
 800667a:	6843      	ldr	r3, [r0, #4]
{
 800667c:	4604      	mov	r4, r0
  enc_wrbreg(handle, ENC_MAADR1, handle->Init.MACAddr[0]);
 800667e:	781a      	ldrb	r2, [r3, #0]
 8006680:	21e4      	movs	r1, #228	; 0xe4
 8006682:	f7ff fec4 	bl	800640e <enc_wrbreg>
  enc_wrbreg(handle, ENC_MAADR2, handle->Init.MACAddr[1]);
 8006686:	6863      	ldr	r3, [r4, #4]
 8006688:	4620      	mov	r0, r4
 800668a:	785a      	ldrb	r2, [r3, #1]
 800668c:	21e5      	movs	r1, #229	; 0xe5
 800668e:	f7ff febe 	bl	800640e <enc_wrbreg>
  enc_wrbreg(handle, ENC_MAADR3, handle->Init.MACAddr[2]);
 8006692:	6863      	ldr	r3, [r4, #4]
 8006694:	4620      	mov	r0, r4
 8006696:	789a      	ldrb	r2, [r3, #2]
 8006698:	21e2      	movs	r1, #226	; 0xe2
 800669a:	f7ff feb8 	bl	800640e <enc_wrbreg>
  enc_wrbreg(handle, ENC_MAADR4, handle->Init.MACAddr[3]);
 800669e:	6863      	ldr	r3, [r4, #4]
 80066a0:	4620      	mov	r0, r4
 80066a2:	78da      	ldrb	r2, [r3, #3]
 80066a4:	21e3      	movs	r1, #227	; 0xe3
 80066a6:	f7ff feb2 	bl	800640e <enc_wrbreg>
  enc_wrbreg(handle, ENC_MAADR5, handle->Init.MACAddr[4]);
 80066aa:	6863      	ldr	r3, [r4, #4]
 80066ac:	4620      	mov	r0, r4
 80066ae:	791a      	ldrb	r2, [r3, #4]
 80066b0:	21e0      	movs	r1, #224	; 0xe0
 80066b2:	f7ff feac 	bl	800640e <enc_wrbreg>
  enc_wrbreg(handle, ENC_MAADR6, handle->Init.MACAddr[5]);
 80066b6:	6863      	ldr	r3, [r4, #4]
 80066b8:	4620      	mov	r0, r4
 80066ba:	795a      	ldrb	r2, [r3, #5]
 80066bc:	21e1      	movs	r1, #225	; 0xe1
}
 80066be:	e8bd 4010 	ldmia.w	sp!, {r4, lr}
  enc_wrbreg(handle, ENC_MAADR6, handle->Init.MACAddr[5]);
 80066c2:	f7ff bea4 	b.w	800640e <enc_wrbreg>

080066c6 <ENC_WriteBuffer>:
{
 80066c6:	b538      	push	{r3, r4, r5, lr}
 80066c8:	4604      	mov	r4, r0
  ENC_SPI_Select(true);
 80066ca:	2001      	movs	r0, #1
{
 80066cc:	460d      	mov	r5, r1
  ENC_SPI_Select(true);
 80066ce:	f000 fac9 	bl	8006c64 <ENC_SPI_Select>
  ENC_SPI_SendWithoutSelection(ENC_WBM);
 80066d2:	207a      	movs	r0, #122	; 0x7a
 80066d4:	f000 fa44 	bl	8006b60 <ENC_SPI_SendWithoutSelection>
  ENC_SPI_SendBuf(buffer, NULL, buflen);
 80066d8:	462a      	mov	r2, r5
 80066da:	4620      	mov	r0, r4
 80066dc:	2100      	movs	r1, #0
}
 80066de:	e8bd 4038 	ldmia.w	sp!, {r3, r4, r5, lr}
  ENC_SPI_SendBuf(buffer, NULL, buflen);
 80066e2:	f000 ba81 	b.w	8006be8 <ENC_SPI_SendBuf>

080066e6 <ENC_RestoreTXBuffer>:
 * Assumptions:
 *
 ****************************************************************************/

int8_t ENC_RestoreTXBuffer(ENC_HandleTypeDef *handle, uint16_t len)
{
 80066e6:	b5f7      	push	{r0, r1, r2, r4, r5, r6, r7, lr}
 80066e8:	4606      	mov	r6, r0
 80066ea:	460d      	mov	r5, r1
  uint32_t start = HAL_GetTick();
 80066ec:	f7f9 ff3e 	bl	800056c <HAL_GetTick>
 80066f0:	4607      	mov	r7, r0
      rddata  = enc_rdgreg(ctrlreg);
 80066f2:	201f      	movs	r0, #31
 80066f4:	f7ff fe0d 	bl	8006312 <enc_rdgreg2>
 80066f8:	4604      	mov	r4, r0
      elapsed = HAL_GetTick() - start;
 80066fa:	f7f9 ff37 	bl	800056c <HAL_GetTick>
  while ((rddata & bits) != value && elapsed < ENC_POLLTIMEOUT);
 80066fe:	f014 0408 	ands.w	r4, r4, #8
      elapsed = HAL_GetTick() - start;
 8006702:	eba0 0007 	sub.w	r0, r0, r7
  while ((rddata & bits) != value && elapsed < ENC_POLLTIMEOUT);
 8006706:	d01c      	beq.n	8006742 <ENC_RestoreTXBuffer+0x5c>
 8006708:	2831      	cmp	r0, #49	; 0x31
 800670a:	d9f2      	bls.n	80066f2 <ENC_RestoreTXBuffer+0xc>
  uint16_t txend;
  uint8_t control_write[2];

  /* Wait while TX is busy */
  if (!enc_waitgreg(ENC_ECON1, ECON1_TXRTS, 0)) {
    return ERR_TIMEOUT;
 800670c:	f06f 0002 	mvn.w	r0, #2
  control_write[0] = ENC_WBM;
  control_write[1] = PKTCTRL_PCRCEN | PKTCTRL_PPADEN | PKTCTRL_PHUGEEN;
  ENC_SPI_SendBuf(control_write, control_write, 2);

  return ERR_OK;
}
 8006710:	b003      	add	sp, #12
 8006712:	bdf0      	pop	{r4, r5, r6, r7, pc}
  enc_wrbreg(handle, ENC_ETXNDL, txend & 0xff);
 8006714:	b2ea      	uxtb	r2, r5
 8006716:	2106      	movs	r1, #6
 8006718:	4630      	mov	r0, r6
 800671a:	f7ff fe78 	bl	800640e <enc_wrbreg>
  enc_wrbreg(handle, ENC_ETXNDH, txend >> 8);
 800671e:	0a2a      	lsrs	r2, r5, #8
 8006720:	2107      	movs	r1, #7
 8006722:	4630      	mov	r0, r6
 8006724:	f7ff fe73 	bl	800640e <enc_wrbreg>
  control_write[0] = ENC_WBM;
 8006728:	237a      	movs	r3, #122	; 0x7a
  ENC_SPI_SendBuf(control_write, control_write, 2);
 800672a:	a901      	add	r1, sp, #4
  control_write[0] = ENC_WBM;
 800672c:	f88d 3004 	strb.w	r3, [sp, #4]
  ENC_SPI_SendBuf(control_write, control_write, 2);
 8006730:	4608      	mov	r0, r1
  control_write[1] = PKTCTRL_PCRCEN | PKTCTRL_PPADEN | PKTCTRL_PHUGEEN;
 8006732:	230e      	movs	r3, #14
  ENC_SPI_SendBuf(control_write, control_write, 2);
 8006734:	2202      	movs	r2, #2
  control_write[1] = PKTCTRL_PCRCEN | PKTCTRL_PPADEN | PKTCTRL_PHUGEEN;
 8006736:	f88d 3005 	strb.w	r3, [sp, #5]
  ENC_SPI_SendBuf(control_write, control_write, 2);
 800673a:	f000 fa55 	bl	8006be8 <ENC_SPI_SendBuf>
  return ERR_OK;
 800673e:	4620      	mov	r0, r4
 8006740:	e7e6      	b.n	8006710 <ENC_RestoreTXBuffer+0x2a>
  enc_wrbreg(handle, ENC_ETXSTL, PKTMEM_TX_START & 0xff);
 8006742:	4622      	mov	r2, r4
 8006744:	2104      	movs	r1, #4
 8006746:	4630      	mov	r0, r6
 8006748:	f7ff fe61 	bl	800640e <enc_wrbreg>
  enc_wrbreg(handle, ENC_ETXSTH, PKTMEM_TX_START >> 8);
 800674c:	221a      	movs	r2, #26
 800674e:	2105      	movs	r1, #5
 8006750:	4630      	mov	r0, r6
 8006752:	f7ff fe5c 	bl	800640e <enc_wrbreg>
  enc_wrbreg(handle, ENC_EWRPTL, PKTMEM_TX_START & 0xff);
 8006756:	4622      	mov	r2, r4
 8006758:	2102      	movs	r1, #2
 800675a:	4630      	mov	r0, r6
 800675c:	f7ff fe57 	bl	800640e <enc_wrbreg>
  txend = PKTMEM_TX_START + len;
 8006760:	f505 55d0 	add.w	r5, r5, #6656	; 0x1a00
  enc_wrbreg(handle, ENC_EWRPTH, PKTMEM_TX_START >> 8);
 8006764:	221a      	movs	r2, #26
 8006766:	2103      	movs	r1, #3
 8006768:	4630      	mov	r0, r6
 800676a:	f7ff fe50 	bl	800640e <enc_wrbreg>
  txend = PKTMEM_TX_START + len;
 800676e:	b2ad      	uxth	r5, r5
  if (txend+8>PKTMEM_TX_ENDP1) {
 8006770:	f641 73f8 	movw	r3, #8184	; 0x1ff8
 8006774:	429d      	cmp	r5, r3
 8006776:	d9cd      	bls.n	8006714 <ENC_RestoreTXBuffer+0x2e>
    return ERR_MEM;
 8006778:	f04f 30ff 	mov.w	r0, #4294967295
 800677c:	e7c8      	b.n	8006710 <ENC_RestoreTXBuffer+0x2a>

0800677e <ENC_Transmit>:
void ENC_Transmit(ENC_HandleTypeDef *handle)
#endif
{
    PT_BEGIN(pt);

    if (handle->transmitLength != 0) {
 800677e:	8b03      	ldrh	r3, [r0, #24]
{
 8006780:	b573      	push	{r0, r1, r4, r5, r6, lr}
 8006782:	4604      	mov	r4, r0
    if (handle->transmitLength != 0) {
 8006784:	2b00      	cmp	r3, #0
 8006786:	d04a      	beq.n	800681e <ENC_Transmit+0xa0>
        /* Set TXRTS to send the packet in the transmit buffer */

        //enc_bfsgreg(ENC_ECON1, ECON1_TXRTS);
        /* Implement erratas 12, 13 and 15 */
        /* Reset transmit logic */
        handle->retries = 16;
 8006788:	2310      	movs	r3, #16
 800678a:	8483      	strh	r3, [r0, #36]	; 0x24
        do {
            enc_bfsgreg(ENC_ECON1, ECON1_TXRST);
 800678c:	2180      	movs	r1, #128	; 0x80
 800678e:	209f      	movs	r0, #159	; 0x9f
 8006790:	f7ff fdb2 	bl	80062f8 <enc_wrgreg2>
            enc_bfcgreg(ENC_ECON1, ECON1_TXRST);
 8006794:	2180      	movs	r1, #128	; 0x80
 8006796:	20bf      	movs	r0, #191	; 0xbf
 8006798:	f7ff fdae 	bl	80062f8 <enc_wrgreg2>
            enc_bfcgreg(ENC_EIR, EIR_TXERIF | EIR_TXIF);
 800679c:	210a      	movs	r1, #10
 800679e:	20bc      	movs	r0, #188	; 0xbc
 80067a0:	f7ff fdaa 	bl	80062f8 <enc_wrgreg2>

            /* Start transmission */
            enc_bfsgreg(ENC_ECON1, ECON1_TXRTS);
 80067a4:	2108      	movs	r1, #8
 80067a6:	209f      	movs	r0, #159	; 0x9f
 80067a8:	f7ff fda6 	bl	80062f8 <enc_wrgreg2>
  uint32_t start = HAL_GetTick();
 80067ac:	f7f9 fede 	bl	800056c <HAL_GetTick>
 80067b0:	4605      	mov	r5, r0
      rddata  = enc_rdgreg(ctrlreg);
 80067b2:	201c      	movs	r0, #28
 80067b4:	f7ff fdad 	bl	8006312 <enc_rdgreg2>
 80067b8:	4606      	mov	r6, r0
      elapsed = HAL_GetTick() - start;
 80067ba:	f7f9 fed7 	bl	800056c <HAL_GetTick>
  while ((rddata & bits) == value && elapsed < ENC_POLLTIMEOUT);
 80067be:	f016 0f0a 	tst.w	r6, #10
      elapsed = HAL_GetTick() - start;
 80067c2:	eba0 0005 	sub.w	r0, r0, r5
  while ((rddata & bits) == value && elapsed < ENC_POLLTIMEOUT);
 80067c6:	d101      	bne.n	80067cc <ENC_Transmit+0x4e>
 80067c8:	2831      	cmp	r0, #49	; 0x31
 80067ca:	d9f2      	bls.n	80067b2 <ENC_Transmit+0x34>
            /* Wait for end of transmission */
            enc_waitwhilegreg(ENC_EIR, EIR_TXIF | EIR_TXERIF, 0);
#endif

            /* Stop transmission */
            enc_bfcgreg(ENC_ECON1, ECON1_TXRTS);
 80067cc:	2108      	movs	r1, #8
 80067ce:	20bf      	movs	r0, #191	; 0xbf
 80067d0:	f7ff fd92 	bl	80062f8 <enc_wrgreg2>
            {
                uint16_t addtTsv4;
                uint8_t tsv4, regval;

                /* read tsv */
                addtTsv4 = PKTMEM_TX_START + handle->transmitLength + 4;
 80067d4:	8b22      	ldrh	r2, [r4, #24]
 80067d6:	f502 52d0 	add.w	r2, r2, #6656	; 0x1a00
 80067da:	3204      	adds	r2, #4
 80067dc:	b295      	uxth	r5, r2

                enc_wrbreg(handle, ENC_ERDPTL, addtTsv4 & 0xff);
 80067de:	b2ea      	uxtb	r2, r5
 80067e0:	2100      	movs	r1, #0
 80067e2:	4620      	mov	r0, r4
 80067e4:	f7ff fe13 	bl	800640e <enc_wrbreg>
                enc_wrbreg(handle, ENC_ERDPTH, addtTsv4 >> 8);
 80067e8:	0a2a      	lsrs	r2, r5, #8
 80067ea:	2101      	movs	r1, #1
 80067ec:	4620      	mov	r0, r4
 80067ee:	f7ff fe0e 	bl	800640e <enc_wrbreg>

                enc_rdbuffer(&tsv4, 1);
 80067f2:	2101      	movs	r1, #1
 80067f4:	f10d 0007 	add.w	r0, sp, #7
 80067f8:	f7ff fd98 	bl	800632c <enc_rdbuffer>
                regval = enc_rdgreg(ENC_EIR);
 80067fc:	201c      	movs	r0, #28
 80067fe:	f7ff fd88 	bl	8006312 <enc_rdgreg2>
                if (!(regval & EIR_TXERIF) || !(tsv4 & TSV_LATECOL)) {
 8006802:	0782      	lsls	r2, r0, #30
 8006804:	d509      	bpl.n	800681a <ENC_Transmit+0x9c>
 8006806:	f89d 3007 	ldrb.w	r3, [sp, #7]
 800680a:	069b      	lsls	r3, r3, #26
 800680c:	d505      	bpl.n	800681a <ENC_Transmit+0x9c>
                    break;
                }
            }
            handle->retries--;
 800680e:	8ca3      	ldrh	r3, [r4, #36]	; 0x24
 8006810:	3b01      	subs	r3, #1
 8006812:	b29b      	uxth	r3, r3
 8006814:	84a3      	strh	r3, [r4, #36]	; 0x24
        } while (handle->retries > 0);
 8006816:	2b00      	cmp	r3, #0
 8006818:	d1b8      	bne.n	800678c <ENC_Transmit+0xe>
        /* Transmission finished (but can be unsuccessful) */
        handle->transmitLength = 0;
 800681a:	2300      	movs	r3, #0
 800681c:	8323      	strh	r3, [r4, #24]
    }
    PT_END(pt);
}
 800681e:	b002      	add	sp, #8
 8006820:	bd70      	pop	{r4, r5, r6, pc}

08006822 <ENC_GetReceivedFrame>:
 * Assumptions:
 *
 ****************************************************************************/

bool ENC_GetReceivedFrame(ENC_HandleTypeDef *handle)
{
 8006822:	b573      	push	{r0, r1, r4, r5, r6, lr}

    uint8_t pktcnt;

    bool result = true;

    pktcnt = enc_rdbreg(handle, ENC_EPKTCNT);
 8006824:	2139      	movs	r1, #57	; 0x39
{
 8006826:	4605      	mov	r5, r0
    pktcnt = enc_rdbreg(handle, ENC_EPKTCNT);
 8006828:	f7ff fdbf 	bl	80063aa <enc_rdbreg>
    if (pktcnt == 0) {
 800682c:	2800      	cmp	r0, #0
 800682e:	d04b      	beq.n	80068c8 <ENC_GetReceivedFrame+0xa6>
        return false;
    };

    /* Set the read pointer to the start of the received packet (ERDPT) */

    enc_wrbreg(handle, ENC_ERDPTL, (handle->nextpkt) & 0xff);
 8006830:	7d2a      	ldrb	r2, [r5, #20]
 8006832:	2100      	movs	r1, #0
 8006834:	4628      	mov	r0, r5
 8006836:	f7ff fdea 	bl	800640e <enc_wrbreg>
    enc_wrbreg(handle, ENC_ERDPTH, (handle->nextpkt) >> 8);
 800683a:	8aaa      	ldrh	r2, [r5, #20]
 800683c:	2101      	movs	r1, #1
 800683e:	0a12      	lsrs	r2, r2, #8
 8006840:	4628      	mov	r0, r5
 8006842:	f7ff fde4 	bl	800640e <enc_wrbreg>
    /* Read the next packet pointer and the 4 byte read status vector (RSV)
    * at the beginning of the received packet. (ERDPT should auto-increment
    * and wrap to the beginning of the read buffer as necessary)
    */

    enc_rdbuffer(rsv, 6);
 8006846:	2106      	movs	r1, #6
 8006848:	4668      	mov	r0, sp
 800684a:	f7ff fd6f 	bl	800632c <enc_rdbuffer>
    *              padding and CRC fields. This field is stored in little-
    *              endian format.
    *  Bits 16-31: Bit encoded RX status.
    */

    handle->nextpkt = (uint16_t)rsv[1] << 8 | (uint16_t)rsv[0];
 800684e:	f89d 2001 	ldrb.w	r2, [sp, #1]
 8006852:	f89d 3000 	ldrb.w	r3, [sp]
    pktlen        = (uint16_t)rsv[3] << 8 | (uint16_t)rsv[2];
    rxstat        = (uint16_t)rsv[5] << 8 | (uint16_t)rsv[4];
 8006856:	f89d 4004 	ldrb.w	r4, [sp, #4]
    handle->nextpkt = (uint16_t)rsv[1] << 8 | (uint16_t)rsv[0];
 800685a:	ea43 2302 	orr.w	r3, r3, r2, lsl #8

  /* Check if the packet was received OK */

    if ((rxstat & RXSTAT_OK) == 0) {
 800685e:	f014 0480 	ands.w	r4, r4, #128	; 0x80
    handle->nextpkt = (uint16_t)rsv[1] << 8 | (uint16_t)rsv[0];
 8006862:	82ab      	strh	r3, [r5, #20]
    if ((rxstat & RXSTAT_OK) == 0) {
 8006864:	d014      	beq.n	8006890 <ENC_GetReceivedFrame+0x6e>
    pktlen        = (uint16_t)rsv[3] << 8 | (uint16_t)rsv[2];
 8006866:	f89d 3003 	ldrb.w	r3, [sp, #3]
 800686a:	f89d 1002 	ldrb.w	r1, [sp, #2]
 800686e:	ea41 2103 	orr.w	r1, r1, r3, lsl #8
#ifdef CONFIG_ENC28J60_STATS
        priv->stats.rxnotok++;
#endif
        result = false;
    } else { /* Check for a usable packet length (4 added for the CRC) */
        if (pktlen > (CONFIG_NET_ETH_MTU + 4) || pktlen <= (ETH_HDRLEN + 4)) {
 8006872:	f1a1 0313 	sub.w	r3, r1, #19
 8006876:	b29b      	uxth	r3, r3
 8006878:	f240 52cd 	movw	r2, #1485	; 0x5cd
 800687c:	4293      	cmp	r3, r2
 800687e:	d81e      	bhi.n	80068be <ENC_GetReceivedFrame+0x9c>
    #endif
            result = false;
        } else { /* Otherwise, read and process the packet */
            /* Save the packet length (without the 4 byte CRC) in handle->RxFrameInfos.length*/

            handle->RxFrameInfos.length = pktlen - 4;
 8006880:	3904      	subs	r1, #4
 8006882:	62a9      	str	r1, [r5, #40]	; 0x28
            /* Copy the data data from the receive buffer to priv->dev.d_buf.
            * ERDPT should be correctly positioned from the last call to to
            * end_rdbuffer (above).
            */

            enc_rdbuffer(handle->RxFrameInfos.buffer, handle->RxFrameInfos.length);
 8006884:	f105 002c 	add.w	r0, r5, #44	; 0x2c
 8006888:	b209      	sxth	r1, r1
 800688a:	f7ff fd4f 	bl	800632c <enc_rdbuffer>
    bool result = true;
 800688e:	2401      	movs	r4, #1
    /* Move the RX read pointer to the start of the next received packet.
    * This frees the memory we just read.
    */

    /* Errata 14 (on se sert de rxstat comme variable temporaire */
    rxstat = handle->nextpkt;
 8006890:	8aae      	ldrh	r6, [r5, #20]
    if (rxstat == PKTMEM_RX_START) {
 8006892:	b1b6      	cbz	r6, 80068c2 <ENC_GetReceivedFrame+0xa0>
        rxstat = PKTMEM_RX_END;
    } else {
        rxstat--;
 8006894:	3e01      	subs	r6, #1
 8006896:	b2b6      	uxth	r6, r6
    }
    enc_wrbreg(handle, ENC_ERXRDPTL, rxstat && 0xff);
 8006898:	1c32      	adds	r2, r6, #0
 800689a:	bf18      	it	ne
 800689c:	2201      	movne	r2, #1
 800689e:	210c      	movs	r1, #12
 80068a0:	4628      	mov	r0, r5
 80068a2:	f7ff fdb4 	bl	800640e <enc_wrbreg>
    enc_wrbreg(handle, ENC_ERXRDPTH, rxstat >> 8);
 80068a6:	210d      	movs	r1, #13
 80068a8:	4628      	mov	r0, r5
 80068aa:	0a32      	lsrs	r2, r6, #8
 80068ac:	f7ff fdaf 	bl	800640e <enc_wrbreg>
    enc_wrbreg(handle, ENC_ERXRDPTH, (handle->nextpkt) >> 8);
*/

    /* Decrement the packet counter indicate we are done with this packet */

    enc_bfsgreg(ENC_ECON2, ECON2_PKTDEC);
 80068b0:	2140      	movs	r1, #64	; 0x40
 80068b2:	209e      	movs	r0, #158	; 0x9e
 80068b4:	f7ff fd20 	bl	80062f8 <enc_wrgreg2>

    return result;
}
 80068b8:	4620      	mov	r0, r4
 80068ba:	b002      	add	sp, #8
 80068bc:	bd70      	pop	{r4, r5, r6, pc}
        result = false;
 80068be:	2400      	movs	r4, #0
 80068c0:	e7e6      	b.n	8006890 <ENC_GetReceivedFrame+0x6e>
        rxstat = PKTMEM_RX_END;
 80068c2:	f641 16ff 	movw	r6, #6655	; 0x19ff
 80068c6:	e7e7      	b.n	8006898 <ENC_GetReceivedFrame+0x76>
        return false;
 80068c8:	4604      	mov	r4, r0
 80068ca:	e7f5      	b.n	80068b8 <ENC_GetReceivedFrame+0x96>

080068cc <ENC_EnableInterrupts>:
 *
 ****************************************************************************/

void ENC_EnableInterrupts(uint8_t bits)
{
    enc_bfsgreg(ENC_EIE, bits);
 80068cc:	4601      	mov	r1, r0
 80068ce:	209b      	movs	r0, #155	; 0x9b
 80068d0:	f7ff bd12 	b.w	80062f8 <enc_wrgreg2>

080068d4 <ENC_IRQHandler>:
 * Assumptions:
 *
 ****************************************************************************/

void ENC_IRQHandler(ENC_HandleTypeDef *handle)
{
 80068d4:	b538      	push	{r3, r4, r5, lr}
     * state (high). Doing so will prevent the host controller from missing a
     * falling edge should another interrupt occur while the immediate interrupt
     * is being serviced."
     */

    enc_bfcgreg(ENC_EIE, EIE_INTIE);
 80068d6:	2180      	movs	r1, #128	; 0x80
{
 80068d8:	4604      	mov	r4, r0
    enc_bfcgreg(ENC_EIE, EIE_INTIE);
 80068da:	20bb      	movs	r0, #187	; 0xbb
 80068dc:	f7ff fd0c 	bl	80062f8 <enc_wrgreg2>

    /* Read EIR for interrupt flags
     */

    eir = enc_rdgreg(ENC_EIR) & EIR_ALLINTS;
 80068e0:	201c      	movs	r0, #28
 80068e2:	f7ff fd16 	bl	8006312 <enc_rdgreg2>

    /* PKTIF is not reliable, check PKCNT instead */
    if (enc_rdbreg(handle, ENC_EPKTCNT) != 0) {
 80068e6:	2139      	movs	r1, #57	; 0x39
    eir = enc_rdgreg(ENC_EIR) & EIR_ALLINTS;
 80068e8:	f000 053b 	and.w	r5, r0, #59	; 0x3b
    if (enc_rdbreg(handle, ENC_EPKTCNT) != 0) {
 80068ec:	4620      	mov	r0, r4
 80068ee:	f7ff fd5c 	bl	80063aa <enc_rdbreg>
 80068f2:	b108      	cbz	r0, 80068f8 <ENC_IRQHandler+0x24>
        /* Manage EIR_PKTIF by software */
        eir |= EIR_PKTIF;
 80068f4:	f045 0540 	orr.w	r5, r5, #64	; 0x40

    /* Store interrupt flags in handle */
    handle->interruptFlags = eir;

    /* If link status has changed, read it */
    if ((eir & EIR_LINKIF) != 0) /* Link change interrupt */
 80068f8:	06eb      	lsls	r3, r5, #27
    handle->interruptFlags = eir;
 80068fa:	7465      	strb	r5, [r4, #17]
    if ((eir & EIR_LINKIF) != 0) /* Link change interrupt */
 80068fc:	d508      	bpl.n	8006910 <ENC_IRQHandler+0x3c>
  handle->LinkStatus = enc_rdphy(handle, ENC_PHSTAT2);
 80068fe:	2111      	movs	r1, #17
 8006900:	4620      	mov	r0, r4
 8006902:	f7ff fdb3 	bl	800646c <enc_rdphy>
    {
        enc_linkstatus(handle);       /* Get current link status */
        enc_rdphy(handle, ENC_PHIR);  /* Clear the LINKIF interrupt */
 8006906:	2113      	movs	r1, #19
  handle->LinkStatus = enc_rdphy(handle, ENC_PHSTAT2);
 8006908:	82e0      	strh	r0, [r4, #22]
        enc_rdphy(handle, ENC_PHIR);  /* Clear the LINKIF interrupt */
 800690a:	4620      	mov	r0, r4
 800690c:	f7ff fdae 	bl	800646c <enc_rdphy>
    }

    /* Reset ENC28J60 interrupt flags, except PKTIF form which interruption is deasserted when PKTCNT reaches 0 */
    enc_bfcgreg(ENC_EIR, EIR_ALLINTS);
 8006910:	213b      	movs	r1, #59	; 0x3b
 8006912:	20bc      	movs	r0, #188	; 0xbc

    /* Enable Ethernet interrupts */
    /* done after effective process on interrupts enc_bfsgreg(ENC_EIE, EIE_INTIE); */
}
 8006914:	e8bd 4038 	ldmia.w	sp!, {r3, r4, r5, lr}
    enc_bfcgreg(ENC_EIR, EIR_ALLINTS);
 8006918:	f7ff bcee 	b.w	80062f8 <enc_wrgreg2>

0800691c <low_level_output>:
  *       strange results. You might consider waiting for space in the DMA queue
  *       to become available since the stack doesn't retry to send a packet
  *       dropped because of memory failure (except for the TCP timers).
  */
static err_t low_level_output(struct netif *netif, struct pbuf *p)
{
 800691c:	b5f8      	push	{r3, r4, r5, r6, r7, lr}
     }
  }
#endif

  /* Prepare ENC28J60 Tx buffer */
  errval = ENC_RestoreTXBuffer(&EncHandle, p->tot_len);
 800691e:	480d      	ldr	r0, [pc, #52]	; (8006954 <low_level_output+0x38>)
{
 8006920:	460f      	mov	r7, r1
  errval = ENC_RestoreTXBuffer(&EncHandle, p->tot_len);
 8006922:	8909      	ldrh	r1, [r1, #8]
 8006924:	f7ff fedf 	bl	80066e6 <ENC_RestoreTXBuffer>
  if (errval != ERR_OK) {
 8006928:	4605      	mov	r5, r0
 800692a:	b988      	cbnz	r0, 8006950 <low_level_output+0x34>
 800692c:	463c      	mov	r4, r7
 800692e:	4606      	mov	r6, r0
      return errval;
  }

  /* copy frame from pbufs to driver buffers and send packet */
  for(q = p; q != NULL; q = q->next) {
    ENC_WriteBuffer(q->payload, q->len);
 8006930:	8961      	ldrh	r1, [r4, #10]
 8006932:	6860      	ldr	r0, [r4, #4]
 8006934:	f7ff fec7 	bl	80066c6 <ENC_WriteBuffer>
    framelength += q->len;
 8006938:	8963      	ldrh	r3, [r4, #10]
  for(q = p; q != NULL; q = q->next) {
 800693a:	6824      	ldr	r4, [r4, #0]
    framelength += q->len;
 800693c:	441e      	add	r6, r3
  for(q = p; q != NULL; q = q->next) {
 800693e:	2c00      	cmp	r4, #0
 8006940:	d1f6      	bne.n	8006930 <low_level_output+0x14>
  }

  if (framelength != p->tot_len) {
 8006942:	893b      	ldrh	r3, [r7, #8]
 8006944:	429e      	cmp	r6, r3
     return ERR_BUF;
  }

  EncHandle.transmitLength = p->tot_len;
 8006946:	bf0a      	itet	eq
 8006948:	4b02      	ldreq	r3, [pc, #8]	; (8006954 <low_level_output+0x38>)
     return ERR_BUF;
 800694a:	f06f 0501 	mvnne.w	r5, #1
  EncHandle.transmitLength = p->tot_len;
 800694e:	831e      	strheq	r6, [r3, #24]
  /* Actual transmission is triggered in main loop */

  return ERR_OK;
}
 8006950:	4628      	mov	r0, r5
 8006952:	bdf8      	pop	{r3, r4, r5, r6, r7, pc}
 8006954:	20004e7c 	.word	0x20004e7c

08006958 <MX_SPI3_Init>:
  hspi3.Instance = SPI3;
 8006958:	480a      	ldr	r0, [pc, #40]	; (8006984 <MX_SPI3_Init+0x2c>)
  hspi3.Init.Mode = SPI_MODE_MASTER;
 800695a:	4b0b      	ldr	r3, [pc, #44]	; (8006988 <MX_SPI3_Init+0x30>)
  hspi3.Init.NSS = SPI_NSS_SOFT;
 800695c:	f44f 7200 	mov.w	r2, #512	; 0x200
  hspi3.Init.Mode = SPI_MODE_MASTER;
 8006960:	f44f 7c82 	mov.w	ip, #260	; 0x104
 8006964:	e880 1008 	stmia.w	r0, {r3, ip}
  hspi3.Init.NSS = SPI_NSS_SOFT;
 8006968:	6182      	str	r2, [r0, #24]
  hspi3.Init.Direction = SPI_DIRECTION_2LINES;
 800696a:	2300      	movs	r3, #0
  hspi3.Init.BaudRatePrescaler = SPI_BAUDRATEPRESCALER_8;
 800696c:	2210      	movs	r2, #16
  hspi3.Init.Direction = SPI_DIRECTION_2LINES;
 800696e:	6083      	str	r3, [r0, #8]
  hspi3.Init.DataSize = SPI_DATASIZE_8BIT;
 8006970:	60c3      	str	r3, [r0, #12]
  hspi3.Init.CLKPolarity = SPI_POLARITY_LOW;
 8006972:	6103      	str	r3, [r0, #16]
  hspi3.Init.CLKPhase = SPI_PHASE_1EDGE;
 8006974:	6143      	str	r3, [r0, #20]
  hspi3.Init.BaudRatePrescaler = SPI_BAUDRATEPRESCALER_8;
 8006976:	61c2      	str	r2, [r0, #28]
  hspi3.Init.FirstBit = SPI_FIRSTBIT_MSB;
 8006978:	6203      	str	r3, [r0, #32]
  hspi3.Init.TIMode = SPI_TIMODE_DISABLED;
 800697a:	6243      	str	r3, [r0, #36]	; 0x24
  hspi3.Init.CRCCalculation = SPI_CRCCALCULATION_DISABLED;
 800697c:	6283      	str	r3, [r0, #40]	; 0x28
  HAL_SPI_Init(&hspi3);
 800697e:	f7fa baa3 	b.w	8000ec8 <HAL_SPI_Init>
 8006982:	bf00      	nop
 8006984:	200055a4 	.word	0x200055a4
 8006988:	40003c00 	.word	0x40003c00

0800698c <ENC_MSPInit>:
{
 800698c:	b5f0      	push	{r4, r5, r6, r7, lr}
 800698e:	b089      	sub	sp, #36	; 0x24
  __HAL_RCC_GPIOB_CLK_ENABLE();
 8006990:	2400      	movs	r4, #0
 8006992:	4b1e      	ldr	r3, [pc, #120]	; (8006a0c <ENC_MSPInit+0x80>)
 8006994:	9401      	str	r4, [sp, #4]
 8006996:	6b1a      	ldr	r2, [r3, #48]	; 0x30
  HAL_GPIO_Init(GPIOA, &GPIO_InitStructure);
 8006998:	4e1d      	ldr	r6, [pc, #116]	; (8006a10 <ENC_MSPInit+0x84>)
  __HAL_RCC_GPIOB_CLK_ENABLE();
 800699a:	f042 0202 	orr.w	r2, r2, #2
 800699e:	631a      	str	r2, [r3, #48]	; 0x30
 80069a0:	6b1a      	ldr	r2, [r3, #48]	; 0x30
 80069a2:	f002 0202 	and.w	r2, r2, #2
 80069a6:	9201      	str	r2, [sp, #4]
 80069a8:	9a01      	ldr	r2, [sp, #4]
  __HAL_RCC_GPIOG_CLK_ENABLE();
 80069aa:	9402      	str	r4, [sp, #8]
 80069ac:	6b1a      	ldr	r2, [r3, #48]	; 0x30
 80069ae:	f042 0240 	orr.w	r2, r2, #64	; 0x40
 80069b2:	631a      	str	r2, [r3, #48]	; 0x30
 80069b4:	6b1b      	ldr	r3, [r3, #48]	; 0x30
  GPIO_InitStructure.Pull = GPIO_NOPULL;
 80069b6:	9405      	str	r4, [sp, #20]
  __HAL_RCC_GPIOG_CLK_ENABLE();
 80069b8:	f003 0340 	and.w	r3, r3, #64	; 0x40
  GPIO_InitStructure.Mode = GPIO_MODE_OUTPUT_PP;
 80069bc:	2501      	movs	r5, #1
  __HAL_RCC_GPIOG_CLK_ENABLE();
 80069be:	9302      	str	r3, [sp, #8]
  GPIO_InitStructure.Pin = GPIO_PIN_15;
 80069c0:	f44f 4700 	mov.w	r7, #32768	; 0x8000
  HAL_GPIO_Init(GPIOA, &GPIO_InitStructure);
 80069c4:	a903      	add	r1, sp, #12
 80069c6:	4630      	mov	r0, r6
  __HAL_RCC_GPIOG_CLK_ENABLE();
 80069c8:	9b02      	ldr	r3, [sp, #8]
  GPIO_InitStructure.Pin = GPIO_PIN_15;
 80069ca:	9703      	str	r7, [sp, #12]
  GPIO_InitStructure.Mode = GPIO_MODE_OUTPUT_PP;
 80069cc:	9504      	str	r5, [sp, #16]
  GPIO_InitStructure.Speed = GPIO_SPEED_MEDIUM;
 80069ce:	9506      	str	r5, [sp, #24]
  HAL_GPIO_Init(GPIOA, &GPIO_InitStructure);
 80069d0:	f7f9 fe64 	bl	800069c <HAL_GPIO_Init>
  HAL_GPIO_WritePin(GPIOA, ENC_CS_PIN, GPIO_PIN_SET);
 80069d4:	462a      	mov	r2, r5
 80069d6:	4639      	mov	r1, r7
 80069d8:	4630      	mov	r0, r6
 80069da:	f7f9 ff3f 	bl	800085c <HAL_GPIO_WritePin>
  GPIO_InitStructure.Mode = GPIO_MODE_IT_FALLING;
 80069de:	4b0d      	ldr	r3, [pc, #52]	; (8006a14 <ENC_MSPInit+0x88>)
  HAL_GPIO_Init(GPIOD, &GPIO_InitStructure);
 80069e0:	480d      	ldr	r0, [pc, #52]	; (8006a18 <ENC_MSPInit+0x8c>)
  GPIO_InitStructure.Mode = GPIO_MODE_IT_FALLING;
 80069e2:	9304      	str	r3, [sp, #16]
  HAL_GPIO_Init(GPIOD, &GPIO_InitStructure);
 80069e4:	a903      	add	r1, sp, #12
  GPIO_InitStructure.Pin = GPIO_PIN_0;
 80069e6:	9503      	str	r5, [sp, #12]
  GPIO_InitStructure.Pull = GPIO_NOPULL;
 80069e8:	9405      	str	r4, [sp, #20]
  HAL_GPIO_Init(GPIOD, &GPIO_InitStructure);
 80069ea:	f7f9 fe57 	bl	800069c <HAL_GPIO_Init>
  MX_SPI3_Init();
 80069ee:	f7ff ffb3 	bl	8006958 <MX_SPI3_Init>
  HAL_NVIC_SetPriorityGrouping(NVIC_PRIORITYGROUP_4);
 80069f2:	2003      	movs	r0, #3
 80069f4:	f7f9 fdd4 	bl	80005a0 <HAL_NVIC_SetPriorityGrouping>
  HAL_NVIC_SetPriority(EXTI0_IRQn, 2, 0);
 80069f8:	4622      	mov	r2, r4
 80069fa:	2102      	movs	r1, #2
 80069fc:	2006      	movs	r0, #6
 80069fe:	f7f9 fde1 	bl	80005c4 <HAL_NVIC_SetPriority>
  HAL_NVIC_EnableIRQ(EXTI0_IRQn);
 8006a02:	2006      	movs	r0, #6
 8006a04:	f7f9 fe12 	bl	800062c <HAL_NVIC_EnableIRQ>
}
 8006a08:	b009      	add	sp, #36	; 0x24
 8006a0a:	bdf0      	pop	{r4, r5, r6, r7, pc}
 8006a0c:	40023800 	.word	0x40023800
 8006a10:	40020000 	.word	0x40020000
 8006a14:	10210000 	.word	0x10210000
 8006a18:	40020c00 	.word	0x40020c00

08006a1c <low_level_init>:
{
 8006a1c:	b538      	push	{r3, r4, r5, lr}
  netif->hwaddr_len = ETHARP_HWADDR_LEN;
 8006a1e:	2306      	movs	r3, #6
  EncHandle.Init.MACAddr = netif->hwaddr;
 8006a20:	4d19      	ldr	r5, [pc, #100]	; (8006a88 <low_level_init+0x6c>)
  netif->hwaddr_len = ETHARP_HWADDR_LEN;
 8006a22:	f880 302a 	strb.w	r3, [r0, #42]	; 0x2a
  netif->hwaddr[0] =  MAC_ADDR0;
 8006a26:	2302      	movs	r3, #2
 8006a28:	f880 302b 	strb.w	r3, [r0, #43]	; 0x2b
  netif->hwaddr[1] =  MAC_ADDR1;
 8006a2c:	2300      	movs	r3, #0
{
 8006a2e:	4604      	mov	r4, r0
  netif->hwaddr[1] =  MAC_ADDR1;
 8006a30:	f880 302c 	strb.w	r3, [r0, #44]	; 0x2c
  netif->hwaddr[2] =  MAC_ADDR2;
 8006a34:	f880 302d 	strb.w	r3, [r0, #45]	; 0x2d
  netif->hwaddr[3] =  MAC_ADDR3;
 8006a38:	f880 302e 	strb.w	r3, [r0, #46]	; 0x2e
  netif->hwaddr[4] =  MAC_ADDR4;
 8006a3c:	f880 302f 	strb.w	r3, [r0, #47]	; 0x2f
  netif->hwaddr[5] =  MAC_ADDR5;
 8006a40:	f880 3030 	strb.w	r3, [r0, #48]	; 0x30
  EncHandle.Init.MACAddr = netif->hwaddr;
 8006a44:	f100 022b 	add.w	r2, r0, #43	; 0x2b
  EncHandle.Init.DuplexMode = ETH_MODE_HALFDUPLEX;
 8006a48:	602b      	str	r3, [r5, #0]
  EncHandle.Init.ChecksumMode = ETH_CHECKSUM_BY_HARDWARE;
 8006a4a:	60ab      	str	r3, [r5, #8]
  ENC_MSPInit(&EncHandle);
 8006a4c:	4628      	mov	r0, r5
  EncHandle.Init.InterruptEnableBits =  EIE_LINKIE;
 8006a4e:	2310      	movs	r3, #16
 8006a50:	732b      	strb	r3, [r5, #12]
  EncHandle.Init.MACAddr = netif->hwaddr;
 8006a52:	606a      	str	r2, [r5, #4]
  ENC_MSPInit(&EncHandle);
 8006a54:	f7ff ff9a 	bl	800698c <ENC_MSPInit>
  netif->mtu = 1500;
 8006a58:	f240 53dc 	movw	r3, #1500	; 0x5dc
 8006a5c:	8523      	strh	r3, [r4, #40]	; 0x28
  netif->flags |= NETIF_FLAG_BROADCAST | NETIF_FLAG_ETHARP;
 8006a5e:	f894 3031 	ldrb.w	r3, [r4, #49]	; 0x31
 8006a62:	f043 0322 	orr.w	r3, r3, #34	; 0x22
 8006a66:	f884 3031 	strb.w	r3, [r4, #49]	; 0x31
  if (ENC_Start(&EncHandle)) {
 8006a6a:	4628      	mov	r0, r5
 8006a6c:	f7ff fd22 	bl	80064b4 <ENC_Start>
 8006a70:	b140      	cbz	r0, 8006a84 <low_level_init+0x68>
    ENC_SetMacAddr(&EncHandle);
 8006a72:	4628      	mov	r0, r5
 8006a74:	f7ff fe00 	bl	8006678 <ENC_SetMacAddr>
    netif->flags |= NETIF_FLAG_LINK_UP;
 8006a78:	f894 3031 	ldrb.w	r3, [r4, #49]	; 0x31
 8006a7c:	f043 0310 	orr.w	r3, r3, #16
 8006a80:	f884 3031 	strb.w	r3, [r4, #49]	; 0x31
 8006a84:	bd38      	pop	{r3, r4, r5, pc}
 8006a86:	bf00      	nop
 8006a88:	20004e7c 	.word	0x20004e7c

08006a8c <ethernetif_input>:
  * the appropriate input function is called.
  *
  * @param netif the lwip network interface structure for this ethernetif
  */
void ethernetif_input(struct netif *netif)
{
 8006a8c:	e92d 41f0 	stmdb	sp!, {r4, r5, r6, r7, r8, lr}
  if (!ENC_GetReceivedFrame(&EncHandle)) {
 8006a90:	4d13      	ldr	r5, [pc, #76]	; (8006ae0 <ethernetif_input+0x54>)
{
 8006a92:	4680      	mov	r8, r0
  if (!ENC_GetReceivedFrame(&EncHandle)) {
 8006a94:	4628      	mov	r0, r5
 8006a96:	f7ff fec4 	bl	8006822 <ENC_GetReceivedFrame>
 8006a9a:	b1d0      	cbz	r0, 8006ad2 <ethernetif_input+0x46>
  len = EncHandle.RxFrameInfos.length;
 8006a9c:	8d29      	ldrh	r1, [r5, #40]	; 0x28
  if (len > 0)
 8006a9e:	b1c1      	cbz	r1, 8006ad2 <ethernetif_input+0x46>
    p = pbuf_alloc(PBUF_RAW, len, PBUF_POOL);
 8006aa0:	2203      	movs	r2, #3
 8006aa2:	4610      	mov	r0, r2
 8006aa4:	f7fc fbd8 	bl	8003258 <pbuf_alloc>
  if (p != NULL)
 8006aa8:	4606      	mov	r6, r0
 8006aaa:	b190      	cbz	r0, 8006ad2 <ethernetif_input+0x46>
 8006aac:	4604      	mov	r4, r0
 8006aae:	2700      	movs	r7, #0
      memcpy( (uint8_t*)((uint8_t*)q->payload), (uint8_t*)((uint8_t*)buffer + bufferoffset), q->len);
 8006ab0:	352c      	adds	r5, #44	; 0x2c
 8006ab2:	8962      	ldrh	r2, [r4, #10]
 8006ab4:	6860      	ldr	r0, [r4, #4]
 8006ab6:	19e9      	adds	r1, r5, r7
 8006ab8:	f000 fcbd 	bl	8007436 <memcpy>
      bufferoffset = bufferoffset + q->len;
 8006abc:	8963      	ldrh	r3, [r4, #10]
    for(q = p; q != NULL; q = q->next)
 8006abe:	6824      	ldr	r4, [r4, #0]
      bufferoffset = bufferoffset + q->len;
 8006ac0:	441f      	add	r7, r3
    for(q = p; q != NULL; q = q->next)
 8006ac2:	2c00      	cmp	r4, #0
 8006ac4:	d1f5      	bne.n	8006ab2 <ethernetif_input+0x26>

  /* no packet could be read, silently ignore this */
  if (p == NULL) return;

  /* entry point to the LwIP stack */
  err = netif->input(p, netif);
 8006ac6:	f8d8 3010 	ldr.w	r3, [r8, #16]
 8006aca:	4641      	mov	r1, r8
 8006acc:	4630      	mov	r0, r6
 8006ace:	4798      	blx	r3

  if (err != ERR_OK)
 8006ad0:	b908      	cbnz	r0, 8006ad6 <ethernetif_input+0x4a>
 8006ad2:	e8bd 81f0 	ldmia.w	sp!, {r4, r5, r6, r7, r8, pc}
  {
    LWIP_DEBUGF(NETIF_DEBUG, ("ethernetif_input: IP input error\n"));
    pbuf_free(p);
 8006ad6:	4630      	mov	r0, r6
    p = NULL;
  }
}
 8006ad8:	e8bd 41f0 	ldmia.w	sp!, {r4, r5, r6, r7, r8, lr}
    pbuf_free(p);
 8006adc:	f7fc bb95 	b.w	800320a <pbuf_free>
 8006ae0:	20004e7c 	.word	0x20004e7c

08006ae4 <ethernetif_init>:
  * @return ERR_OK if the loopif is initialized
  *         ERR_MEM if private data couldn't be allocated
  *         any other err_t on error
  */
err_t ethernetif_init(struct netif *netif)
{
 8006ae4:	b508      	push	{r3, lr}
#if LWIP_NETIF_HOSTNAME
  /* Initialize interface hostname */
  netif->hostname = "stm32idisco";
#endif /* LWIP_NETIF_HOSTNAME */

  netif->name[0] = IFNAME0;
 8006ae6:	2265      	movs	r2, #101	; 0x65
 8006ae8:	f880 2032 	strb.w	r2, [r0, #50]	; 0x32
  netif->name[1] = IFNAME1;
 8006aec:	226e      	movs	r2, #110	; 0x6e
 8006aee:	f880 2033 	strb.w	r2, [r0, #51]	; 0x33
  /* We directly use etharp_output() here to save a function call.
   * You can instead declare your own function an call etharp_output()
   * from it if you have to do some checks before sending (e.g. if link
   * is available...) */
  netif->output = etharp_output;
 8006af2:	4a04      	ldr	r2, [pc, #16]	; (8006b04 <ethernetif_init+0x20>)
 8006af4:	6142      	str	r2, [r0, #20]
  netif->linkoutput = low_level_output;
 8006af6:	4a04      	ldr	r2, [pc, #16]	; (8006b08 <ethernetif_init+0x24>)
 8006af8:	6182      	str	r2, [r0, #24]

  /* initialize the hardware */
  low_level_init(netif);
 8006afa:	f7ff ff8f 	bl	8006a1c <low_level_init>

  return ERR_OK;
}
 8006afe:	2000      	movs	r0, #0
 8006b00:	bd08      	pop	{r3, pc}
 8006b02:	bf00      	nop
 8006b04:	08005fb9 	.word	0x08005fb9
 8006b08:	0800691d 	.word	0x0800691d

08006b0c <sys_now>:
  * @param  None
  * @retval Current Time value
  */
u32_t sys_now(void)
{
  return HAL_GetTick();
 8006b0c:	f7f9 bd2e 	b.w	800056c <HAL_GetTick>

08006b10 <ethernetif_set_link>:
  * @brief  This function sets the netif link status.
  * @param  netif: the network interface
  * @retval None
  */
void ethernetif_set_link(struct netif *netif)
{
 8006b10:	b538      	push	{r3, r4, r5, lr}
    /* Handle ENC28J60 interrupt */
    ENC_IRQHandler(&EncHandle);
 8006b12:	4d09      	ldr	r5, [pc, #36]	; (8006b38 <ethernetif_set_link+0x28>)
{
 8006b14:	4604      	mov	r4, r0
    ENC_IRQHandler(&EncHandle);
 8006b16:	4628      	mov	r0, r5
 8006b18:	f7ff fedc 	bl	80068d4 <ENC_IRQHandler>

    /* Check whether the link is up or down*/
    if(((EncHandle.LinkStatus) & PHSTAT2_LSTAT)!= 0) {
 8006b1c:	8aeb      	ldrh	r3, [r5, #22]
 8006b1e:	055b      	lsls	r3, r3, #21
      netif_set_link_up(netif);
 8006b20:	4620      	mov	r0, r4
    if(((EncHandle.LinkStatus) & PHSTAT2_LSTAT)!= 0) {
 8006b22:	d506      	bpl.n	8006b32 <ethernetif_set_link+0x22>
      netif_set_link_up(netif);
 8006b24:	f7fc faee 	bl	8003104 <netif_set_link_up>
    } else {
      netif_set_link_down(netif);
    }

    /* Reenable interrupts */
    ENC_EnableInterrupts(EIE_INTIE);
 8006b28:	2080      	movs	r0, #128	; 0x80
}
 8006b2a:	e8bd 4038 	ldmia.w	sp!, {r3, r4, r5, lr}
    ENC_EnableInterrupts(EIE_INTIE);
 8006b2e:	f7ff becd 	b.w	80068cc <ENC_EnableInterrupts>
      netif_set_link_down(netif);
 8006b32:	f7fc fb06 	bl	8003142 <netif_set_link_down>
 8006b36:	e7f7      	b.n	8006b28 <ethernetif_set_link+0x18>
 8006b38:	20004e7c 	.word	0x20004e7c

08006b3c <ethernetif_update_config>:
  *         to update low level driver configuration.
* @param  netif: The network interface
  * @retval None
  */
void ethernetif_update_config(struct netif *netif)
{
 8006b3c:	b510      	push	{r4, lr}
  if(netif_is_link_up(netif)) {
 8006b3e:	f890 3031 	ldrb.w	r3, [r0, #49]	; 0x31
 8006b42:	06db      	lsls	r3, r3, #27
{
 8006b44:	4604      	mov	r4, r0
  if(netif_is_link_up(netif)) {
 8006b46:	d501      	bpl.n	8006b4c <ethernetif_update_config+0x10>
      /* Restart the EN28J60 module */
      low_level_init(netif);
 8006b48:	f7ff ff68 	bl	8006a1c <low_level_init>
  }

  ethernetif_notify_conn_changed(netif);
 8006b4c:	4620      	mov	r0, r4
 8006b4e:	f7ff fb9b 	bl	8006288 <ethernetif_notify_conn_changed>
 8006b52:	bd10      	pop	{r4, pc}

08006b54 <ethernet_transmit>:
 */
void ethernet_transmit(void) {
#ifdef USE_PROTOTHREADS
    ENC_Transmit(&transmit_pt, &EncHandle);
#else
    ENC_Transmit(&EncHandle);
 8006b54:	4801      	ldr	r0, [pc, #4]	; (8006b5c <ethernet_transmit+0x8>)
 8006b56:	f7ff be12 	b.w	800677e <ENC_Transmit>
 8006b5a:	bf00      	nop
 8006b5c:	20004e7c 	.word	0x20004e7c

08006b60 <ENC_SPI_SendWithoutSelection>:
  * param  command: command or data to be sent to ENC28J60
  * retval answer from ENC28J60
  */

uint8_t ENC_SPI_SendWithoutSelection(uint8_t command)
{
 8006b60:	b51f      	push	{r0, r1, r2, r3, r4, lr}
 8006b62:	aa04      	add	r2, sp, #16
    HAL_SPI_TransmitReceive(&hspi3, &command, &command, 1, 1000);
 8006b64:	f44f 737a 	mov.w	r3, #1000	; 0x3e8
{
 8006b68:	f802 0d01 	strb.w	r0, [r2, #-1]!
    HAL_SPI_TransmitReceive(&hspi3, &command, &command, 1, 1000);
 8006b6c:	9300      	str	r3, [sp, #0]
 8006b6e:	4611      	mov	r1, r2
 8006b70:	2301      	movs	r3, #1
 8006b72:	4804      	ldr	r0, [pc, #16]	; (8006b84 <ENC_SPI_SendWithoutSelection+0x24>)
 8006b74:	f7fa fa8d 	bl	8001092 <HAL_SPI_TransmitReceive>
    return command;
}
 8006b78:	f89d 000f 	ldrb.w	r0, [sp, #15]
 8006b7c:	b005      	add	sp, #20
 8006b7e:	f85d fb04 	ldr.w	pc, [sp], #4
 8006b82:	bf00      	nop
 8006b84:	200055a4 	.word	0x200055a4

08006b88 <ENC_SPI_Send>:
  * param  command: command or data to be sent to ENC28J60
  * retval answer from ENC28J60
  */

uint8_t ENC_SPI_Send(uint8_t command)
{
 8006b88:	b530      	push	{r4, r5, lr}
 8006b8a:	b085      	sub	sp, #20
 8006b8c:	ac04      	add	r4, sp, #16
    /* Select ENC28J60 module */
    HAL_NVIC_DisableIRQ(EXTI0_IRQn);
    HAL_GPIO_WritePin(GPIOA, ENC_CS_PIN, GPIO_PIN_RESET);
 8006b8e:	4d14      	ldr	r5, [pc, #80]	; (8006be0 <ENC_SPI_Send+0x58>)
{
 8006b90:	f804 0d01 	strb.w	r0, [r4, #-1]!
    HAL_NVIC_DisableIRQ(EXTI0_IRQn);
 8006b94:	2006      	movs	r0, #6
 8006b96:	f7f9 fd57 	bl	8000648 <HAL_NVIC_DisableIRQ>
    HAL_GPIO_WritePin(GPIOA, ENC_CS_PIN, GPIO_PIN_RESET);
 8006b9a:	2200      	movs	r2, #0
 8006b9c:	f44f 4100 	mov.w	r1, #32768	; 0x8000
 8006ba0:	4628      	mov	r0, r5
 8006ba2:	f7f9 fe5b 	bl	800085c <HAL_GPIO_WritePin>
    up_udelay(1);
 8006ba6:	2001      	movs	r0, #1
 8006ba8:	f7ff fbd0 	bl	800634c <up_udelay>

    HAL_SPI_TransmitReceive(&hspi3, &command, &command, 1, 1000);
 8006bac:	f44f 737a 	mov.w	r3, #1000	; 0x3e8
 8006bb0:	9300      	str	r3, [sp, #0]
 8006bb2:	4622      	mov	r2, r4
 8006bb4:	2301      	movs	r3, #1
 8006bb6:	4621      	mov	r1, r4
 8006bb8:	480a      	ldr	r0, [pc, #40]	; (8006be4 <ENC_SPI_Send+0x5c>)
 8006bba:	f7fa fa6a 	bl	8001092 <HAL_SPI_TransmitReceive>

    /* De-select ENC28J60 module */
    HAL_GPIO_WritePin(GPIOA, ENC_CS_PIN, GPIO_PIN_SET);
 8006bbe:	2201      	movs	r2, #1
 8006bc0:	f44f 4100 	mov.w	r1, #32768	; 0x8000
 8006bc4:	4628      	mov	r0, r5
 8006bc6:	f7f9 fe49 	bl	800085c <HAL_GPIO_WritePin>
    up_udelay(1);
 8006bca:	2001      	movs	r0, #1
 8006bcc:	f7ff fbbe 	bl	800634c <up_udelay>

    HAL_NVIC_EnableIRQ(EXTI0_IRQn);
 8006bd0:	2006      	movs	r0, #6
 8006bd2:	f7f9 fd2b 	bl	800062c <HAL_NVIC_EnableIRQ>
    return command;
}
 8006bd6:	f89d 000f 	ldrb.w	r0, [sp, #15]
 8006bda:	b005      	add	sp, #20
 8006bdc:	bd30      	pop	{r4, r5, pc}
 8006bde:	bf00      	nop
 8006be0:	40020000 	.word	0x40020000
 8006be4:	200055a4 	.word	0x200055a4

08006be8 <ENC_SPI_SendBuf>:
  * param  slave2master: answer from ENC28J60 to host, can be NULL if we only want to send data to slave
  * retval none
  */

void ENC_SPI_SendBuf(uint8_t *master2slave, uint8_t *slave2master, uint16_t bufferSize)
{
 8006be8:	b573      	push	{r0, r1, r4, r5, r6, lr}
 8006bea:	4604      	mov	r4, r0
    /* Select ENC28J60 module */
    HAL_NVIC_DisableIRQ(EXTI0_IRQn);
 8006bec:	2006      	movs	r0, #6
{
 8006bee:	460d      	mov	r5, r1
 8006bf0:	4616      	mov	r6, r2
    HAL_NVIC_DisableIRQ(EXTI0_IRQn);
 8006bf2:	f7f9 fd29 	bl	8000648 <HAL_NVIC_DisableIRQ>
    HAL_GPIO_WritePin(GPIOA, ENC_CS_PIN, GPIO_PIN_RESET);
 8006bf6:	4819      	ldr	r0, [pc, #100]	; (8006c5c <ENC_SPI_SendBuf+0x74>)
 8006bf8:	2200      	movs	r2, #0
 8006bfa:	f44f 4100 	mov.w	r1, #32768	; 0x8000
 8006bfe:	f7f9 fe2d 	bl	800085c <HAL_GPIO_WritePin>
    up_udelay(1);
 8006c02:	2001      	movs	r0, #1
 8006c04:	f7ff fba2 	bl	800634c <up_udelay>

    /* Transmit or receuve data */
    if (slave2master == NULL) {
 8006c08:	b9b5      	cbnz	r5, 8006c38 <ENC_SPI_SendBuf+0x50>
        if (master2slave != NULL) {
 8006c0a:	b134      	cbz	r4, 8006c1a <ENC_SPI_SendBuf+0x32>
            HAL_SPI_Transmit(&hspi3, master2slave, bufferSize, 1000);
 8006c0c:	f44f 737a 	mov.w	r3, #1000	; 0x3e8
 8006c10:	4632      	mov	r2, r6
 8006c12:	4621      	mov	r1, r4
 8006c14:	4812      	ldr	r0, [pc, #72]	; (8006c60 <ENC_SPI_SendBuf+0x78>)
 8006c16:	f7fa f994 	bl	8000f42 <HAL_SPI_Transmit>
    } else {
        HAL_SPI_TransmitReceive(&hspi3, master2slave, slave2master, bufferSize, 1000);
    }

    /* De-select ENC28J60 module */
    HAL_GPIO_WritePin(GPIOA, ENC_CS_PIN, GPIO_PIN_SET);
 8006c1a:	2201      	movs	r2, #1
 8006c1c:	f44f 4100 	mov.w	r1, #32768	; 0x8000
 8006c20:	480e      	ldr	r0, [pc, #56]	; (8006c5c <ENC_SPI_SendBuf+0x74>)
 8006c22:	f7f9 fe1b 	bl	800085c <HAL_GPIO_WritePin>
    up_udelay(1);
 8006c26:	2001      	movs	r0, #1
 8006c28:	f7ff fb90 	bl	800634c <up_udelay>
    HAL_NVIC_EnableIRQ(EXTI0_IRQn);
 8006c2c:	2006      	movs	r0, #6
}
 8006c2e:	b002      	add	sp, #8
 8006c30:	e8bd 4070 	ldmia.w	sp!, {r4, r5, r6, lr}
    HAL_NVIC_EnableIRQ(EXTI0_IRQn);
 8006c34:	f7f9 bcfa 	b.w	800062c <HAL_NVIC_EnableIRQ>
        HAL_SPI_Receive(&hspi3, slave2master, bufferSize, 1000);
 8006c38:	f44f 737a 	mov.w	r3, #1000	; 0x3e8
    } else if (master2slave == NULL) {
 8006c3c:	b92c      	cbnz	r4, 8006c4a <ENC_SPI_SendBuf+0x62>
        HAL_SPI_Receive(&hspi3, slave2master, bufferSize, 1000);
 8006c3e:	4632      	mov	r2, r6
 8006c40:	4629      	mov	r1, r5
 8006c42:	4807      	ldr	r0, [pc, #28]	; (8006c60 <ENC_SPI_SendBuf+0x78>)
 8006c44:	f7fa fb15 	bl	8001272 <HAL_SPI_Receive>
 8006c48:	e7e7      	b.n	8006c1a <ENC_SPI_SendBuf+0x32>
        HAL_SPI_TransmitReceive(&hspi3, master2slave, slave2master, bufferSize, 1000);
 8006c4a:	9300      	str	r3, [sp, #0]
 8006c4c:	462a      	mov	r2, r5
 8006c4e:	4633      	mov	r3, r6
 8006c50:	4621      	mov	r1, r4
 8006c52:	4803      	ldr	r0, [pc, #12]	; (8006c60 <ENC_SPI_SendBuf+0x78>)
 8006c54:	f7fa fa1d 	bl	8001092 <HAL_SPI_TransmitReceive>
 8006c58:	e7df      	b.n	8006c1a <ENC_SPI_SendBuf+0x32>
 8006c5a:	bf00      	nop
 8006c5c:	40020000 	.word	0x40020000
 8006c60:	200055a4 	.word	0x200055a4

08006c64 <ENC_SPI_Select>:
  * param  select: true if the ENC28J60 slave SPI if selected, false otherwise
  * retval none
  */

void ENC_SPI_Select(bool select)
{
 8006c64:	b508      	push	{r3, lr}
    /* Select or de-select ENC28J60 module */
    if (select) {
 8006c66:	b168      	cbz	r0, 8006c84 <ENC_SPI_Select+0x20>
        HAL_NVIC_DisableIRQ(EXTI0_IRQn);
 8006c68:	2006      	movs	r0, #6
 8006c6a:	f7f9 fced 	bl	8000648 <HAL_NVIC_DisableIRQ>
        HAL_GPIO_WritePin(GPIOA, ENC_CS_PIN, GPIO_PIN_RESET);
 8006c6e:	480c      	ldr	r0, [pc, #48]	; (8006ca0 <ENC_SPI_Select+0x3c>)
 8006c70:	2200      	movs	r2, #0
 8006c72:	f44f 4100 	mov.w	r1, #32768	; 0x8000
 8006c76:	f7f9 fdf1 	bl	800085c <HAL_GPIO_WritePin>
        up_udelay(1);
 8006c7a:	2001      	movs	r0, #1
    } else {
        HAL_GPIO_WritePin(GPIOA, ENC_CS_PIN, GPIO_PIN_SET);
        up_udelay(1);
        HAL_NVIC_EnableIRQ(EXTI0_IRQn);
    }
}
 8006c7c:	e8bd 4008 	ldmia.w	sp!, {r3, lr}
        up_udelay(1);
 8006c80:	f7ff bb64 	b.w	800634c <up_udelay>
        HAL_GPIO_WritePin(GPIOA, ENC_CS_PIN, GPIO_PIN_SET);
 8006c84:	2201      	movs	r2, #1
 8006c86:	f44f 4100 	mov.w	r1, #32768	; 0x8000
 8006c8a:	4805      	ldr	r0, [pc, #20]	; (8006ca0 <ENC_SPI_Select+0x3c>)
 8006c8c:	f7f9 fde6 	bl	800085c <HAL_GPIO_WritePin>
        up_udelay(1);
 8006c90:	2001      	movs	r0, #1
 8006c92:	f7ff fb5b 	bl	800634c <up_udelay>
        HAL_NVIC_EnableIRQ(EXTI0_IRQn);
 8006c96:	2006      	movs	r0, #6
}
 8006c98:	e8bd 4008 	ldmia.w	sp!, {r3, lr}
        HAL_NVIC_EnableIRQ(EXTI0_IRQn);
 8006c9c:	f7f9 bcc6 	b.w	800062c <HAL_NVIC_EnableIRQ>
 8006ca0:	40020000 	.word	0x40020000

08006ca4 <SystemClock_Config>:
/**
  * @brief System Clock Configuration
  * @retval None
  */
void SystemClock_Config(void)
{
 8006ca4:	b530      	push	{r4, r5, lr}
 8006ca6:	b095      	sub	sp, #84	; 0x54
  RCC_OscInitTypeDef RCC_OscInitStruct = {0};
 8006ca8:	2230      	movs	r2, #48	; 0x30
 8006caa:	2100      	movs	r1, #0
 8006cac:	a808      	add	r0, sp, #32
 8006cae:	f000 fbcd 	bl	800744c <memset>
  RCC_ClkInitTypeDef RCC_ClkInitStruct = {0};
 8006cb2:	2100      	movs	r1, #0
 8006cb4:	2214      	movs	r2, #20
 8006cb6:	a803      	add	r0, sp, #12
 8006cb8:	f000 fbc8 	bl	800744c <memset>

  /** Configure the main internal regulator output voltage 
  */
  __HAL_RCC_PWR_CLK_ENABLE();
 8006cbc:	2400      	movs	r4, #0
 8006cbe:	4b1d      	ldr	r3, [pc, #116]	; (8006d34 <SystemClock_Config+0x90>)
 8006cc0:	9401      	str	r4, [sp, #4]
 8006cc2:	6c1a      	ldr	r2, [r3, #64]	; 0x40
 8006cc4:	f042 5280 	orr.w	r2, r2, #268435456	; 0x10000000
 8006cc8:	641a      	str	r2, [r3, #64]	; 0x40
 8006cca:	6c1b      	ldr	r3, [r3, #64]	; 0x40
 8006ccc:	f003 5380 	and.w	r3, r3, #268435456	; 0x10000000
 8006cd0:	9301      	str	r3, [sp, #4]
 8006cd2:	9b01      	ldr	r3, [sp, #4]
  __HAL_PWR_VOLTAGESCALING_CONFIG(PWR_REGULATOR_VOLTAGE_SCALE1);
 8006cd4:	4b18      	ldr	r3, [pc, #96]	; (8006d38 <SystemClock_Config+0x94>)
 8006cd6:	9402      	str	r4, [sp, #8]
 8006cd8:	681a      	ldr	r2, [r3, #0]
 8006cda:	f442 4280 	orr.w	r2, r2, #16384	; 0x4000
 8006cde:	601a      	str	r2, [r3, #0]
 8006ce0:	681b      	ldr	r3, [r3, #0]
 8006ce2:	f403 4380 	and.w	r3, r3, #16384	; 0x4000
 8006ce6:	9302      	str	r3, [sp, #8]
 8006ce8:	9b02      	ldr	r3, [sp, #8]
  /** Initializes the CPU, AHB and APB busses clocks 
  */
  RCC_OscInitStruct.OscillatorType = RCC_OSCILLATORTYPE_HSE;
 8006cea:	2301      	movs	r3, #1
 8006cec:	9308      	str	r3, [sp, #32]
  RCC_OscInitStruct.HSEState = RCC_HSE_ON;
 8006cee:	f44f 3380 	mov.w	r3, #65536	; 0x10000
 8006cf2:	9309      	str	r3, [sp, #36]	; 0x24
  RCC_OscInitStruct.PLL.PLLState = RCC_PLL_ON;
  RCC_OscInitStruct.PLL.PLLSource = RCC_PLLSOURCE_HSE;
 8006cf4:	f44f 0380 	mov.w	r3, #4194304	; 0x400000
 8006cf8:	930f      	str	r3, [sp, #60]	; 0x3c
  RCC_OscInitStruct.PLL.PLLM = 8;
 8006cfa:	2308      	movs	r3, #8
 8006cfc:	9310      	str	r3, [sp, #64]	; 0x40
  RCC_OscInitStruct.PLL.PLLN = 336;
 8006cfe:	f44f 73a8 	mov.w	r3, #336	; 0x150
  RCC_OscInitStruct.PLL.PLLState = RCC_PLL_ON;
 8006d02:	2502      	movs	r5, #2
  RCC_OscInitStruct.PLL.PLLN = 336;
 8006d04:	9311      	str	r3, [sp, #68]	; 0x44
  RCC_OscInitStruct.PLL.PLLP = RCC_PLLP_DIV2;
  RCC_OscInitStruct.PLL.PLLQ = 7;
  if (HAL_RCC_OscConfig(&RCC_OscInitStruct) != HAL_OK)
 8006d06:	a808      	add	r0, sp, #32
  RCC_OscInitStruct.PLL.PLLQ = 7;
 8006d08:	2307      	movs	r3, #7
 8006d0a:	9313      	str	r3, [sp, #76]	; 0x4c
  RCC_OscInitStruct.PLL.PLLState = RCC_PLL_ON;
 8006d0c:	950e      	str	r5, [sp, #56]	; 0x38
  RCC_OscInitStruct.PLL.PLLP = RCC_PLLP_DIV2;
 8006d0e:	9512      	str	r5, [sp, #72]	; 0x48
  if (HAL_RCC_OscConfig(&RCC_OscInitStruct) != HAL_OK)
 8006d10:	f7f9 fdb6 	bl	8000880 <HAL_RCC_OscConfig>
  {
    Error_Handler();
  }
  /** Initializes the CPU, AHB and APB busses clocks 
  */
  RCC_ClkInitStruct.ClockType = RCC_CLOCKTYPE_HCLK|RCC_CLOCKTYPE_SYSCLK
 8006d14:	230f      	movs	r3, #15
 8006d16:	9303      	str	r3, [sp, #12]
                              |RCC_CLOCKTYPE_PCLK1|RCC_CLOCKTYPE_PCLK2;
  RCC_ClkInitStruct.SYSCLKSource = RCC_SYSCLKSOURCE_PLLCLK;
  RCC_ClkInitStruct.AHBCLKDivider = RCC_SYSCLK_DIV1;
  RCC_ClkInitStruct.APB1CLKDivider = RCC_HCLK_DIV4;
 8006d18:	f44f 53a0 	mov.w	r3, #5120	; 0x1400
 8006d1c:	9306      	str	r3, [sp, #24]
  RCC_ClkInitStruct.APB2CLKDivider = RCC_HCLK_DIV2;

  if (HAL_RCC_ClockConfig(&RCC_ClkInitStruct, FLASH_LATENCY_5) != HAL_OK)
 8006d1e:	2105      	movs	r1, #5
  RCC_ClkInitStruct.APB2CLKDivider = RCC_HCLK_DIV2;
 8006d20:	f44f 5380 	mov.w	r3, #4096	; 0x1000
  if (HAL_RCC_ClockConfig(&RCC_ClkInitStruct, FLASH_LATENCY_5) != HAL_OK)
 8006d24:	a803      	add	r0, sp, #12
  RCC_ClkInitStruct.SYSCLKSource = RCC_SYSCLKSOURCE_PLLCLK;
 8006d26:	9504      	str	r5, [sp, #16]
  RCC_ClkInitStruct.AHBCLKDivider = RCC_SYSCLK_DIV1;
 8006d28:	9405      	str	r4, [sp, #20]
  RCC_ClkInitStruct.APB2CLKDivider = RCC_HCLK_DIV2;
 8006d2a:	9307      	str	r3, [sp, #28]
  if (HAL_RCC_ClockConfig(&RCC_ClkInitStruct, FLASH_LATENCY_5) != HAL_OK)
 8006d2c:	f7f9 ff7c 	bl	8000c28 <HAL_RCC_ClockConfig>
  {
    Error_Handler();
  }
}
 8006d30:	b015      	add	sp, #84	; 0x54
 8006d32:	bd30      	pop	{r4, r5, pc}
 8006d34:	40023800 	.word	0x40023800
 8006d38:	40007000 	.word	0x40007000

08006d3c <main>:
{
 8006d3c:	b500      	push	{lr}
 8006d3e:	b093      	sub	sp, #76	; 0x4c
  HAL_Init();
 8006d40:	f7f9 fbee 	bl	8000520 <HAL_Init>
  SystemClock_Config();
 8006d44:	f7ff ffae 	bl	8006ca4 <SystemClock_Config>
  * @param None
  * @retval None
  */
static void MX_GPIO_Init(void)
{
  GPIO_InitTypeDef GPIO_InitStruct = {0};
 8006d48:	2214      	movs	r2, #20
 8006d4a:	2100      	movs	r1, #0
 8006d4c:	a80d      	add	r0, sp, #52	; 0x34

  /* GPIO Ports Clock Enable */
  __HAL_RCC_GPIOH_CLK_ENABLE();
 8006d4e:	2400      	movs	r4, #0
  GPIO_InitTypeDef GPIO_InitStruct = {0};
 8006d50:	f000 fb7c 	bl	800744c <memset>
  __HAL_RCC_GPIOH_CLK_ENABLE();
 8006d54:	4b7b      	ldr	r3, [pc, #492]	; (8006f44 <main+0x208>)
 8006d56:	9406      	str	r4, [sp, #24]
 8006d58:	6b1a      	ldr	r2, [r3, #48]	; 0x30
  __HAL_RCC_GPIOD_CLK_ENABLE();
  __HAL_RCC_GPIOA_CLK_ENABLE();
  __HAL_RCC_GPIOC_CLK_ENABLE();

  /*Configure GPIO pin Output Level */
  HAL_GPIO_WritePin(GPIOD, GPIO_PIN_11|GPIO_PIN_12|GPIO_PIN_13|GPIO_PIN_14 
 8006d5a:	487b      	ldr	r0, [pc, #492]	; (8006f48 <main+0x20c>)
  __HAL_RCC_GPIOH_CLK_ENABLE();
 8006d5c:	f042 0280 	orr.w	r2, r2, #128	; 0x80
 8006d60:	631a      	str	r2, [r3, #48]	; 0x30
 8006d62:	6b1a      	ldr	r2, [r3, #48]	; 0x30
 8006d64:	f002 0280 	and.w	r2, r2, #128	; 0x80
 8006d68:	9206      	str	r2, [sp, #24]
 8006d6a:	9a06      	ldr	r2, [sp, #24]
  __HAL_RCC_GPIOB_CLK_ENABLE();
 8006d6c:	9407      	str	r4, [sp, #28]
 8006d6e:	6b1a      	ldr	r2, [r3, #48]	; 0x30
 8006d70:	f042 0202 	orr.w	r2, r2, #2
 8006d74:	631a      	str	r2, [r3, #48]	; 0x30
 8006d76:	6b1a      	ldr	r2, [r3, #48]	; 0x30
 8006d78:	f002 0202 	and.w	r2, r2, #2
 8006d7c:	9207      	str	r2, [sp, #28]
 8006d7e:	9a07      	ldr	r2, [sp, #28]
  __HAL_RCC_GPIOD_CLK_ENABLE();
 8006d80:	9408      	str	r4, [sp, #32]
 8006d82:	6b1a      	ldr	r2, [r3, #48]	; 0x30
 8006d84:	f042 0208 	orr.w	r2, r2, #8
 8006d88:	631a      	str	r2, [r3, #48]	; 0x30
 8006d8a:	6b1a      	ldr	r2, [r3, #48]	; 0x30
 8006d8c:	f002 0208 	and.w	r2, r2, #8
 8006d90:	9208      	str	r2, [sp, #32]
 8006d92:	9a08      	ldr	r2, [sp, #32]
  __HAL_RCC_GPIOA_CLK_ENABLE();
 8006d94:	9409      	str	r4, [sp, #36]	; 0x24
 8006d96:	6b1a      	ldr	r2, [r3, #48]	; 0x30
 8006d98:	f042 0201 	orr.w	r2, r2, #1
 8006d9c:	631a      	str	r2, [r3, #48]	; 0x30
 8006d9e:	6b1a      	ldr	r2, [r3, #48]	; 0x30
 8006da0:	f002 0201 	and.w	r2, r2, #1
 8006da4:	9209      	str	r2, [sp, #36]	; 0x24
 8006da6:	9a09      	ldr	r2, [sp, #36]	; 0x24
  __HAL_RCC_GPIOC_CLK_ENABLE();
 8006da8:	940a      	str	r4, [sp, #40]	; 0x28
 8006daa:	6b1a      	ldr	r2, [r3, #48]	; 0x30
 8006dac:	f042 0204 	orr.w	r2, r2, #4
 8006db0:	631a      	str	r2, [r3, #48]	; 0x30
 8006db2:	6b1b      	ldr	r3, [r3, #48]	; 0x30
 8006db4:	f003 0304 	and.w	r3, r3, #4
  HAL_GPIO_WritePin(GPIOD, GPIO_PIN_11|GPIO_PIN_12|GPIO_PIN_13|GPIO_PIN_14 
 8006db8:	4622      	mov	r2, r4
  __HAL_RCC_GPIOC_CLK_ENABLE();
 8006dba:	930a      	str	r3, [sp, #40]	; 0x28
  HAL_GPIO_WritePin(GPIOD, GPIO_PIN_11|GPIO_PIN_12|GPIO_PIN_13|GPIO_PIN_14 
 8006dbc:	f44f 4178 	mov.w	r1, #63488	; 0xf800
  __HAL_RCC_GPIOC_CLK_ENABLE();
 8006dc0:	9b0a      	ldr	r3, [sp, #40]	; 0x28
  HAL_GPIO_WritePin(GPIOD, GPIO_PIN_11|GPIO_PIN_12|GPIO_PIN_13|GPIO_PIN_14 
 8006dc2:	f7f9 fd4b 	bl	800085c <HAL_GPIO_WritePin>
                          |GPIO_PIN_15, GPIO_PIN_RESET);

  /*Configure GPIO pin Output Level */
  HAL_GPIO_WritePin(GPIOA, GPIO_PIN_15, GPIO_PIN_RESET);
 8006dc6:	4622      	mov	r2, r4
 8006dc8:	f44f 4100 	mov.w	r1, #32768	; 0x8000
 8006dcc:	485f      	ldr	r0, [pc, #380]	; (8006f4c <main+0x210>)
 8006dce:	f7f9 fd45 	bl	800085c <HAL_GPIO_WritePin>

  /*Configure GPIO pins : PD11 PD12 PD13 PD14 
                           PD15 */
  GPIO_InitStruct.Pin = GPIO_PIN_11|GPIO_PIN_12|GPIO_PIN_13|GPIO_PIN_14 
                          |GPIO_PIN_15;
  GPIO_InitStruct.Mode = GPIO_MODE_OUTPUT_PP;
 8006dd2:	2501      	movs	r5, #1
  GPIO_InitStruct.Pin = GPIO_PIN_11|GPIO_PIN_12|GPIO_PIN_13|GPIO_PIN_14 
 8006dd4:	f44f 4378 	mov.w	r3, #63488	; 0xf800
  GPIO_InitStruct.Pull = GPIO_NOPULL;
  GPIO_InitStruct.Speed = GPIO_SPEED_FREQ_LOW;
  HAL_GPIO_Init(GPIOD, &GPIO_InitStruct);
 8006dd8:	a90d      	add	r1, sp, #52	; 0x34
 8006dda:	485b      	ldr	r0, [pc, #364]	; (8006f48 <main+0x20c>)
  GPIO_InitStruct.Pin = GPIO_PIN_11|GPIO_PIN_12|GPIO_PIN_13|GPIO_PIN_14 
 8006ddc:	930d      	str	r3, [sp, #52]	; 0x34
  GPIO_InitStruct.Mode = GPIO_MODE_OUTPUT_PP;
 8006dde:	950e      	str	r5, [sp, #56]	; 0x38
  GPIO_InitStruct.Pull = GPIO_NOPULL;
 8006de0:	940f      	str	r4, [sp, #60]	; 0x3c
  GPIO_InitStruct.Speed = GPIO_SPEED_FREQ_LOW;
 8006de2:	9410      	str	r4, [sp, #64]	; 0x40
  HAL_GPIO_Init(GPIOD, &GPIO_InitStruct);
 8006de4:	f7f9 fc5a 	bl	800069c <HAL_GPIO_Init>

  /*Configure GPIO pin : PA15 */
  GPIO_InitStruct.Pin = GPIO_PIN_15;
 8006de8:	f44f 4300 	mov.w	r3, #32768	; 0x8000
  GPIO_InitStruct.Mode = GPIO_MODE_OUTPUT_PP;
  GPIO_InitStruct.Pull = GPIO_NOPULL;
  GPIO_InitStruct.Speed = GPIO_SPEED_FREQ_LOW;
  HAL_GPIO_Init(GPIOA, &GPIO_InitStruct);
 8006dec:	a90d      	add	r1, sp, #52	; 0x34
 8006dee:	4857      	ldr	r0, [pc, #348]	; (8006f4c <main+0x210>)
  GPIO_InitStruct.Pin = GPIO_PIN_15;
 8006df0:	930d      	str	r3, [sp, #52]	; 0x34
  GPIO_InitStruct.Mode = GPIO_MODE_OUTPUT_PP;
 8006df2:	950e      	str	r5, [sp, #56]	; 0x38
  GPIO_InitStruct.Pull = GPIO_NOPULL;
 8006df4:	940f      	str	r4, [sp, #60]	; 0x3c
  GPIO_InitStruct.Speed = GPIO_SPEED_FREQ_LOW;
 8006df6:	9410      	str	r4, [sp, #64]	; 0x40
  HAL_GPIO_Init(GPIOA, &GPIO_InitStruct);
 8006df8:	f7f9 fc50 	bl	800069c <HAL_GPIO_Init>

  /*Configure GPIO pin : PD0 */
  GPIO_InitStruct.Pin = GPIO_PIN_0;
  GPIO_InitStruct.Mode = GPIO_MODE_IT_RISING;
 8006dfc:	4b54      	ldr	r3, [pc, #336]	; (8006f50 <main+0x214>)
  GPIO_InitStruct.Pull = GPIO_NOPULL;
  HAL_GPIO_Init(GPIOD, &GPIO_InitStruct);
 8006dfe:	4852      	ldr	r0, [pc, #328]	; (8006f48 <main+0x20c>)
  GPIO_InitStruct.Mode = GPIO_MODE_IT_RISING;
 8006e00:	930e      	str	r3, [sp, #56]	; 0x38
  HAL_GPIO_Init(GPIOD, &GPIO_InitStruct);
 8006e02:	a90d      	add	r1, sp, #52	; 0x34
  GPIO_InitStruct.Pin = GPIO_PIN_0;
 8006e04:	950d      	str	r5, [sp, #52]	; 0x34
  GPIO_InitStruct.Pull = GPIO_NOPULL;
 8006e06:	940f      	str	r4, [sp, #60]	; 0x3c
  HAL_GPIO_Init(GPIOD, &GPIO_InitStruct);
 8006e08:	f7f9 fc48 	bl	800069c <HAL_GPIO_Init>

  /* EXTI interrupt init*/
  HAL_NVIC_SetPriority(EXTI0_IRQn, 0, 0);
 8006e0c:	4621      	mov	r1, r4
 8006e0e:	4622      	mov	r2, r4
 8006e10:	2006      	movs	r0, #6
 8006e12:	f7f9 fbd7 	bl	80005c4 <HAL_NVIC_SetPriority>
  HAL_NVIC_EnableIRQ(EXTI0_IRQn);
 8006e16:	2006      	movs	r0, #6
 8006e18:	f7f9 fc08 	bl	800062c <HAL_NVIC_EnableIRQ>
  hspi3.Instance = SPI3;
 8006e1c:	484d      	ldr	r0, [pc, #308]	; (8006f54 <main+0x218>)
  hspi3.Init.Mode = SPI_MODE_MASTER;
 8006e1e:	4a4e      	ldr	r2, [pc, #312]	; (8006f58 <main+0x21c>)
  htim3.Instance = TIM3;
 8006e20:	4d4e      	ldr	r5, [pc, #312]	; (8006f5c <main+0x220>)
  hspi3.Init.Direction = SPI_DIRECTION_2LINES;
 8006e22:	6084      	str	r4, [r0, #8]
  hspi3.Init.Mode = SPI_MODE_MASTER;
 8006e24:	f44f 7382 	mov.w	r3, #260	; 0x104
 8006e28:	e880 000c 	stmia.w	r0, {r2, r3}
  hspi3.Init.NSS = SPI_NSS_SOFT;
 8006e2c:	f44f 7300 	mov.w	r3, #512	; 0x200
 8006e30:	6183      	str	r3, [r0, #24]
  hspi3.Init.BaudRatePrescaler = SPI_BAUDRATEPRESCALER_4;
 8006e32:	2308      	movs	r3, #8
 8006e34:	61c3      	str	r3, [r0, #28]
  hspi3.Init.CRCPolynomial = 10;
 8006e36:	230a      	movs	r3, #10
 8006e38:	62c3      	str	r3, [r0, #44]	; 0x2c
  hspi3.Init.DataSize = SPI_DATASIZE_8BIT;
 8006e3a:	60c4      	str	r4, [r0, #12]
  hspi3.Init.CLKPolarity = SPI_POLARITY_LOW;
 8006e3c:	6104      	str	r4, [r0, #16]
  hspi3.Init.CLKPhase = SPI_PHASE_1EDGE;
 8006e3e:	6144      	str	r4, [r0, #20]
  hspi3.Init.FirstBit = SPI_FIRSTBIT_MSB;
 8006e40:	6204      	str	r4, [r0, #32]
  hspi3.Init.TIMode = SPI_TIMODE_DISABLE;
 8006e42:	6244      	str	r4, [r0, #36]	; 0x24
  hspi3.Init.CRCCalculation = SPI_CRCCALCULATION_DISABLE;
 8006e44:	6284      	str	r4, [r0, #40]	; 0x28
  if (HAL_SPI_Init(&hspi3) != HAL_OK)
 8006e46:	f7fa f83f 	bl	8000ec8 <HAL_SPI_Init>
  TIM_ClockConfigTypeDef sClockSourceConfig = {0};
 8006e4a:	2210      	movs	r2, #16
 8006e4c:	4621      	mov	r1, r4
 8006e4e:	a80d      	add	r0, sp, #52	; 0x34
 8006e50:	f000 fafc 	bl	800744c <memset>
  htim3.Instance = TIM3;
 8006e54:	4b42      	ldr	r3, [pc, #264]	; (8006f60 <main+0x224>)
  htim3.Init.CounterMode = TIM_COUNTERMODE_UP;
 8006e56:	60ac      	str	r4, [r5, #8]
  if (HAL_TIM_Base_Init(&htim3) != HAL_OK)
 8006e58:	4628      	mov	r0, r5
  htim3.Init.Prescaler = 0;
 8006e5a:	e885 0018 	stmia.w	r5, {r3, r4}
  htim3.Init.Period = 0;
 8006e5e:	60ec      	str	r4, [r5, #12]
  htim3.Init.ClockDivision = TIM_CLOCKDIVISION_DIV1;
 8006e60:	612c      	str	r4, [r5, #16]
  htim3.Init.AutoReloadPreload = TIM_AUTORELOAD_PRELOAD_DISABLE;
 8006e62:	61ac      	str	r4, [r5, #24]
  TIM_MasterConfigTypeDef sMasterConfig = {0};
 8006e64:	940b      	str	r4, [sp, #44]	; 0x2c
 8006e66:	940c      	str	r4, [sp, #48]	; 0x30
  sClockSourceConfig.ClockSource = TIM_CLOCKSOURCE_INTERNAL;
 8006e68:	f44f 5680 	mov.w	r6, #4096	; 0x1000
  if (HAL_TIM_Base_Init(&htim3) != HAL_OK)
 8006e6c:	f7fa fba6 	bl	80015bc <HAL_TIM_Base_Init>
  if (HAL_TIM_ConfigClockSource(&htim3, &sClockSourceConfig) != HAL_OK)
 8006e70:	a90d      	add	r1, sp, #52	; 0x34
 8006e72:	4628      	mov	r0, r5
  sClockSourceConfig.ClockSource = TIM_CLOCKSOURCE_INTERNAL;
 8006e74:	960d      	str	r6, [sp, #52]	; 0x34
  if (HAL_TIM_ConfigClockSource(&htim3, &sClockSourceConfig) != HAL_OK)
 8006e76:	f7fa fbc5 	bl	8001604 <HAL_TIM_ConfigClockSource>
  if (HAL_TIMEx_MasterConfigSynchronization(&htim3, &sMasterConfig) != HAL_OK)
 8006e7a:	a90b      	add	r1, sp, #44	; 0x2c
 8006e7c:	4628      	mov	r0, r5
  sMasterConfig.MasterOutputTrigger = TIM_TRGO_RESET;
 8006e7e:	940b      	str	r4, [sp, #44]	; 0x2c
  htim4.Instance = TIM4;
 8006e80:	4d38      	ldr	r5, [pc, #224]	; (8006f64 <main+0x228>)
  sMasterConfig.MasterSlaveMode = TIM_MASTERSLAVEMODE_DISABLE;
 8006e82:	940c      	str	r4, [sp, #48]	; 0x30
  if (HAL_TIMEx_MasterConfigSynchronization(&htim3, &sMasterConfig) != HAL_OK)
 8006e84:	f7fa fc52 	bl	800172c <HAL_TIMEx_MasterConfigSynchronization>
  TIM_ClockConfigTypeDef sClockSourceConfig = {0};
 8006e88:	2210      	movs	r2, #16
 8006e8a:	4621      	mov	r1, r4
 8006e8c:	a80d      	add	r0, sp, #52	; 0x34
 8006e8e:	f000 fadd 	bl	800744c <memset>
  htim4.Instance = TIM4;
 8006e92:	4b35      	ldr	r3, [pc, #212]	; (8006f68 <main+0x22c>)
  htim4.Init.CounterMode = TIM_COUNTERMODE_UP;
 8006e94:	60ac      	str	r4, [r5, #8]
  if (HAL_TIM_Base_Init(&htim4) != HAL_OK)
 8006e96:	4628      	mov	r0, r5
  htim4.Init.Prescaler = 0;
 8006e98:	e885 0018 	stmia.w	r5, {r3, r4}
  htim4.Init.Period = 0;
 8006e9c:	60ec      	str	r4, [r5, #12]
  htim4.Init.ClockDivision = TIM_CLOCKDIVISION_DIV1;
 8006e9e:	612c      	str	r4, [r5, #16]
  htim4.Init.AutoReloadPreload = TIM_AUTORELOAD_PRELOAD_DISABLE;
 8006ea0:	61ac      	str	r4, [r5, #24]
  TIM_MasterConfigTypeDef sMasterConfig = {0};
 8006ea2:	940b      	str	r4, [sp, #44]	; 0x2c
 8006ea4:	940c      	str	r4, [sp, #48]	; 0x30
  if (HAL_TIM_Base_Init(&htim4) != HAL_OK)
 8006ea6:	f7fa fb89 	bl	80015bc <HAL_TIM_Base_Init>
  if (HAL_TIM_ConfigClockSource(&htim4, &sClockSourceConfig) != HAL_OK)
 8006eaa:	a90d      	add	r1, sp, #52	; 0x34
 8006eac:	4628      	mov	r0, r5
  sClockSourceConfig.ClockSource = TIM_CLOCKSOURCE_INTERNAL;
 8006eae:	960d      	str	r6, [sp, #52]	; 0x34
  if (HAL_TIM_ConfigClockSource(&htim4, &sClockSourceConfig) != HAL_OK)
 8006eb0:	f7fa fba8 	bl	8001604 <HAL_TIM_ConfigClockSource>
  if (HAL_TIMEx_MasterConfigSynchronization(&htim4, &sMasterConfig) != HAL_OK)
 8006eb4:	a90b      	add	r1, sp, #44	; 0x2c
 8006eb6:	4628      	mov	r0, r5
  sMasterConfig.MasterOutputTrigger = TIM_TRGO_RESET;
 8006eb8:	940b      	str	r4, [sp, #44]	; 0x2c
  sMasterConfig.MasterSlaveMode = TIM_MASTERSLAVEMODE_DISABLE;
 8006eba:	940c      	str	r4, [sp, #48]	; 0x30
  if (HAL_TIMEx_MasterConfigSynchronization(&htim4, &sMasterConfig) != HAL_OK)
 8006ebc:	f7fa fc36 	bl	800172c <HAL_TIMEx_MasterConfigSynchronization>
  huart3.Instance = USART3;
 8006ec0:	482a      	ldr	r0, [pc, #168]	; (8006f6c <main+0x230>)
  huart3.Init.BaudRate = 115200;
 8006ec2:	492b      	ldr	r1, [pc, #172]	; (8006f70 <main+0x234>)
  huart3.Init.WordLength = UART_WORDLENGTH_8B;
 8006ec4:	6084      	str	r4, [r0, #8]
  huart3.Init.BaudRate = 115200;
 8006ec6:	f44f 33e1 	mov.w	r3, #115200	; 0x1c200
 8006eca:	e880 000a 	stmia.w	r0, {r1, r3}
  huart3.Init.Mode = UART_MODE_TX_RX;
 8006ece:	230c      	movs	r3, #12
 8006ed0:	6143      	str	r3, [r0, #20]
  huart3.Init.StopBits = UART_STOPBITS_1;
 8006ed2:	60c4      	str	r4, [r0, #12]
  huart3.Init.Parity = UART_PARITY_NONE;
 8006ed4:	6104      	str	r4, [r0, #16]
  huart3.Init.HwFlowCtl = UART_HWCONTROL_NONE;
 8006ed6:	6184      	str	r4, [r0, #24]
  huart3.Init.OverSampling = UART_OVERSAMPLING_16;
 8006ed8:	61c4      	str	r4, [r0, #28]
  if (HAL_UART_Init(&huart3) != HAL_OK)
 8006eda:	f7fa fcd9 	bl	8001890 <HAL_UART_Init>
  lwip_init();
 8006ede:	f7fb f95b 	bl	8002198 <lwip_init>
{
  struct ip_addr ipaddr;
  struct ip_addr netmask;
  struct ip_addr gw;

  IP4_ADDR(&ipaddr, IP_ADDR0, IP_ADDR1, IP_ADDR2, IP_ADDR3);
 8006ee2:	4b24      	ldr	r3, [pc, #144]	; (8006f74 <main+0x238>)
 8006ee4:	9305      	str	r3, [sp, #20]
  IP4_ADDR(&netmask, NETMASK_ADDR0, NETMASK_ADDR1 , NETMASK_ADDR2, NETMASK_ADDR3);
 8006ee6:	f64f 73ff 	movw	r3, #65535	; 0xffff
  IP4_ADDR(&gw, GW_ADDR0, GW_ADDR1, GW_ADDR2, GW_ADDR3);

  /* add the network interface */
  netif_add(&gnetif, &ipaddr, &netmask, &gw, NULL, &ethernetif_init, &ethernet_input);
 8006eea:	4d23      	ldr	r5, [pc, #140]	; (8006f78 <main+0x23c>)
  IP4_ADDR(&netmask, NETMASK_ADDR0, NETMASK_ADDR1 , NETMASK_ADDR2, NETMASK_ADDR3);
 8006eec:	930b      	str	r3, [sp, #44]	; 0x2c
  netif_add(&gnetif, &ipaddr, &netmask, &gw, NULL, &ethernetif_init, &ethernet_input);
 8006eee:	4b23      	ldr	r3, [pc, #140]	; (8006f7c <main+0x240>)
 8006ef0:	9302      	str	r3, [sp, #8]
 8006ef2:	4b23      	ldr	r3, [pc, #140]	; (8006f80 <main+0x244>)
 8006ef4:	9301      	str	r3, [sp, #4]
 8006ef6:	9400      	str	r4, [sp, #0]
 8006ef8:	ab0d      	add	r3, sp, #52	; 0x34
 8006efa:	aa0b      	add	r2, sp, #44	; 0x2c
 8006efc:	a905      	add	r1, sp, #20
 8006efe:	4628      	mov	r0, r5
  IP4_ADDR(&gw, GW_ADDR0, GW_ADDR1, GW_ADDR2, GW_ADDR3);
 8006f00:	940d      	str	r4, [sp, #52]	; 0x34
  netif_add(&gnetif, &ipaddr, &netmask, &gw, NULL, &ethernetif_init, &ethernet_input);
 8006f02:	f7fc f8ab 	bl	800305c <netif_add>

  /*  Registers the default network interface */
  netif_set_default(&gnetif);
 8006f06:	4628      	mov	r0, r5
 8006f08:	f7fc f8d8 	bl	80030bc <netif_set_default>

  if (netif_is_link_up(&gnetif))
 8006f0c:	f895 3031 	ldrb.w	r3, [r5, #49]	; 0x31
 8006f10:	06dc      	lsls	r4, r3, #27
  {
    /* When the netif is fully configured this function must be called */
    netif_set_up(&gnetif);
 8006f12:	4628      	mov	r0, r5
  if (netif_is_link_up(&gnetif))
 8006f14:	d513      	bpl.n	8006f3e <main+0x202>
    netif_set_up(&gnetif);
 8006f16:	f7fc f8d7 	bl	80030c8 <netif_set_up>
    /* When the netif link is down this function must be called */
    netif_set_down(&gnetif);
  }

  /* Set the link callback function, this function is called on change of link status*/
  netif_set_link_callback(&gnetif, ethernetif_update_config);
 8006f1a:	491a      	ldr	r1, [pc, #104]	; (8006f84 <main+0x248>)
 8006f1c:	4816      	ldr	r0, [pc, #88]	; (8006f78 <main+0x23c>)
	    ethernetif_input(&gnetif);
 8006f1e:	4c16      	ldr	r4, [pc, #88]	; (8006f78 <main+0x23c>)
  netif_set_link_callback(&gnetif, ethernetif_update_config);
 8006f20:	f7fc f91b 	bl	800315a <netif_set_link_callback>
   tcp_echoserver_init();
 8006f24:	f000 fa08 	bl	8007338 <tcp_echoserver_init>
   User_notification(&gnetif);
 8006f28:	4813      	ldr	r0, [pc, #76]	; (8006f78 <main+0x23c>)
 8006f2a:	f7ff f99d 	bl	8006268 <User_notification>
	    ethernetif_input(&gnetif);
 8006f2e:	4620      	mov	r0, r4
 8006f30:	f7ff fdac 	bl	8006a8c <ethernetif_input>
	    ethernet_transmit();
 8006f34:	f7ff fe0e 	bl	8006b54 <ethernet_transmit>
	    sys_check_timeouts();
 8006f38:	f7fe fcd6 	bl	80058e8 <sys_check_timeouts>
 8006f3c:	e7f7      	b.n	8006f2e <main+0x1f2>
    netif_set_down(&gnetif);
 8006f3e:	f7fc f8d4 	bl	80030ea <netif_set_down>
 8006f42:	e7ea      	b.n	8006f1a <main+0x1de>
 8006f44:	40023800 	.word	0x40023800
 8006f48:	40020c00 	.word	0x40020c00
 8006f4c:	40020000 	.word	0x40020000
 8006f50:	10110000 	.word	0x10110000
 8006f54:	200055a4 	.word	0x200055a4
 8006f58:	40003c00 	.word	0x40003c00
 8006f5c:	20005564 	.word	0x20005564
 8006f60:	40000400 	.word	0x40000400
 8006f64:	200054ac 	.word	0x200054ac
 8006f68:	40000800 	.word	0x40000800
 8006f6c:	200054ec 	.word	0x200054ec
 8006f70:	40004800 	.word	0x40004800
 8006f74:	0cc1fea9 	.word	0x0cc1fea9
 8006f78:	2000552c 	.word	0x2000552c
 8006f7c:	080060a9 	.word	0x080060a9
 8006f80:	08006ae5 	.word	0x08006ae5
 8006f84:	08006b3d 	.word	0x08006b3d

08006f88 <HAL_GPIO_EXTI_Callback>:
}
void HAL_GPIO_EXTI_Callback(uint16_t GPIO_Pin)
{
//  /* Get the IT status register value */
//  if(BSP_IO_ITGetStatus(MII_INT_PIN))
  if (GPIO_Pin == ENC_INT_PIN)
 8006f88:	2801      	cmp	r0, #1
 8006f8a:	d102      	bne.n	8006f92 <HAL_GPIO_EXTI_Callback+0xa>
  {
    ethernetif_set_link(&gnetif);
 8006f8c:	4801      	ldr	r0, [pc, #4]	; (8006f94 <HAL_GPIO_EXTI_Callback+0xc>)
 8006f8e:	f7ff bdbf 	b.w	8006b10 <ethernetif_set_link>
 8006f92:	4770      	bx	lr
 8006f94:	2000552c 	.word	0x2000552c

08006f98 <HAL_MspInit>:
/* USER CODE END 0 */
/**
  * Initializes the Global MSP.
  */
void HAL_MspInit(void)
{
 8006f98:	b507      	push	{r0, r1, r2, lr}
  /* USER CODE BEGIN MspInit 0 */

  /* USER CODE END MspInit 0 */

  __HAL_RCC_SYSCFG_CLK_ENABLE();
 8006f9a:	4b0e      	ldr	r3, [pc, #56]	; (8006fd4 <HAL_MspInit+0x3c>)
 8006f9c:	2100      	movs	r1, #0
 8006f9e:	9100      	str	r1, [sp, #0]
 8006fa0:	6c5a      	ldr	r2, [r3, #68]	; 0x44
 8006fa2:	f442 4280 	orr.w	r2, r2, #16384	; 0x4000
 8006fa6:	645a      	str	r2, [r3, #68]	; 0x44
 8006fa8:	6c5a      	ldr	r2, [r3, #68]	; 0x44
 8006faa:	f402 4280 	and.w	r2, r2, #16384	; 0x4000
 8006fae:	9200      	str	r2, [sp, #0]
 8006fb0:	9a00      	ldr	r2, [sp, #0]
  __HAL_RCC_PWR_CLK_ENABLE();
 8006fb2:	9101      	str	r1, [sp, #4]
 8006fb4:	6c1a      	ldr	r2, [r3, #64]	; 0x40
 8006fb6:	f042 5280 	orr.w	r2, r2, #268435456	; 0x10000000
 8006fba:	641a      	str	r2, [r3, #64]	; 0x40
 8006fbc:	6c1b      	ldr	r3, [r3, #64]	; 0x40
 8006fbe:	f003 5380 	and.w	r3, r3, #268435456	; 0x10000000
 8006fc2:	9301      	str	r3, [sp, #4]

  HAL_NVIC_SetPriorityGrouping(NVIC_PRIORITYGROUP_0);
 8006fc4:	2007      	movs	r0, #7
  __HAL_RCC_PWR_CLK_ENABLE();
 8006fc6:	9b01      	ldr	r3, [sp, #4]
  HAL_NVIC_SetPriorityGrouping(NVIC_PRIORITYGROUP_0);
 8006fc8:	f7f9 faea 	bl	80005a0 <HAL_NVIC_SetPriorityGrouping>
  /* System interrupt init*/

  /* USER CODE BEGIN MspInit 1 */

  /* USER CODE END MspInit 1 */
}
 8006fcc:	b003      	add	sp, #12
 8006fce:	f85d fb04 	ldr.w	pc, [sp], #4
 8006fd2:	bf00      	nop
 8006fd4:	40023800 	.word	0x40023800

08006fd8 <HAL_SPI_MspInit>:
* This function configures the hardware resources used in this example
* @param hspi: SPI handle pointer
* @retval None
*/
void HAL_SPI_MspInit(SPI_HandleTypeDef* hspi)
{
 8006fd8:	b510      	push	{r4, lr}
 8006fda:	4604      	mov	r4, r0
 8006fdc:	b088      	sub	sp, #32
  GPIO_InitTypeDef GPIO_InitStruct = {0};
 8006fde:	2214      	movs	r2, #20
 8006fe0:	2100      	movs	r1, #0
 8006fe2:	a803      	add	r0, sp, #12
 8006fe4:	f000 fa32 	bl	800744c <memset>
  if(hspi->Instance==SPI3)
 8006fe8:	6822      	ldr	r2, [r4, #0]
 8006fea:	4b14      	ldr	r3, [pc, #80]	; (800703c <HAL_SPI_MspInit+0x64>)
 8006fec:	429a      	cmp	r2, r3
 8006fee:	d123      	bne.n	8007038 <HAL_SPI_MspInit+0x60>
  {
  /* USER CODE BEGIN SPI3_MspInit 0 */

  /* USER CODE END SPI3_MspInit 0 */
    /* Peripheral clock enable */
    __HAL_RCC_SPI3_CLK_ENABLE();
 8006ff0:	f503 33fe 	add.w	r3, r3, #130048	; 0x1fc00
 8006ff4:	2100      	movs	r1, #0
 8006ff6:	9101      	str	r1, [sp, #4]
 8006ff8:	6c1a      	ldr	r2, [r3, #64]	; 0x40
    GPIO_InitStruct.Pin = GPIO_PIN_10|GPIO_PIN_11|GPIO_PIN_12;
    GPIO_InitStruct.Mode = GPIO_MODE_AF_PP;
    GPIO_InitStruct.Pull = GPIO_NOPULL;
    GPIO_InitStruct.Speed = GPIO_SPEED_FREQ_VERY_HIGH;
    GPIO_InitStruct.Alternate = GPIO_AF6_SPI3;
    HAL_GPIO_Init(GPIOC, &GPIO_InitStruct);
 8006ffa:	4811      	ldr	r0, [pc, #68]	; (8007040 <HAL_SPI_MspInit+0x68>)
    __HAL_RCC_SPI3_CLK_ENABLE();
 8006ffc:	f442 4200 	orr.w	r2, r2, #32768	; 0x8000
 8007000:	641a      	str	r2, [r3, #64]	; 0x40
 8007002:	6c1a      	ldr	r2, [r3, #64]	; 0x40
 8007004:	f402 4200 	and.w	r2, r2, #32768	; 0x8000
 8007008:	9201      	str	r2, [sp, #4]
 800700a:	9a01      	ldr	r2, [sp, #4]
    __HAL_RCC_GPIOC_CLK_ENABLE();
 800700c:	9102      	str	r1, [sp, #8]
 800700e:	6b1a      	ldr	r2, [r3, #48]	; 0x30
 8007010:	f042 0204 	orr.w	r2, r2, #4
 8007014:	631a      	str	r2, [r3, #48]	; 0x30
 8007016:	6b1b      	ldr	r3, [r3, #48]	; 0x30
 8007018:	f003 0304 	and.w	r3, r3, #4
 800701c:	9302      	str	r3, [sp, #8]
 800701e:	9b02      	ldr	r3, [sp, #8]
    GPIO_InitStruct.Pin = GPIO_PIN_10|GPIO_PIN_11|GPIO_PIN_12;
 8007020:	f44f 53e0 	mov.w	r3, #7168	; 0x1c00
 8007024:	9303      	str	r3, [sp, #12]
    GPIO_InitStruct.Mode = GPIO_MODE_AF_PP;
 8007026:	2302      	movs	r3, #2
 8007028:	9304      	str	r3, [sp, #16]
    GPIO_InitStruct.Speed = GPIO_SPEED_FREQ_VERY_HIGH;
 800702a:	2303      	movs	r3, #3
 800702c:	9306      	str	r3, [sp, #24]
    HAL_GPIO_Init(GPIOC, &GPIO_InitStruct);
 800702e:	a903      	add	r1, sp, #12
    GPIO_InitStruct.Alternate = GPIO_AF6_SPI3;
 8007030:	2306      	movs	r3, #6
 8007032:	9307      	str	r3, [sp, #28]
    HAL_GPIO_Init(GPIOC, &GPIO_InitStruct);
 8007034:	f7f9 fb32 	bl	800069c <HAL_GPIO_Init>
  /* USER CODE BEGIN SPI3_MspInit 1 */

  /* USER CODE END SPI3_MspInit 1 */
  }

}
 8007038:	b008      	add	sp, #32
 800703a:	bd10      	pop	{r4, pc}
 800703c:	40003c00 	.word	0x40003c00
 8007040:	40020800 	.word	0x40020800

08007044 <HAL_TIM_Base_MspInit>:
* This function configures the hardware resources used in this example
* @param htim_base: TIM_Base handle pointer
* @retval None
*/
void HAL_TIM_Base_MspInit(TIM_HandleTypeDef* htim_base)
{
 8007044:	b507      	push	{r0, r1, r2, lr}
  if(htim_base->Instance==TIM3)
 8007046:	6803      	ldr	r3, [r0, #0]
 8007048:	4a16      	ldr	r2, [pc, #88]	; (80070a4 <HAL_TIM_Base_MspInit+0x60>)
 800704a:	4293      	cmp	r3, r2
 800704c:	d115      	bne.n	800707a <HAL_TIM_Base_MspInit+0x36>
  {
  /* USER CODE BEGIN TIM3_MspInit 0 */

  /* USER CODE END TIM3_MspInit 0 */
    /* Peripheral clock enable */
    __HAL_RCC_TIM3_CLK_ENABLE();
 800704e:	2200      	movs	r2, #0
 8007050:	4b15      	ldr	r3, [pc, #84]	; (80070a8 <HAL_TIM_Base_MspInit+0x64>)
 8007052:	9200      	str	r2, [sp, #0]
 8007054:	6c19      	ldr	r1, [r3, #64]	; 0x40
 8007056:	f041 0102 	orr.w	r1, r1, #2
 800705a:	6419      	str	r1, [r3, #64]	; 0x40
 800705c:	6c1b      	ldr	r3, [r3, #64]	; 0x40
 800705e:	f003 0302 	and.w	r3, r3, #2
 8007062:	9300      	str	r3, [sp, #0]
    /* TIM3 interrupt Init */
    HAL_NVIC_SetPriority(TIM3_IRQn, 0, 0);
 8007064:	201d      	movs	r0, #29
 8007066:	4611      	mov	r1, r2
    __HAL_RCC_TIM3_CLK_ENABLE();
 8007068:	9b00      	ldr	r3, [sp, #0]
    HAL_NVIC_SetPriority(TIM3_IRQn, 0, 0);
 800706a:	f7f9 faab 	bl	80005c4 <HAL_NVIC_SetPriority>
    HAL_NVIC_EnableIRQ(TIM3_IRQn);
 800706e:	201d      	movs	r0, #29
  /* USER CODE END TIM4_MspInit 0 */
    /* Peripheral clock enable */
    __HAL_RCC_TIM4_CLK_ENABLE();
    /* TIM4 interrupt Init */
    HAL_NVIC_SetPriority(TIM4_IRQn, 0, 0);
    HAL_NVIC_EnableIRQ(TIM4_IRQn);
 8007070:	f7f9 fadc 	bl	800062c <HAL_NVIC_EnableIRQ>
  /* USER CODE BEGIN TIM4_MspInit 1 */

  /* USER CODE END TIM4_MspInit 1 */
  }

}
 8007074:	b003      	add	sp, #12
 8007076:	f85d fb04 	ldr.w	pc, [sp], #4
  else if(htim_base->Instance==TIM4)
 800707a:	4a0c      	ldr	r2, [pc, #48]	; (80070ac <HAL_TIM_Base_MspInit+0x68>)
 800707c:	4293      	cmp	r3, r2
 800707e:	d1f9      	bne.n	8007074 <HAL_TIM_Base_MspInit+0x30>
    __HAL_RCC_TIM4_CLK_ENABLE();
 8007080:	2200      	movs	r2, #0
 8007082:	4b09      	ldr	r3, [pc, #36]	; (80070a8 <HAL_TIM_Base_MspInit+0x64>)
 8007084:	9201      	str	r2, [sp, #4]
 8007086:	6c19      	ldr	r1, [r3, #64]	; 0x40
 8007088:	f041 0104 	orr.w	r1, r1, #4
 800708c:	6419      	str	r1, [r3, #64]	; 0x40
 800708e:	6c1b      	ldr	r3, [r3, #64]	; 0x40
 8007090:	f003 0304 	and.w	r3, r3, #4
 8007094:	9301      	str	r3, [sp, #4]
    HAL_NVIC_SetPriority(TIM4_IRQn, 0, 0);
 8007096:	201e      	movs	r0, #30
 8007098:	4611      	mov	r1, r2
    __HAL_RCC_TIM4_CLK_ENABLE();
 800709a:	9b01      	ldr	r3, [sp, #4]
    HAL_NVIC_SetPriority(TIM4_IRQn, 0, 0);
 800709c:	f7f9 fa92 	bl	80005c4 <HAL_NVIC_SetPriority>
    HAL_NVIC_EnableIRQ(TIM4_IRQn);
 80070a0:	201e      	movs	r0, #30
 80070a2:	e7e5      	b.n	8007070 <HAL_TIM_Base_MspInit+0x2c>
 80070a4:	40000400 	.word	0x40000400
 80070a8:	40023800 	.word	0x40023800
 80070ac:	40000800 	.word	0x40000800

080070b0 <HAL_UART_MspInit>:
* This function configures the hardware resources used in this example
* @param huart: UART handle pointer
* @retval None
*/
void HAL_UART_MspInit(UART_HandleTypeDef* huart)
{
 80070b0:	b510      	push	{r4, lr}
 80070b2:	4604      	mov	r4, r0
 80070b4:	b088      	sub	sp, #32
  GPIO_InitTypeDef GPIO_InitStruct = {0};
 80070b6:	2214      	movs	r2, #20
 80070b8:	2100      	movs	r1, #0
 80070ba:	a803      	add	r0, sp, #12
 80070bc:	f000 f9c6 	bl	800744c <memset>
  if(huart->Instance==USART3)
 80070c0:	6822      	ldr	r2, [r4, #0]
 80070c2:	4b14      	ldr	r3, [pc, #80]	; (8007114 <HAL_UART_MspInit+0x64>)
 80070c4:	429a      	cmp	r2, r3
 80070c6:	d123      	bne.n	8007110 <HAL_UART_MspInit+0x60>
  {
  /* USER CODE BEGIN USART3_MspInit 0 */

  /* USER CODE END USART3_MspInit 0 */
    /* Peripheral clock enable */
    __HAL_RCC_USART3_CLK_ENABLE();
 80070c8:	f503 33f8 	add.w	r3, r3, #126976	; 0x1f000
 80070cc:	2100      	movs	r1, #0
 80070ce:	9101      	str	r1, [sp, #4]
 80070d0:	6c1a      	ldr	r2, [r3, #64]	; 0x40
    GPIO_InitStruct.Pin = GPIO_PIN_10|GPIO_PIN_11;
    GPIO_InitStruct.Mode = GPIO_MODE_AF_PP;
    GPIO_InitStruct.Pull = GPIO_NOPULL;
    GPIO_InitStruct.Speed = GPIO_SPEED_FREQ_VERY_HIGH;
    GPIO_InitStruct.Alternate = GPIO_AF7_USART3;
    HAL_GPIO_Init(GPIOB, &GPIO_InitStruct);
 80070d2:	4811      	ldr	r0, [pc, #68]	; (8007118 <HAL_UART_MspInit+0x68>)
    __HAL_RCC_USART3_CLK_ENABLE();
 80070d4:	f442 2280 	orr.w	r2, r2, #262144	; 0x40000
 80070d8:	641a      	str	r2, [r3, #64]	; 0x40
 80070da:	6c1a      	ldr	r2, [r3, #64]	; 0x40
 80070dc:	f402 2280 	and.w	r2, r2, #262144	; 0x40000
 80070e0:	9201      	str	r2, [sp, #4]
 80070e2:	9a01      	ldr	r2, [sp, #4]
    __HAL_RCC_GPIOB_CLK_ENABLE();
 80070e4:	9102      	str	r1, [sp, #8]
 80070e6:	6b1a      	ldr	r2, [r3, #48]	; 0x30
 80070e8:	f042 0202 	orr.w	r2, r2, #2
 80070ec:	631a      	str	r2, [r3, #48]	; 0x30
 80070ee:	6b1b      	ldr	r3, [r3, #48]	; 0x30
 80070f0:	f003 0302 	and.w	r3, r3, #2
 80070f4:	9302      	str	r3, [sp, #8]
 80070f6:	9b02      	ldr	r3, [sp, #8]
    GPIO_InitStruct.Pin = GPIO_PIN_10|GPIO_PIN_11;
 80070f8:	f44f 6340 	mov.w	r3, #3072	; 0xc00
 80070fc:	9303      	str	r3, [sp, #12]
    GPIO_InitStruct.Mode = GPIO_MODE_AF_PP;
 80070fe:	2302      	movs	r3, #2
 8007100:	9304      	str	r3, [sp, #16]
    GPIO_InitStruct.Speed = GPIO_SPEED_FREQ_VERY_HIGH;
 8007102:	2303      	movs	r3, #3
 8007104:	9306      	str	r3, [sp, #24]
    HAL_GPIO_Init(GPIOB, &GPIO_InitStruct);
 8007106:	a903      	add	r1, sp, #12
    GPIO_InitStruct.Alternate = GPIO_AF7_USART3;
 8007108:	2307      	movs	r3, #7
 800710a:	9307      	str	r3, [sp, #28]
    HAL_GPIO_Init(GPIOB, &GPIO_InitStruct);
 800710c:	f7f9 fac6 	bl	800069c <HAL_GPIO_Init>
  /* USER CODE BEGIN USART3_MspInit 1 */

  /* USER CODE END USART3_MspInit 1 */
  }

}
 8007110:	b008      	add	sp, #32
 8007112:	bd10      	pop	{r4, pc}
 8007114:	40004800 	.word	0x40004800
 8007118:	40020400 	.word	0x40020400

0800711c <NMI_Handler>:
 800711c:	4770      	bx	lr

0800711e <HardFault_Handler>:

/**
  * @brief This function handles Hard fault interrupt.
  */
void HardFault_Handler(void)
{
 800711e:	e7fe      	b.n	800711e <HardFault_Handler>

08007120 <MemManage_Handler>:

/**
  * @brief This function handles Memory management fault.
  */
void MemManage_Handler(void)
{
 8007120:	e7fe      	b.n	8007120 <MemManage_Handler>

08007122 <BusFault_Handler>:

/**
  * @brief This function handles Pre-fetch fault, memory access fault.
  */
void BusFault_Handler(void)
{
 8007122:	e7fe      	b.n	8007122 <BusFault_Handler>

08007124 <UsageFault_Handler>:

/**
  * @brief This function handles Undefined instruction or illegal state.
  */
void UsageFault_Handler(void)
{
 8007124:	e7fe      	b.n	8007124 <UsageFault_Handler>

08007126 <SVC_Handler>:
 8007126:	4770      	bx	lr

08007128 <DebugMon_Handler>:
 8007128:	4770      	bx	lr

0800712a <PendSV_Handler>:

/**
  * @brief This function handles Pendable request for system service.
  */
void PendSV_Handler(void)
{
 800712a:	4770      	bx	lr

0800712c <SysTick_Handler>:
void SysTick_Handler(void)
{
  /* USER CODE BEGIN SysTick_IRQn 0 */

  /* USER CODE END SysTick_IRQn 0 */
  HAL_IncTick();
 800712c:	f7f9 ba12 	b.w	8000554 <HAL_IncTick>

08007130 <EXTI0_IRQHandler>:
void EXTI0_IRQHandler(void)
{
  /* USER CODE BEGIN EXTI0_IRQn 0 */

  /* USER CODE END EXTI0_IRQn 0 */
  HAL_GPIO_EXTI_IRQHandler(GPIO_PIN_0);
 8007130:	2001      	movs	r0, #1
 8007132:	f7f9 bb99 	b.w	8000868 <HAL_GPIO_EXTI_IRQHandler>
	...

08007138 <TIM3_IRQHandler>:
void TIM3_IRQHandler(void)
{
  /* USER CODE BEGIN TIM3_IRQn 0 */

  /* USER CODE END TIM3_IRQn 0 */
  HAL_TIM_IRQHandler(&htim3);
 8007138:	4801      	ldr	r0, [pc, #4]	; (8007140 <TIM3_IRQHandler+0x8>)
 800713a:	f7fa b936 	b.w	80013aa <HAL_TIM_IRQHandler>
 800713e:	bf00      	nop
 8007140:	20005564 	.word	0x20005564

08007144 <TIM4_IRQHandler>:
void TIM4_IRQHandler(void)
{
  /* USER CODE BEGIN TIM4_IRQn 0 */

  /* USER CODE END TIM4_IRQn 0 */
  HAL_TIM_IRQHandler(&htim4);
 8007144:	4801      	ldr	r0, [pc, #4]	; (800714c <TIM4_IRQHandler+0x8>)
 8007146:	f7fa b930 	b.w	80013aa <HAL_TIM_IRQHandler>
 800714a:	bf00      	nop
 800714c:	200054ac 	.word	0x200054ac

08007150 <SystemInit>:
  */
void SystemInit(void)
{
  /* FPU settings ------------------------------------------------------------*/
  #if (__FPU_PRESENT == 1) && (__FPU_USED == 1)
    SCB->CPACR |= ((3UL << 10*2)|(3UL << 11*2));  /* set CP10 and CP11 Full Access */
 8007150:	4b05      	ldr	r3, [pc, #20]	; (8007168 <SystemInit+0x18>)
 8007152:	f8d3 2088 	ldr.w	r2, [r3, #136]	; 0x88
 8007156:	f442 0270 	orr.w	r2, r2, #15728640	; 0xf00000
 800715a:	f8c3 2088 	str.w	r2, [r3, #136]	; 0x88

  /* Configure the Vector Table location add offset address ------------------*/
#ifdef VECT_TAB_SRAM
  SCB->VTOR = SRAM_BASE | VECT_TAB_OFFSET; /* Vector Table Relocation in Internal SRAM */
#else
  SCB->VTOR = FLASH_BASE | VECT_TAB_OFFSET; /* Vector Table Relocation in Internal FLASH */
 800715e:	f04f 6200 	mov.w	r2, #134217728	; 0x8000000
 8007162:	609a      	str	r2, [r3, #8]
 8007164:	4770      	bx	lr
 8007166:	bf00      	nop
 8007168:	e000ed00 	.word	0xe000ed00

0800716c <tcp_echoserver_error>:
  struct tcp_echoserver_struct *es;

  LWIP_UNUSED_ARG(err);

  es = (struct tcp_echoserver_struct *)arg;
  if (es != NULL)
 800716c:	b108      	cbz	r0, 8007172 <tcp_echoserver_error+0x6>
  {
    /*  free es structure */
    mem_free(es);
 800716e:	f7fb bdff 	b.w	8002d70 <mem_free>
 8007172:	4770      	bx	lr

08007174 <tcp_echoserver_connection_close>:
  * @param  tcp_pcb: pointer on the tcp connection
  * @param  es: pointer on echo_state structure
  * @retval None
  */
static void tcp_echoserver_connection_close(struct tcp_pcb *tpcb, struct tcp_echoserver_struct *es)
{
 8007174:	b538      	push	{r3, r4, r5, lr}
 8007176:	4604      	mov	r4, r0
 8007178:	460d      	mov	r5, r1
  
  /* remove all callbacks */
  tcp_arg(tpcb, NULL);
 800717a:	2100      	movs	r1, #0
 800717c:	f7fc fafa 	bl	8003774 <tcp_arg>
  tcp_sent(tpcb, NULL);
 8007180:	2100      	movs	r1, #0
 8007182:	4620      	mov	r0, r4
 8007184:	f7fc fafa 	bl	800377c <tcp_sent>
  tcp_recv(tpcb, NULL);
 8007188:	2100      	movs	r1, #0
 800718a:	4620      	mov	r0, r4
 800718c:	f7fc faf4 	bl	8003778 <tcp_recv>
  tcp_err(tpcb, NULL);
 8007190:	2100      	movs	r1, #0
 8007192:	4620      	mov	r0, r4
 8007194:	f7fc faf4 	bl	8003780 <tcp_err>
  tcp_poll(tpcb, NULL, 0);
 8007198:	2200      	movs	r2, #0
 800719a:	4611      	mov	r1, r2
 800719c:	4620      	mov	r0, r4
 800719e:	f7fc faf4 	bl	800378a <tcp_poll>
  
  /* delete es structure */
  if (es != NULL)
 80071a2:	b115      	cbz	r5, 80071aa <tcp_echoserver_connection_close+0x36>
  {
    mem_free(es);
 80071a4:	4628      	mov	r0, r5
 80071a6:	f7fb fde3 	bl	8002d70 <mem_free>
  }  
  
  /* close tcp connection */
  tcp_close(tpcb);
 80071aa:	4620      	mov	r0, r4
}
 80071ac:	e8bd 4038 	ldmia.w	sp!, {r3, r4, r5, lr}
  tcp_close(tpcb);
 80071b0:	f7fc bd42 	b.w	8003c38 <tcp_close>

080071b4 <tcp_echoserver_accept>:
{
 80071b4:	b570      	push	{r4, r5, r6, lr}
 80071b6:	460c      	mov	r4, r1
  tcp_setprio(newpcb, TCP_PRIO_MIN);
 80071b8:	4620      	mov	r0, r4
 80071ba:	2101      	movs	r1, #1
 80071bc:	f7fc fad8 	bl	8003770 <tcp_setprio>
  es = (struct tcp_echoserver_struct *)mem_malloc(sizeof(struct tcp_echoserver_struct));
 80071c0:	200c      	movs	r0, #12
 80071c2:	f7fb fe6f 	bl	8002ea4 <mem_malloc>
  if (es != NULL)
 80071c6:	4601      	mov	r1, r0
 80071c8:	b1b0      	cbz	r0, 80071f8 <tcp_echoserver_accept+0x44>
    es->state = ES_ACCEPTED;
 80071ca:	2601      	movs	r6, #1
    es->p = NULL;
 80071cc:	2500      	movs	r5, #0
    es->state = ES_ACCEPTED;
 80071ce:	7006      	strb	r6, [r0, #0]
    es->pcb = newpcb;
 80071d0:	6044      	str	r4, [r0, #4]
    es->p = NULL;
 80071d2:	6085      	str	r5, [r0, #8]
    tcp_arg(newpcb, es);
 80071d4:	4620      	mov	r0, r4
 80071d6:	f7fc facd 	bl	8003774 <tcp_arg>
    tcp_recv(newpcb, tcp_echoserver_recv);
 80071da:	4620      	mov	r0, r4
 80071dc:	4909      	ldr	r1, [pc, #36]	; (8007204 <tcp_echoserver_accept+0x50>)
 80071de:	f7fc facb 	bl	8003778 <tcp_recv>
    tcp_err(newpcb, tcp_echoserver_error);
 80071e2:	4620      	mov	r0, r4
 80071e4:	4908      	ldr	r1, [pc, #32]	; (8007208 <tcp_echoserver_accept+0x54>)
 80071e6:	f7fc facb 	bl	8003780 <tcp_err>
    tcp_poll(newpcb, tcp_echoserver_poll, 1);
 80071ea:	4620      	mov	r0, r4
 80071ec:	4632      	mov	r2, r6
 80071ee:	4907      	ldr	r1, [pc, #28]	; (800720c <tcp_echoserver_accept+0x58>)
 80071f0:	f7fc facb 	bl	800378a <tcp_poll>
    ret_err = ERR_OK;
 80071f4:	4628      	mov	r0, r5
 80071f6:	bd70      	pop	{r4, r5, r6, pc}
    tcp_echoserver_connection_close(newpcb, es);
 80071f8:	4620      	mov	r0, r4
 80071fa:	f7ff ffbb 	bl	8007174 <tcp_echoserver_connection_close>
    ret_err = ERR_MEM;
 80071fe:	f04f 30ff 	mov.w	r0, #4294967295
}
 8007202:	bd70      	pop	{r4, r5, r6, pc}
 8007204:	08007289 	.word	0x08007289
 8007208:	0800716d 	.word	0x0800716d
 800720c:	08007257 	.word	0x08007257

08007210 <tcp_echoserver_send.isra.0>:
static void tcp_echoserver_send(struct tcp_pcb *tpcb, struct tcp_echoserver_struct *es)
 8007210:	b5f8      	push	{r3, r4, r5, r6, r7, lr}
 8007212:	4605      	mov	r5, r0
 8007214:	460e      	mov	r6, r1
         (es->p != NULL) && 
 8007216:	6834      	ldr	r4, [r6, #0]
  while ((wr_err == ERR_OK) &&
 8007218:	b124      	cbz	r4, 8007224 <tcp_echoserver_send.isra.0+0x14>
         (es->p->len <= tcp_sndbuf(tpcb)))
 800721a:	8962      	ldrh	r2, [r4, #10]
         (es->p != NULL) && 
 800721c:	f8b5 3066 	ldrh.w	r3, [r5, #102]	; 0x66
 8007220:	4293      	cmp	r3, r2
 8007222:	d200      	bcs.n	8007226 <tcp_echoserver_send.isra.0+0x16>
 8007224:	bdf8      	pop	{r3, r4, r5, r6, r7, pc}
    wr_err = tcp_write(tpcb, ptr->payload, ptr->len, 1);
 8007226:	2301      	movs	r3, #1
 8007228:	6861      	ldr	r1, [r4, #4]
 800722a:	4628      	mov	r0, r5
 800722c:	f7fd fdf0 	bl	8004e10 <tcp_write>
    if (wr_err == ERR_OK)
 8007230:	b968      	cbnz	r0, 800724e <tcp_echoserver_send.isra.0+0x3e>
      es->p = ptr->next;
 8007232:	6820      	ldr	r0, [r4, #0]
      plen = ptr->len;
 8007234:	8967      	ldrh	r7, [r4, #10]
      es->p = ptr->next;
 8007236:	6030      	str	r0, [r6, #0]
      if(es->p != NULL)
 8007238:	b108      	cbz	r0, 800723e <tcp_echoserver_send.isra.0+0x2e>
        pbuf_ref(es->p);
 800723a:	f7fc f8be 	bl	80033ba <pbuf_ref>
      pbuf_free(ptr);
 800723e:	4620      	mov	r0, r4
 8007240:	f7fb ffe3 	bl	800320a <pbuf_free>
      tcp_recved(tpcb, plen);
 8007244:	4639      	mov	r1, r7
 8007246:	4628      	mov	r0, r5
 8007248:	f7fc fa61 	bl	800370e <tcp_recved>
 800724c:	e7e3      	b.n	8007216 <tcp_echoserver_send.isra.0+0x6>
   else if(wr_err == ERR_MEM)
 800724e:	3001      	adds	r0, #1
 8007250:	d1e8      	bne.n	8007224 <tcp_echoserver_send.isra.0+0x14>
     es->p = ptr;
 8007252:	6034      	str	r4, [r6, #0]
 8007254:	bdf8      	pop	{r3, r4, r5, r6, r7, pc}

08007256 <tcp_echoserver_poll>:
{
 8007256:	460b      	mov	r3, r1
 8007258:	b510      	push	{r4, lr}
  if (es != NULL)
 800725a:	4601      	mov	r1, r0
 800725c:	b170      	cbz	r0, 800727c <tcp_echoserver_poll+0x26>
    if (es->p != NULL)
 800725e:	6884      	ldr	r4, [r0, #8]
 8007260:	b12c      	cbz	r4, 800726e <tcp_echoserver_poll+0x18>
      tcp_echoserver_send(tpcb, es);
 8007262:	3108      	adds	r1, #8
 8007264:	4618      	mov	r0, r3
 8007266:	f7ff ffd3 	bl	8007210 <tcp_echoserver_send.isra.0>
    ret_err = ERR_OK;
 800726a:	2000      	movs	r0, #0
 800726c:	bd10      	pop	{r4, pc}
      if(es->state == ES_CLOSING)
 800726e:	7802      	ldrb	r2, [r0, #0]
 8007270:	2a03      	cmp	r2, #3
 8007272:	d1fa      	bne.n	800726a <tcp_echoserver_poll+0x14>
        tcp_echoserver_connection_close(tpcb, es);
 8007274:	4618      	mov	r0, r3
 8007276:	f7ff ff7d 	bl	8007174 <tcp_echoserver_connection_close>
 800727a:	e7f6      	b.n	800726a <tcp_echoserver_poll+0x14>
    tcp_abort(tpcb);
 800727c:	4618      	mov	r0, r3
 800727e:	f7fc fdbd 	bl	8003dfc <tcp_abort>
    ret_err = ERR_ABRT;
 8007282:	f06f 0009 	mvn.w	r0, #9
 8007286:	bd10      	pop	{r4, pc}

08007288 <tcp_echoserver_recv>:
{
 8007288:	b5f8      	push	{r3, r4, r5, r6, r7, lr}
 800728a:	4604      	mov	r4, r0
 800728c:	460f      	mov	r7, r1
 800728e:	461e      	mov	r6, r3
  if (p == NULL)
 8007290:	4615      	mov	r5, r2
 8007292:	b9a2      	cbnz	r2, 80072be <tcp_echoserver_recv+0x36>
    if(es->p == NULL)
 8007294:	6886      	ldr	r6, [r0, #8]
    es->state = ES_CLOSING;
 8007296:	2303      	movs	r3, #3
 8007298:	7003      	strb	r3, [r0, #0]
    if(es->p == NULL)
 800729a:	b92e      	cbnz	r6, 80072a8 <tcp_echoserver_recv+0x20>
       tcp_echoserver_connection_close(tpcb, es);
 800729c:	4601      	mov	r1, r0
 800729e:	4638      	mov	r0, r7
 80072a0:	f7ff ff68 	bl	8007174 <tcp_echoserver_connection_close>
}
 80072a4:	4630      	mov	r0, r6
 80072a6:	bdf8      	pop	{r3, r4, r5, r6, r7, pc}
      tcp_sent(tpcb, tcp_echoserver_sent);
 80072a8:	4919      	ldr	r1, [pc, #100]	; (8007310 <tcp_echoserver_recv+0x88>)
 80072aa:	4638      	mov	r0, r7
 80072ac:	f7fc fa66 	bl	800377c <tcp_sent>
      tcp_echoserver_send(tpcb, es);
 80072b0:	f104 0108 	add.w	r1, r4, #8
 80072b4:	4638      	mov	r0, r7
 80072b6:	f7ff ffab 	bl	8007210 <tcp_echoserver_send.isra.0>
    ret_err = ERR_OK;
 80072ba:	462e      	mov	r6, r5
 80072bc:	e7f2      	b.n	80072a4 <tcp_echoserver_recv+0x1c>
  else if(err != ERR_OK)
 80072be:	b12b      	cbz	r3, 80072cc <tcp_echoserver_recv+0x44>
      es->p = NULL;
 80072c0:	2300      	movs	r3, #0
 80072c2:	6083      	str	r3, [r0, #8]
    pbuf_free(p);
 80072c4:	4628      	mov	r0, r5
 80072c6:	f7fb ffa0 	bl	800320a <pbuf_free>
 80072ca:	e7eb      	b.n	80072a4 <tcp_echoserver_recv+0x1c>
  else if(es->state == ES_ACCEPTED)
 80072cc:	7803      	ldrb	r3, [r0, #0]
 80072ce:	2b01      	cmp	r3, #1
 80072d0:	d10c      	bne.n	80072ec <tcp_echoserver_recv+0x64>
    es->state = ES_RECEIVED;
 80072d2:	2302      	movs	r3, #2
 80072d4:	7003      	strb	r3, [r0, #0]
    es->p = p;
 80072d6:	f844 2f08 	str.w	r2, [r4, #8]!
    tcp_sent(tpcb, tcp_echoserver_sent);
 80072da:	490d      	ldr	r1, [pc, #52]	; (8007310 <tcp_echoserver_recv+0x88>)
 80072dc:	4638      	mov	r0, r7
 80072de:	f7fc fa4d 	bl	800377c <tcp_sent>
    tcp_echoserver_send(tpcb, es);
 80072e2:	4621      	mov	r1, r4
      tcp_echoserver_send(tpcb, es);
 80072e4:	4638      	mov	r0, r7
 80072e6:	f7ff ff93 	bl	8007210 <tcp_echoserver_send.isra.0>
 80072ea:	e7db      	b.n	80072a4 <tcp_echoserver_recv+0x1c>
  else if (es->state == ES_RECEIVED)
 80072ec:	2b02      	cmp	r3, #2
 80072ee:	d109      	bne.n	8007304 <tcp_echoserver_recv+0x7c>
    if(es->p == NULL)
 80072f0:	6880      	ldr	r0, [r0, #8]
 80072f2:	b918      	cbnz	r0, 80072fc <tcp_echoserver_recv+0x74>
      es->p = p;
 80072f4:	4621      	mov	r1, r4
 80072f6:	f841 2f08 	str.w	r2, [r1, #8]!
 80072fa:	e7f3      	b.n	80072e4 <tcp_echoserver_recv+0x5c>
      pbuf_chain(ptr,p);
 80072fc:	4611      	mov	r1, r2
 80072fe:	f7fc f86f 	bl	80033e0 <pbuf_chain>
 8007302:	e7cf      	b.n	80072a4 <tcp_echoserver_recv+0x1c>
    tcp_recved(tpcb, p->tot_len);
 8007304:	8911      	ldrh	r1, [r2, #8]
 8007306:	4638      	mov	r0, r7
 8007308:	f7fc fa01 	bl	800370e <tcp_recved>
    es->p = NULL;
 800730c:	60a6      	str	r6, [r4, #8]
 800730e:	e7d9      	b.n	80072c4 <tcp_echoserver_recv+0x3c>
 8007310:	08007315 	.word	0x08007315

08007314 <tcp_echoserver_sent>:
{
 8007314:	b508      	push	{r3, lr}
 8007316:	4603      	mov	r3, r0
 8007318:	4608      	mov	r0, r1
  if(es->p != NULL)
 800731a:	689a      	ldr	r2, [r3, #8]
 800731c:	b12a      	cbz	r2, 800732a <tcp_echoserver_sent+0x16>
    tcp_echoserver_send(tpcb, es);
 800731e:	f103 0108 	add.w	r1, r3, #8
 8007322:	f7ff ff75 	bl	8007210 <tcp_echoserver_send.isra.0>
}
 8007326:	2000      	movs	r0, #0
 8007328:	bd08      	pop	{r3, pc}
    if(es->state == ES_CLOSING)
 800732a:	781a      	ldrb	r2, [r3, #0]
 800732c:	2a03      	cmp	r2, #3
 800732e:	d1fa      	bne.n	8007326 <tcp_echoserver_sent+0x12>
      tcp_echoserver_connection_close(tpcb, es);
 8007330:	4619      	mov	r1, r3
 8007332:	f7ff ff1f 	bl	8007174 <tcp_echoserver_connection_close>
 8007336:	e7f6      	b.n	8007326 <tcp_echoserver_sent+0x12>

08007338 <tcp_echoserver_init>:
{
 8007338:	b510      	push	{r4, lr}
  tcp_echoserver_pcb = tcp_new();
 800733a:	f7fc fdf5 	bl	8003f28 <tcp_new>
 800733e:	4c0c      	ldr	r4, [pc, #48]	; (8007370 <tcp_echoserver_init+0x38>)
 8007340:	6020      	str	r0, [r4, #0]
  if (tcp_echoserver_pcb != NULL)
 8007342:	b1a0      	cbz	r0, 800736e <tcp_echoserver_init+0x36>
    err = tcp_bind(tcp_echoserver_pcb, IP_ADDR_ANY, 7);
 8007344:	2207      	movs	r2, #7
 8007346:	490b      	ldr	r1, [pc, #44]	; (8007374 <tcp_echoserver_init+0x3c>)
 8007348:	f7fc f93c 	bl	80035c4 <tcp_bind>
    if (err == ERR_OK)
 800734c:	b948      	cbnz	r0, 8007362 <tcp_echoserver_init+0x2a>
      tcp_echoserver_pcb = tcp_listen(tcp_echoserver_pcb);
 800734e:	21ff      	movs	r1, #255	; 0xff
 8007350:	6820      	ldr	r0, [r4, #0]
 8007352:	f7fc f971 	bl	8003638 <tcp_listen_with_backlog>
      tcp_accept(tcp_echoserver_pcb, tcp_echoserver_accept);
 8007356:	4908      	ldr	r1, [pc, #32]	; (8007378 <tcp_echoserver_init+0x40>)
      tcp_echoserver_pcb = tcp_listen(tcp_echoserver_pcb);
 8007358:	6020      	str	r0, [r4, #0]
}
 800735a:	e8bd 4010 	ldmia.w	sp!, {r4, lr}
      tcp_accept(tcp_echoserver_pcb, tcp_echoserver_accept);
 800735e:	f7fc ba12 	b.w	8003786 <tcp_accept>
      memp_free(MEMP_TCP_PCB, tcp_echoserver_pcb);
 8007362:	6821      	ldr	r1, [r4, #0]
 8007364:	2002      	movs	r0, #2
}
 8007366:	e8bd 4010 	ldmia.w	sp!, {r4, lr}
      memp_free(MEMP_TCP_PCB, tcp_echoserver_pcb);
 800736a:	f7fb be35 	b.w	8002fd8 <memp_free>
 800736e:	bd10      	pop	{r4, pc}
 8007370:	20002624 	.word	0x20002624
 8007374:	08007474 	.word	0x08007474
 8007378:	080071b5 	.word	0x080071b5

0800737c <Reset_Handler>:

    .section  .text.Reset_Handler
  .weak  Reset_Handler
  .type  Reset_Handler, %function
Reset_Handler:  
  ldr   sp, =_estack     /* set stack pointer */
 800737c:	f8df d034 	ldr.w	sp, [pc, #52]	; 80073b4 <LoopFillZerobss+0x14>

/* Copy the data segment initializers from flash to SRAM */  
  movs  r1, #0
 8007380:	2100      	movs	r1, #0
  b  LoopCopyDataInit
 8007382:	e003      	b.n	800738c <LoopCopyDataInit>

08007384 <CopyDataInit>:

CopyDataInit:
  ldr  r3, =_sidata
 8007384:	4b0c      	ldr	r3, [pc, #48]	; (80073b8 <LoopFillZerobss+0x18>)
  ldr  r3, [r3, r1]
 8007386:	585b      	ldr	r3, [r3, r1]
  str  r3, [r0, r1]
 8007388:	5043      	str	r3, [r0, r1]
  adds  r1, r1, #4
 800738a:	3104      	adds	r1, #4

0800738c <LoopCopyDataInit>:
    
LoopCopyDataInit:
  ldr  r0, =_sdata
 800738c:	480b      	ldr	r0, [pc, #44]	; (80073bc <LoopFillZerobss+0x1c>)
  ldr  r3, =_edata
 800738e:	4b0c      	ldr	r3, [pc, #48]	; (80073c0 <LoopFillZerobss+0x20>)
  adds  r2, r0, r1
 8007390:	1842      	adds	r2, r0, r1
  cmp  r2, r3
 8007392:	429a      	cmp	r2, r3
  bcc  CopyDataInit
 8007394:	d3f6      	bcc.n	8007384 <CopyDataInit>
  ldr  r2, =_sbss
 8007396:	4a0b      	ldr	r2, [pc, #44]	; (80073c4 <LoopFillZerobss+0x24>)
  b  LoopFillZerobss
 8007398:	e002      	b.n	80073a0 <LoopFillZerobss>

0800739a <FillZerobss>:
/* Zero fill the bss segment. */  
FillZerobss:
  movs  r3, #0
 800739a:	2300      	movs	r3, #0
  str  r3, [r2], #4
 800739c:	f842 3b04 	str.w	r3, [r2], #4

080073a0 <LoopFillZerobss>:
    
LoopFillZerobss:
  ldr  r3, = _ebss
 80073a0:	4b09      	ldr	r3, [pc, #36]	; (80073c8 <LoopFillZerobss+0x28>)
  cmp  r2, r3
 80073a2:	429a      	cmp	r2, r3
  bcc  FillZerobss
 80073a4:	d3f9      	bcc.n	800739a <FillZerobss>

/* Call the clock system intitialization function.*/
  bl  SystemInit   
 80073a6:	f7ff fed3 	bl	8007150 <SystemInit>
/* Call static constructors */
    bl __libc_init_array
 80073aa:	f000 f811 	bl	80073d0 <__libc_init_array>
/* Call the application's entry point.*/
  bl  main
 80073ae:	f7ff fcc5 	bl	8006d3c <main>
  bx  lr    
 80073b2:	4770      	bx	lr
  ldr   sp, =_estack     /* set stack pointer */
 80073b4:	20020000 	.word	0x20020000
  ldr  r3, =_sidata
 80073b8:	08007500 	.word	0x08007500
  ldr  r0, =_sdata
 80073bc:	20000000 	.word	0x20000000
  ldr  r3, =_edata
 80073c0:	20000018 	.word	0x20000018
  ldr  r2, =_sbss
 80073c4:	20000018 	.word	0x20000018
  ldr  r3, = _ebss
 80073c8:	200055fc 	.word	0x200055fc

080073cc <ADC_IRQHandler>:
 * @retval None       
*/
    .section  .text.Default_Handler,"ax",%progbits
Default_Handler:
Infinite_Loop:
  b  Infinite_Loop
 80073cc:	e7fe      	b.n	80073cc <ADC_IRQHandler>
	...

080073d0 <__libc_init_array>:
 80073d0:	b570      	push	{r4, r5, r6, lr}
 80073d2:	4e0d      	ldr	r6, [pc, #52]	; (8007408 <__libc_init_array+0x38>)
 80073d4:	4c0d      	ldr	r4, [pc, #52]	; (800740c <__libc_init_array+0x3c>)
 80073d6:	1ba4      	subs	r4, r4, r6
 80073d8:	10a4      	asrs	r4, r4, #2
 80073da:	2500      	movs	r5, #0
 80073dc:	42a5      	cmp	r5, r4
 80073de:	d109      	bne.n	80073f4 <__libc_init_array+0x24>
 80073e0:	4e0b      	ldr	r6, [pc, #44]	; (8007410 <__libc_init_array+0x40>)
 80073e2:	4c0c      	ldr	r4, [pc, #48]	; (8007414 <__libc_init_array+0x44>)
 80073e4:	f000 f83a 	bl	800745c <_init>
 80073e8:	1ba4      	subs	r4, r4, r6
 80073ea:	10a4      	asrs	r4, r4, #2
 80073ec:	2500      	movs	r5, #0
 80073ee:	42a5      	cmp	r5, r4
 80073f0:	d105      	bne.n	80073fe <__libc_init_array+0x2e>
 80073f2:	bd70      	pop	{r4, r5, r6, pc}
 80073f4:	f856 3025 	ldr.w	r3, [r6, r5, lsl #2]
 80073f8:	4798      	blx	r3
 80073fa:	3501      	adds	r5, #1
 80073fc:	e7ee      	b.n	80073dc <__libc_init_array+0xc>
 80073fe:	f856 3025 	ldr.w	r3, [r6, r5, lsl #2]
 8007402:	4798      	blx	r3
 8007404:	3501      	adds	r5, #1
 8007406:	e7f2      	b.n	80073ee <__libc_init_array+0x1e>
 8007408:	080074f8 	.word	0x080074f8
 800740c:	080074f8 	.word	0x080074f8
 8007410:	080074f8 	.word	0x080074f8
 8007414:	080074fc 	.word	0x080074fc

08007418 <memcmp>:
 8007418:	b510      	push	{r4, lr}
 800741a:	3901      	subs	r1, #1
 800741c:	4402      	add	r2, r0
 800741e:	4290      	cmp	r0, r2
 8007420:	d101      	bne.n	8007426 <memcmp+0xe>
 8007422:	2000      	movs	r0, #0
 8007424:	bd10      	pop	{r4, pc}
 8007426:	f810 3b01 	ldrb.w	r3, [r0], #1
 800742a:	f811 4f01 	ldrb.w	r4, [r1, #1]!
 800742e:	42a3      	cmp	r3, r4
 8007430:	d0f5      	beq.n	800741e <memcmp+0x6>
 8007432:	1b18      	subs	r0, r3, r4
 8007434:	bd10      	pop	{r4, pc}

08007436 <memcpy>:
 8007436:	b510      	push	{r4, lr}
 8007438:	1e43      	subs	r3, r0, #1
 800743a:	440a      	add	r2, r1
 800743c:	4291      	cmp	r1, r2
 800743e:	d100      	bne.n	8007442 <memcpy+0xc>
 8007440:	bd10      	pop	{r4, pc}
 8007442:	f811 4b01 	ldrb.w	r4, [r1], #1
 8007446:	f803 4f01 	strb.w	r4, [r3, #1]!
 800744a:	e7f7      	b.n	800743c <memcpy+0x6>

0800744c <memset>:
 800744c:	4402      	add	r2, r0
 800744e:	4603      	mov	r3, r0
 8007450:	4293      	cmp	r3, r2
 8007452:	d100      	bne.n	8007456 <memset+0xa>
 8007454:	4770      	bx	lr
 8007456:	f803 1b01 	strb.w	r1, [r3], #1
 800745a:	e7f9      	b.n	8007450 <memset+0x4>

0800745c <_init>:
 800745c:	b5f8      	push	{r3, r4, r5, r6, r7, lr}
 800745e:	bf00      	nop
 8007460:	bcf8      	pop	{r3, r4, r5, r6, r7}
 8007462:	bc08      	pop	{r3}
 8007464:	469e      	mov	lr, r3
 8007466:	4770      	bx	lr

08007468 <_fini>:
 8007468:	b5f8      	push	{r3, r4, r5, r6, r7, lr}
 800746a:	bf00      	nop
 800746c:	bcf8      	pop	{r3, r4, r5, r6, r7}
 800746e:	bc08      	pop	{r3}
 8007470:	469e      	mov	lr, r3
 8007472:	4770      	bx	lr
